ARM GAS  C:\Users\Rolando\AppData\Local\Temp\ccmqTZg9.s 			page 1


   1              		.syntax unified
   2              		.cpu cortex-m3
   3              		.fpu softvfp
   4              		.eabi_attribute 20, 1
   5              		.eabi_attribute 21, 1
   6              		.eabi_attribute 23, 3
   7              		.eabi_attribute 24, 1
   8              		.eabi_attribute 25, 1
   9              		.eabi_attribute 26, 1
  10              		.eabi_attribute 30, 6
  11              		.eabi_attribute 34, 1
  12              		.eabi_attribute 18, 4
  13              		.thumb
  14              		.file	"CyLib.c"
  15              		.text
  16              	.Ltext0:
  17              		.cfi_sections	.debug_frame
  18              		.global	CyResetStatus
  19              		.section	.noinit,"aw",%progbits
  20              		.type	CyResetStatus, %object
  21              		.size	CyResetStatus, 1
  22              	CyResetStatus:
  23 0000 00       		.space	1
  24              		.global	CyScPumpEnabled
  25              		.bss
  26              		.type	CyScPumpEnabled, %object
  27              		.size	CyScPumpEnabled, 1
  28              	CyScPumpEnabled:
  29 0000 00       		.space	1
  30              		.global	cydelay_freq_hz
  31              		.data
  32              		.align	2
  33              		.type	cydelay_freq_hz, %object
  34              		.size	cydelay_freq_hz, 4
  35              	cydelay_freq_hz:
  36 0000 00512502 		.word	36000000
  37              		.global	cydelay_freq_khz
  38              		.align	2
  39              		.type	cydelay_freq_khz, %object
  40              		.size	cydelay_freq_khz, 4
  41              	cydelay_freq_khz:
  42 0004 A08C0000 		.word	36000
  43              		.global	cydelay_freq_mhz
  44              		.type	cydelay_freq_mhz, %object
  45              		.size	cydelay_freq_mhz, 1
  46              	cydelay_freq_mhz:
  47 0008 24       		.byte	36
  48              		.global	cydelay_32k_ms
  49 0009 000000   		.align	2
  50              		.type	cydelay_32k_ms, %object
  51              		.size	cydelay_32k_ms, 4
  52              	cydelay_32k_ms:
  53 000c 00005046 		.word	1179648000
  54              		.section	.text.CyPLL_OUT_Start,"ax",%progbits
  55              		.align	2
  56              		.global	CyPLL_OUT_Start
  57              		.thumb
ARM GAS  C:\Users\Rolando\AppData\Local\Temp\ccmqTZg9.s 			page 2


  58              		.thumb_func
  59              		.type	CyPLL_OUT_Start, %function
  60              	CyPLL_OUT_Start:
  61              	.LFB0:
  62              		.file 1 ".\\Generated_Source\\PSoC5\\CyLib.c"
   1:.\Generated_Source\PSoC5/CyLib.c **** /*******************************************************************************
   2:.\Generated_Source\PSoC5/CyLib.c **** * File Name: CyLib.c
   3:.\Generated_Source\PSoC5/CyLib.c **** * Version 4.0
   4:.\Generated_Source\PSoC5/CyLib.c **** *
   5:.\Generated_Source\PSoC5/CyLib.c **** *  Description:
   6:.\Generated_Source\PSoC5/CyLib.c **** *   Provides system API for the clocking, interrupts and watchdog timer.
   7:.\Generated_Source\PSoC5/CyLib.c **** *
   8:.\Generated_Source\PSoC5/CyLib.c **** *  Note:
   9:.\Generated_Source\PSoC5/CyLib.c **** *   Documentation of the API's in this file is located in the
  10:.\Generated_Source\PSoC5/CyLib.c **** *   System Reference Guide provided with PSoC Creator.
  11:.\Generated_Source\PSoC5/CyLib.c **** *
  12:.\Generated_Source\PSoC5/CyLib.c **** ********************************************************************************
  13:.\Generated_Source\PSoC5/CyLib.c **** * Copyright 2008-2013, Cypress Semiconductor Corporation.  All rights reserved.
  14:.\Generated_Source\PSoC5/CyLib.c **** * You may use this file only in accordance with the license, terms, conditions,
  15:.\Generated_Source\PSoC5/CyLib.c **** * disclaimers, and limitations in the end user license agreement accompanying
  16:.\Generated_Source\PSoC5/CyLib.c **** * the software package with which this file was provided.
  17:.\Generated_Source\PSoC5/CyLib.c **** *******************************************************************************/
  18:.\Generated_Source\PSoC5/CyLib.c **** 
  19:.\Generated_Source\PSoC5/CyLib.c **** #include "CyLib.h"
  20:.\Generated_Source\PSoC5/CyLib.c **** 
  21:.\Generated_Source\PSoC5/CyLib.c **** 
  22:.\Generated_Source\PSoC5/CyLib.c **** /*******************************************************************************
  23:.\Generated_Source\PSoC5/CyLib.c **** * The CyResetStatus variable is used to obtain value of RESET_SR0 register after
  24:.\Generated_Source\PSoC5/CyLib.c **** * a device reset. It is set from initialize_psoc() at the early initialization
  25:.\Generated_Source\PSoC5/CyLib.c **** * stage. In case of IAR EW IDE, initialize_psoc() is executed before the data
  26:.\Generated_Source\PSoC5/CyLib.c **** * sections are initialized. To avoid zeroing, CyResetStatus should be placed
  27:.\Generated_Source\PSoC5/CyLib.c **** * to the .noinit section.
  28:.\Generated_Source\PSoC5/CyLib.c **** *******************************************************************************/
  29:.\Generated_Source\PSoC5/CyLib.c **** CY_NOINIT uint8 CYXDATA CyResetStatus;
  30:.\Generated_Source\PSoC5/CyLib.c **** 
  31:.\Generated_Source\PSoC5/CyLib.c **** 
  32:.\Generated_Source\PSoC5/CyLib.c **** /* Variable Vdda */
  33:.\Generated_Source\PSoC5/CyLib.c **** #if(CYDEV_VARIABLE_VDDA == 1)
  34:.\Generated_Source\PSoC5/CyLib.c **** 
  35:.\Generated_Source\PSoC5/CyLib.c ****     uint8 CyScPumpEnabled = (uint8)(CYDEV_VDDA_MV < 2700);
  36:.\Generated_Source\PSoC5/CyLib.c **** 
  37:.\Generated_Source\PSoC5/CyLib.c **** #endif  /* (CYDEV_VARIABLE_VDDA == 1) */
  38:.\Generated_Source\PSoC5/CyLib.c **** 
  39:.\Generated_Source\PSoC5/CyLib.c **** 
  40:.\Generated_Source\PSoC5/CyLib.c **** /* Do not use these definitions directly in your application */
  41:.\Generated_Source\PSoC5/CyLib.c **** uint32 cydelay_freq_hz  = BCLK__BUS_CLK__HZ;
  42:.\Generated_Source\PSoC5/CyLib.c **** uint32 cydelay_freq_khz = (BCLK__BUS_CLK__HZ + 999u) / 1000u;
  43:.\Generated_Source\PSoC5/CyLib.c **** uint8  cydelay_freq_mhz = (uint8)((BCLK__BUS_CLK__HZ + 999999u) / 1000000u);
  44:.\Generated_Source\PSoC5/CyLib.c **** uint32 cydelay_32k_ms   = 32768u * ((BCLK__BUS_CLK__HZ + 999u) / 1000u);
  45:.\Generated_Source\PSoC5/CyLib.c **** 
  46:.\Generated_Source\PSoC5/CyLib.c **** 
  47:.\Generated_Source\PSoC5/CyLib.c **** /* Function Prototypes */
  48:.\Generated_Source\PSoC5/CyLib.c **** static uint8 CyUSB_PowerOnCheck(void)  ;
  49:.\Generated_Source\PSoC5/CyLib.c **** static void CyIMO_SetTrimValue(uint8 freq) ;
  50:.\Generated_Source\PSoC5/CyLib.c **** static void CyBusClk_Internal_SetDivider(uint16 divider);
  51:.\Generated_Source\PSoC5/CyLib.c **** 
  52:.\Generated_Source\PSoC5/CyLib.c **** 
ARM GAS  C:\Users\Rolando\AppData\Local\Temp\ccmqTZg9.s 			page 3


  53:.\Generated_Source\PSoC5/CyLib.c **** /*******************************************************************************
  54:.\Generated_Source\PSoC5/CyLib.c **** * Function Name: CyPLL_OUT_Start
  55:.\Generated_Source\PSoC5/CyLib.c **** ********************************************************************************
  56:.\Generated_Source\PSoC5/CyLib.c **** *
  57:.\Generated_Source\PSoC5/CyLib.c **** * Summary:
  58:.\Generated_Source\PSoC5/CyLib.c **** *   Enables the PLL.  Optionally waits for it to become stable.
  59:.\Generated_Source\PSoC5/CyLib.c **** *   Waits at least 250 us or until it is detected that the PLL is stable.
  60:.\Generated_Source\PSoC5/CyLib.c **** *
  61:.\Generated_Source\PSoC5/CyLib.c **** * Parameters:
  62:.\Generated_Source\PSoC5/CyLib.c **** *   wait:
  63:.\Generated_Source\PSoC5/CyLib.c **** *    0: Return immediately after configuration
  64:.\Generated_Source\PSoC5/CyLib.c **** *    1: Wait for PLL lock or timeout.
  65:.\Generated_Source\PSoC5/CyLib.c **** *
  66:.\Generated_Source\PSoC5/CyLib.c **** * Return:
  67:.\Generated_Source\PSoC5/CyLib.c **** *   Status
  68:.\Generated_Source\PSoC5/CyLib.c **** *    CYRET_SUCCESS - Completed successfully
  69:.\Generated_Source\PSoC5/CyLib.c **** *    CYRET_TIMEOUT - Timeout occurred without detecting a stable clock.
  70:.\Generated_Source\PSoC5/CyLib.c **** *     If the input source of the clock is jittery, then the lock indication
  71:.\Generated_Source\PSoC5/CyLib.c **** *     may not occur.  However, after the timeout has expired the generated PLL
  72:.\Generated_Source\PSoC5/CyLib.c **** *     clock can still be used.
  73:.\Generated_Source\PSoC5/CyLib.c **** *
  74:.\Generated_Source\PSoC5/CyLib.c **** * Side Effects:
  75:.\Generated_Source\PSoC5/CyLib.c **** *  If wait is enabled: This function wses the Fast Time Wheel to time the wait.
  76:.\Generated_Source\PSoC5/CyLib.c **** *  Any other use of the Fast Time Wheel will be stopped during the period of
  77:.\Generated_Source\PSoC5/CyLib.c **** *  this function and then restored. This function also uses the 100 KHz ILO.
  78:.\Generated_Source\PSoC5/CyLib.c **** *  If not enabled, this function will enable the 100 KHz ILO for the period of
  79:.\Generated_Source\PSoC5/CyLib.c **** *  this function.
  80:.\Generated_Source\PSoC5/CyLib.c **** *
  81:.\Generated_Source\PSoC5/CyLib.c **** *  No changes to the setup of the ILO, Fast Time Wheel, Central Time Wheel or
  82:.\Generated_Source\PSoC5/CyLib.c **** *  Once Per Second interrupt may be made by interrupt routines during the period
  83:.\Generated_Source\PSoC5/CyLib.c **** *  of this function execution. The current operation of the ILO, Central Time
  84:.\Generated_Source\PSoC5/CyLib.c **** *  Wheel and Once Per Second interrupt are maintained during the operation of
  85:.\Generated_Source\PSoC5/CyLib.c **** *  this function provided the reading of the Power Manager Interrupt Status
  86:.\Generated_Source\PSoC5/CyLib.c **** *  Register is only done using the CyPmReadStatus() function.
  87:.\Generated_Source\PSoC5/CyLib.c **** *
  88:.\Generated_Source\PSoC5/CyLib.c **** *******************************************************************************/
  89:.\Generated_Source\PSoC5/CyLib.c **** cystatus CyPLL_OUT_Start(uint8 wait) 
  90:.\Generated_Source\PSoC5/CyLib.c **** {
  63              		.loc 1 90 0
  64              		.cfi_startproc
  65              		@ args = 0, pretend = 0, frame = 16
  66              		@ frame_needed = 1, uses_anonymous_args = 0
  67 0000 80B5     		push	{r7, lr}
  68              		.cfi_def_cfa_offset 8
  69              		.cfi_offset 7, -8
  70              		.cfi_offset 14, -4
  71 0002 84B0     		sub	sp, sp, #16
  72              		.cfi_def_cfa_offset 24
  73 0004 00AF     		add	r7, sp, #0
  74              		.cfi_def_cfa_register 7
  75 0006 0346     		mov	r3, r0
  76 0008 FB71     		strb	r3, [r7, #7]
  91:.\Generated_Source\PSoC5/CyLib.c ****     cystatus status = CYRET_SUCCESS;
  77              		.loc 1 91 0
  78 000a 0023     		movs	r3, #0
  79 000c FB60     		str	r3, [r7, #12]
  92:.\Generated_Source\PSoC5/CyLib.c **** 
ARM GAS  C:\Users\Rolando\AppData\Local\Temp\ccmqTZg9.s 			page 4


  93:.\Generated_Source\PSoC5/CyLib.c ****     uint8 iloEnableState;
  94:.\Generated_Source\PSoC5/CyLib.c ****     uint8 pmTwCfg0State;
  95:.\Generated_Source\PSoC5/CyLib.c ****     uint8 pmTwCfg2State;
  96:.\Generated_Source\PSoC5/CyLib.c **** 
  97:.\Generated_Source\PSoC5/CyLib.c **** 
  98:.\Generated_Source\PSoC5/CyLib.c ****     /* Enables the PLL circuit  */
  99:.\Generated_Source\PSoC5/CyLib.c ****     CY_CLK_PLL_CFG0_REG |= CY_CLK_PLL_ENABLE;
  80              		.loc 1 99 0
  81 000e 234A     		ldr	r2, .L8
  82 0010 224B     		ldr	r3, .L8
  83 0012 1B78     		ldrb	r3, [r3]
  84 0014 DBB2     		uxtb	r3, r3
  85 0016 43F00103 		orr	r3, r3, #1
  86 001a DBB2     		uxtb	r3, r3
  87 001c 1370     		strb	r3, [r2]
 100:.\Generated_Source\PSoC5/CyLib.c **** 
 101:.\Generated_Source\PSoC5/CyLib.c ****     if(wait != 0u)
  88              		.loc 1 101 0
  89 001e FB79     		ldrb	r3, [r7, #7]	@ zero_extendqisi2
  90 0020 002B     		cmp	r3, #0
  91 0022 36D0     		beq	.L2
 102:.\Generated_Source\PSoC5/CyLib.c ****     {
 103:.\Generated_Source\PSoC5/CyLib.c ****         /* Save 100 KHz ILO, FTW interval, enable and interrupt enable */
 104:.\Generated_Source\PSoC5/CyLib.c ****         iloEnableState = CY_LIB_SLOWCLK_ILO_CR0_REG & CY_LIB_SLOWCLK_ILO_CR0_EN_100KHZ;
  92              		.loc 1 104 0
  93 0024 1E4B     		ldr	r3, .L8+4
  94 0026 1B78     		ldrb	r3, [r3]
  95 0028 DBB2     		uxtb	r3, r3
  96 002a 03F00403 		and	r3, r3, #4
  97 002e FB72     		strb	r3, [r7, #11]
 105:.\Generated_Source\PSoC5/CyLib.c ****         pmTwCfg0State = CY_LIB_PM_TW_CFG0_REG;
  98              		.loc 1 105 0
  99 0030 1C4B     		ldr	r3, .L8+8
 100 0032 1B78     		ldrb	r3, [r3]
 101 0034 BB72     		strb	r3, [r7, #10]
 106:.\Generated_Source\PSoC5/CyLib.c ****         pmTwCfg2State = CY_LIB_PM_TW_CFG2_REG;
 102              		.loc 1 106 0
 103 0036 1C4B     		ldr	r3, .L8+12
 104 0038 1B78     		ldrb	r3, [r3]
 105 003a 7B72     		strb	r3, [r7, #9]
 107:.\Generated_Source\PSoC5/CyLib.c **** 
 108:.\Generated_Source\PSoC5/CyLib.c ****         CyPmFtwSetInterval(CY_CLK_PLL_FTW_INTERVAL);
 106              		.loc 1 108 0
 107 003c 1820     		movs	r0, #24
 108 003e FFF7FEFF 		bl	CyPmFtwSetInterval
 109:.\Generated_Source\PSoC5/CyLib.c **** 
 110:.\Generated_Source\PSoC5/CyLib.c ****         status = CYRET_TIMEOUT;
 109              		.loc 1 110 0
 110 0042 1023     		movs	r3, #16
 111 0044 FB60     		str	r3, [r7, #12]
 111:.\Generated_Source\PSoC5/CyLib.c **** 
 112:.\Generated_Source\PSoC5/CyLib.c ****         while(0u == (CY_PM_FTW_INT & CyPmReadStatus(CY_PM_FTW_INT)))
 112              		.loc 1 112 0
 113 0046 10E0     		b	.L3
 114              	.L5:
 113:.\Generated_Source\PSoC5/CyLib.c ****         {
 114:.\Generated_Source\PSoC5/CyLib.c ****             /* Wait for the interrupt status */
ARM GAS  C:\Users\Rolando\AppData\Local\Temp\ccmqTZg9.s 			page 5


 115:.\Generated_Source\PSoC5/CyLib.c ****             if(0u != (CY_CLK_PLL_SR_REG & CY_CLK_PLL_LOCK_STATUS))
 115              		.loc 1 115 0
 116 0048 184B     		ldr	r3, .L8+16
 117 004a 1B78     		ldrb	r3, [r3]
 118 004c DBB2     		uxtb	r3, r3
 119 004e 03F00103 		and	r3, r3, #1
 120 0052 002B     		cmp	r3, #0
 121 0054 09D0     		beq	.L3
 116:.\Generated_Source\PSoC5/CyLib.c ****             {
 117:.\Generated_Source\PSoC5/CyLib.c ****                 if(0u != (CY_CLK_PLL_SR_REG & CY_CLK_PLL_LOCK_STATUS))
 122              		.loc 1 117 0
 123 0056 154B     		ldr	r3, .L8+16
 124 0058 1B78     		ldrb	r3, [r3]
 125 005a DBB2     		uxtb	r3, r3
 126 005c 03F00103 		and	r3, r3, #1
 127 0060 002B     		cmp	r3, #0
 128 0062 02D0     		beq	.L3
 118:.\Generated_Source\PSoC5/CyLib.c ****                 {
 119:.\Generated_Source\PSoC5/CyLib.c ****                     status = CYRET_SUCCESS;
 129              		.loc 1 119 0
 130 0064 0023     		movs	r3, #0
 131 0066 FB60     		str	r3, [r7, #12]
 120:.\Generated_Source\PSoC5/CyLib.c ****                     break;
 132              		.loc 1 120 0
 133 0068 08E0     		b	.L4
 134              	.L3:
 112:.\Generated_Source\PSoC5/CyLib.c ****         {
 135              		.loc 1 112 0
 136 006a 0120     		movs	r0, #1
 137 006c FFF7FEFF 		bl	CyPmReadStatus
 138 0070 0346     		mov	r3, r0
 139 0072 03F00103 		and	r3, r3, #1
 140 0076 DBB2     		uxtb	r3, r3
 141 0078 002B     		cmp	r3, #0
 142 007a E5D0     		beq	.L5
 143              	.L4:
 121:.\Generated_Source\PSoC5/CyLib.c ****                 }
 122:.\Generated_Source\PSoC5/CyLib.c ****             }
 123:.\Generated_Source\PSoC5/CyLib.c ****         }
 124:.\Generated_Source\PSoC5/CyLib.c **** 
 125:.\Generated_Source\PSoC5/CyLib.c ****         /* Restore 100 KHz ILO, FTW interval, enable and interrupt enable */
 126:.\Generated_Source\PSoC5/CyLib.c ****         if(0u == iloEnableState)
 144              		.loc 1 126 0
 145 007c FB7A     		ldrb	r3, [r7, #11]	@ zero_extendqisi2
 146 007e 002B     		cmp	r3, #0
 147 0080 01D1     		bne	.L6
 127:.\Generated_Source\PSoC5/CyLib.c ****         {
 128:.\Generated_Source\PSoC5/CyLib.c ****             CyILO_Stop100K();
 148              		.loc 1 128 0
 149 0082 FFF7FEFF 		bl	CyILO_Stop100K
 150              	.L6:
 129:.\Generated_Source\PSoC5/CyLib.c ****         }
 130:.\Generated_Source\PSoC5/CyLib.c **** 
 131:.\Generated_Source\PSoC5/CyLib.c ****         CY_LIB_PM_TW_CFG0_REG = pmTwCfg0State;
 151              		.loc 1 131 0
 152 0086 074A     		ldr	r2, .L8+8
 153 0088 BB7A     		ldrb	r3, [r7, #10]
ARM GAS  C:\Users\Rolando\AppData\Local\Temp\ccmqTZg9.s 			page 6


 154 008a 1370     		strb	r3, [r2]
 132:.\Generated_Source\PSoC5/CyLib.c ****         CY_LIB_PM_TW_CFG2_REG = pmTwCfg2State;
 155              		.loc 1 132 0
 156 008c 064A     		ldr	r2, .L8+12
 157 008e 7B7A     		ldrb	r3, [r7, #9]
 158 0090 1370     		strb	r3, [r2]
 159              	.L2:
 133:.\Generated_Source\PSoC5/CyLib.c ****     }
 134:.\Generated_Source\PSoC5/CyLib.c **** 
 135:.\Generated_Source\PSoC5/CyLib.c ****     return(status);
 160              		.loc 1 135 0
 161 0092 FB68     		ldr	r3, [r7, #12]
 136:.\Generated_Source\PSoC5/CyLib.c **** }
 162              		.loc 1 136 0
 163 0094 1846     		mov	r0, r3
 164 0096 1037     		adds	r7, r7, #16
 165              		.cfi_def_cfa_offset 8
 166 0098 BD46     		mov	sp, r7
 167              		.cfi_def_cfa_register 13
 168              		@ sp needed
 169 009a 80BD     		pop	{r7, pc}
 170              	.L9:
 171              		.align	2
 172              	.L8:
 173 009c 20420040 		.word	1073758752
 174 00a0 00430040 		.word	1073758976
 175 00a4 80430040 		.word	1073759104
 176 00a8 82430040 		.word	1073759106
 177 00ac 25420040 		.word	1073758757
 178              		.cfi_endproc
 179              	.LFE0:
 180              		.size	CyPLL_OUT_Start, .-CyPLL_OUT_Start
 181              		.section	.text.CyPLL_OUT_Stop,"ax",%progbits
 182              		.align	2
 183              		.global	CyPLL_OUT_Stop
 184              		.thumb
 185              		.thumb_func
 186              		.type	CyPLL_OUT_Stop, %function
 187              	CyPLL_OUT_Stop:
 188              	.LFB1:
 137:.\Generated_Source\PSoC5/CyLib.c **** 
 138:.\Generated_Source\PSoC5/CyLib.c **** 
 139:.\Generated_Source\PSoC5/CyLib.c **** /*******************************************************************************
 140:.\Generated_Source\PSoC5/CyLib.c **** * Function Name: CyPLL_OUT_Stop
 141:.\Generated_Source\PSoC5/CyLib.c **** ********************************************************************************
 142:.\Generated_Source\PSoC5/CyLib.c **** *
 143:.\Generated_Source\PSoC5/CyLib.c **** * Summary:
 144:.\Generated_Source\PSoC5/CyLib.c **** *  Disables the PLL.
 145:.\Generated_Source\PSoC5/CyLib.c **** *
 146:.\Generated_Source\PSoC5/CyLib.c **** * Parameters:
 147:.\Generated_Source\PSoC5/CyLib.c **** *  None
 148:.\Generated_Source\PSoC5/CyLib.c **** *
 149:.\Generated_Source\PSoC5/CyLib.c **** * Return:
 150:.\Generated_Source\PSoC5/CyLib.c **** *  None
 151:.\Generated_Source\PSoC5/CyLib.c **** *
 152:.\Generated_Source\PSoC5/CyLib.c **** *******************************************************************************/
 153:.\Generated_Source\PSoC5/CyLib.c **** void CyPLL_OUT_Stop(void) 
ARM GAS  C:\Users\Rolando\AppData\Local\Temp\ccmqTZg9.s 			page 7


 154:.\Generated_Source\PSoC5/CyLib.c **** {
 189              		.loc 1 154 0
 190              		.cfi_startproc
 191              		@ args = 0, pretend = 0, frame = 0
 192              		@ frame_needed = 1, uses_anonymous_args = 0
 193              		@ link register save eliminated.
 194 0000 80B4     		push	{r7}
 195              		.cfi_def_cfa_offset 4
 196              		.cfi_offset 7, -4
 197 0002 00AF     		add	r7, sp, #0
 198              		.cfi_def_cfa_register 7
 155:.\Generated_Source\PSoC5/CyLib.c ****     CY_CLK_PLL_CFG0_REG &= ((uint8)(~CY_CLK_PLL_ENABLE));
 199              		.loc 1 155 0
 200 0004 054A     		ldr	r2, .L11
 201 0006 054B     		ldr	r3, .L11
 202 0008 1B78     		ldrb	r3, [r3]
 203 000a DBB2     		uxtb	r3, r3
 204 000c 23F00103 		bic	r3, r3, #1
 205 0010 DBB2     		uxtb	r3, r3
 206 0012 1370     		strb	r3, [r2]
 156:.\Generated_Source\PSoC5/CyLib.c **** }
 207              		.loc 1 156 0
 208 0014 BD46     		mov	sp, r7
 209              		.cfi_def_cfa_register 13
 210              		@ sp needed
 211 0016 5DF8047B 		ldr	r7, [sp], #4
 212              		.cfi_restore 7
 213              		.cfi_def_cfa_offset 0
 214 001a 7047     		bx	lr
 215              	.L12:
 216              		.align	2
 217              	.L11:
 218 001c 20420040 		.word	1073758752
 219              		.cfi_endproc
 220              	.LFE1:
 221              		.size	CyPLL_OUT_Stop, .-CyPLL_OUT_Stop
 222              		.section	.text.CyPLL_OUT_SetPQ,"ax",%progbits
 223              		.align	2
 224              		.global	CyPLL_OUT_SetPQ
 225              		.thumb
 226              		.thumb_func
 227              		.type	CyPLL_OUT_SetPQ, %function
 228              	CyPLL_OUT_SetPQ:
 229              	.LFB2:
 157:.\Generated_Source\PSoC5/CyLib.c **** 
 158:.\Generated_Source\PSoC5/CyLib.c **** 
 159:.\Generated_Source\PSoC5/CyLib.c **** /*******************************************************************************
 160:.\Generated_Source\PSoC5/CyLib.c **** * Function Name: CyPLL_OUT_SetPQ
 161:.\Generated_Source\PSoC5/CyLib.c **** ********************************************************************************
 162:.\Generated_Source\PSoC5/CyLib.c **** *
 163:.\Generated_Source\PSoC5/CyLib.c **** * Summary:
 164:.\Generated_Source\PSoC5/CyLib.c **** *  Sets the P and Q dividers and the charge pump current.
 165:.\Generated_Source\PSoC5/CyLib.c **** *  The Frequency Out will be P/Q * Frequency In.
 166:.\Generated_Source\PSoC5/CyLib.c **** *  The PLL must be disabled before calling this function.
 167:.\Generated_Source\PSoC5/CyLib.c **** *
 168:.\Generated_Source\PSoC5/CyLib.c **** * Parameters:
 169:.\Generated_Source\PSoC5/CyLib.c **** *  uint8 pDiv:
ARM GAS  C:\Users\Rolando\AppData\Local\Temp\ccmqTZg9.s 			page 8


 170:.\Generated_Source\PSoC5/CyLib.c **** *   Valid range [8 - 255].
 171:.\Generated_Source\PSoC5/CyLib.c **** *
 172:.\Generated_Source\PSoC5/CyLib.c **** *  uint8 qDiv:
 173:.\Generated_Source\PSoC5/CyLib.c **** *   Valid range [1 - 16]. Input Frequency / Q must be in range of 1 to 3 MHz.
 174:.\Generated_Source\PSoC5/CyLib.c **** 
 175:.\Generated_Source\PSoC5/CyLib.c **** *  uint8 current:
 176:.\Generated_Source\PSoC5/CyLib.c **** *   Valid range [1 - 7]. Charge pump current in uA. Refer to the device TRM and
 177:.\Generated_Source\PSoC5/CyLib.c **** *   datasheet for more information.
 178:.\Generated_Source\PSoC5/CyLib.c **** *
 179:.\Generated_Source\PSoC5/CyLib.c **** * Return:
 180:.\Generated_Source\PSoC5/CyLib.c **** *  None
 181:.\Generated_Source\PSoC5/CyLib.c **** *
 182:.\Generated_Source\PSoC5/CyLib.c **** * Side Effects:
 183:.\Generated_Source\PSoC5/CyLib.c **** *  If as result of this function execution the CPU clock frequency is increased
 184:.\Generated_Source\PSoC5/CyLib.c **** *  then the number of clock cycles the cache will wait before it samples data
 185:.\Generated_Source\PSoC5/CyLib.c **** *  coming back from Flash must be adjusted by calling CyFlash_SetWaitCycles()
 186:.\Generated_Source\PSoC5/CyLib.c **** *  with appropriate parameter. It can be optionally called if CPU clock
 187:.\Generated_Source\PSoC5/CyLib.c **** *  frequency is lowered in order to improve CPU performance.
 188:.\Generated_Source\PSoC5/CyLib.c **** *  See CyFlash_SetWaitCycles() description for more information.
 189:.\Generated_Source\PSoC5/CyLib.c **** *
 190:.\Generated_Source\PSoC5/CyLib.c **** *******************************************************************************/
 191:.\Generated_Source\PSoC5/CyLib.c **** void CyPLL_OUT_SetPQ(uint8 pDiv, uint8 qDiv, uint8 current) 
 192:.\Generated_Source\PSoC5/CyLib.c **** {
 230              		.loc 1 192 0
 231              		.cfi_startproc
 232              		@ args = 0, pretend = 0, frame = 8
 233              		@ frame_needed = 1, uses_anonymous_args = 0
 234 0000 80B5     		push	{r7, lr}
 235              		.cfi_def_cfa_offset 8
 236              		.cfi_offset 7, -8
 237              		.cfi_offset 14, -4
 238 0002 82B0     		sub	sp, sp, #8
 239              		.cfi_def_cfa_offset 16
 240 0004 00AF     		add	r7, sp, #0
 241              		.cfi_def_cfa_register 7
 242 0006 0346     		mov	r3, r0
 243 0008 FB71     		strb	r3, [r7, #7]
 244 000a 0B46     		mov	r3, r1
 245 000c BB71     		strb	r3, [r7, #6]
 246 000e 1346     		mov	r3, r2
 247 0010 7B71     		strb	r3, [r7, #5]
 193:.\Generated_Source\PSoC5/CyLib.c ****     /* Halt CPU in debug mode if PLL is enabled */
 194:.\Generated_Source\PSoC5/CyLib.c ****     CYASSERT(0u == (CY_CLK_PLL_CFG0_REG & CY_CLK_PLL_ENABLE));
 248              		.loc 1 194 0
 249 0012 1B4B     		ldr	r3, .L17
 250 0014 1B78     		ldrb	r3, [r3]
 251 0016 DBB2     		uxtb	r3, r3
 252 0018 03F00103 		and	r3, r3, #1
 253 001c 002B     		cmp	r3, #0
 254 001e 02D0     		beq	.L14
 255              		.loc 1 194 0 is_stmt 0 discriminator 1
 256 0020 0020     		movs	r0, #0
 257 0022 FFF7FEFF 		bl	CyHalt
 258              	.L14:
 195:.\Generated_Source\PSoC5/CyLib.c **** 
 196:.\Generated_Source\PSoC5/CyLib.c ****     if((pDiv    >= CY_CLK_PLL_MIN_P_VALUE  ) &&
 259              		.loc 1 196 0 is_stmt 1
ARM GAS  C:\Users\Rolando\AppData\Local\Temp\ccmqTZg9.s 			page 9


 260 0026 FB79     		ldrb	r3, [r7, #7]	@ zero_extendqisi2
 261 0028 072B     		cmp	r3, #7
 262 002a 23D9     		bls	.L15
 263              		.loc 1 196 0 is_stmt 0 discriminator 1
 264 002c BB79     		ldrb	r3, [r7, #6]	@ zero_extendqisi2
 265 002e 102B     		cmp	r3, #16
 266 0030 20D8     		bhi	.L15
 197:.\Generated_Source\PSoC5/CyLib.c ****        (qDiv    <= CY_CLK_PLL_MAX_Q_VALUE  ) && (qDiv    >= CY_CLK_PLL_MIN_Q_VALUE  ) &&
 267              		.loc 1 197 0 is_stmt 1
 268 0032 BB79     		ldrb	r3, [r7, #6]	@ zero_extendqisi2
 269 0034 002B     		cmp	r3, #0
 270 0036 1DD0     		beq	.L15
 271              		.loc 1 197 0 is_stmt 0 discriminator 1
 272 0038 7B79     		ldrb	r3, [r7, #5]	@ zero_extendqisi2
 273 003a 002B     		cmp	r3, #0
 274 003c 1AD0     		beq	.L15
 198:.\Generated_Source\PSoC5/CyLib.c ****        (current >= CY_CLK_PLL_MIN_CUR_VALUE) && (current <= CY_CLK_PLL_MAX_CUR_VALUE))
 275              		.loc 1 198 0 is_stmt 1
 276 003e 7B79     		ldrb	r3, [r7, #5]	@ zero_extendqisi2
 277 0040 072B     		cmp	r3, #7
 278 0042 17D8     		bhi	.L15
 199:.\Generated_Source\PSoC5/CyLib.c ****     {
 200:.\Generated_Source\PSoC5/CyLib.c ****         /* Set new values */
 201:.\Generated_Source\PSoC5/CyLib.c ****         CY_CLK_PLL_P_REG = pDiv;
 279              		.loc 1 201 0
 280 0044 0F4A     		ldr	r2, .L17+4
 281 0046 FB79     		ldrb	r3, [r7, #7]
 282 0048 1370     		strb	r3, [r2]
 202:.\Generated_Source\PSoC5/CyLib.c ****         CY_CLK_PLL_Q_REG = ((uint8)(qDiv - 1u));
 283              		.loc 1 202 0
 284 004a 0F4A     		ldr	r2, .L17+8
 285 004c BB79     		ldrb	r3, [r7, #6]
 286 004e 013B     		subs	r3, r3, #1
 287 0050 DBB2     		uxtb	r3, r3
 288 0052 1370     		strb	r3, [r2]
 203:.\Generated_Source\PSoC5/CyLib.c ****         CY_CLK_PLL_CFG1_REG = (CY_CLK_PLL_CFG1_REG & CY_CLK_PLL_CURRENT_MASK) |
 289              		.loc 1 203 0
 290 0054 0D49     		ldr	r1, .L17+12
 291 0056 0D4B     		ldr	r3, .L17+12
 292 0058 1B78     		ldrb	r3, [r3]
 293 005a DBB2     		uxtb	r3, r3
 294 005c 23F07003 		bic	r3, r3, #112
 295 0060 DAB2     		uxtb	r2, r3
 204:.\Generated_Source\PSoC5/CyLib.c ****                                 ((uint8)(((uint8)(current - 1u)) << CY_CLK_PLL_CURRENT_POSITION));
 296              		.loc 1 204 0
 297 0062 7B79     		ldrb	r3, [r7, #5]
 298 0064 013B     		subs	r3, r3, #1
 299 0066 DBB2     		uxtb	r3, r3
 300 0068 1B01     		lsls	r3, r3, #4
 301 006a DBB2     		uxtb	r3, r3
 203:.\Generated_Source\PSoC5/CyLib.c ****         CY_CLK_PLL_CFG1_REG = (CY_CLK_PLL_CFG1_REG & CY_CLK_PLL_CURRENT_MASK) |
 302              		.loc 1 203 0
 303 006c 1343     		orrs	r3, r3, r2
 304 006e DBB2     		uxtb	r3, r3
 305 0070 0B70     		strb	r3, [r1]
 306 0072 02E0     		b	.L13
 307              	.L15:
ARM GAS  C:\Users\Rolando\AppData\Local\Temp\ccmqTZg9.s 			page 10


 205:.\Generated_Source\PSoC5/CyLib.c ****     }
 206:.\Generated_Source\PSoC5/CyLib.c ****     else
 207:.\Generated_Source\PSoC5/CyLib.c ****     {
 208:.\Generated_Source\PSoC5/CyLib.c ****         /***********************************************************************
 209:.\Generated_Source\PSoC5/CyLib.c ****         * Halt CPU in debug mode if:
 210:.\Generated_Source\PSoC5/CyLib.c ****         * - P divider is less than required
 211:.\Generated_Source\PSoC5/CyLib.c ****         * - Q divider is out of range
 212:.\Generated_Source\PSoC5/CyLib.c ****         * - pump current is out of range
 213:.\Generated_Source\PSoC5/CyLib.c ****         ***********************************************************************/
 214:.\Generated_Source\PSoC5/CyLib.c ****         CYASSERT(0u != 0u);
 308              		.loc 1 214 0 discriminator 1
 309 0074 0020     		movs	r0, #0
 310 0076 FFF7FEFF 		bl	CyHalt
 311              	.L13:
 215:.\Generated_Source\PSoC5/CyLib.c ****     }
 216:.\Generated_Source\PSoC5/CyLib.c **** 
 217:.\Generated_Source\PSoC5/CyLib.c **** }
 312              		.loc 1 217 0
 313 007a 0837     		adds	r7, r7, #8
 314              		.cfi_def_cfa_offset 8
 315 007c BD46     		mov	sp, r7
 316              		.cfi_def_cfa_register 13
 317              		@ sp needed
 318 007e 80BD     		pop	{r7, pc}
 319              	.L18:
 320              		.align	2
 321              	.L17:
 322 0080 20420040 		.word	1073758752
 323 0084 22420040 		.word	1073758754
 324 0088 23420040 		.word	1073758755
 325 008c 21420040 		.word	1073758753
 326              		.cfi_endproc
 327              	.LFE2:
 328              		.size	CyPLL_OUT_SetPQ, .-CyPLL_OUT_SetPQ
 329              		.section	.text.CyPLL_OUT_SetSource,"ax",%progbits
 330              		.align	2
 331              		.global	CyPLL_OUT_SetSource
 332              		.thumb
 333              		.thumb_func
 334              		.type	CyPLL_OUT_SetSource, %function
 335              	CyPLL_OUT_SetSource:
 336              	.LFB3:
 218:.\Generated_Source\PSoC5/CyLib.c **** 
 219:.\Generated_Source\PSoC5/CyLib.c **** 
 220:.\Generated_Source\PSoC5/CyLib.c **** /*******************************************************************************
 221:.\Generated_Source\PSoC5/CyLib.c **** * Function Name: CyPLL_OUT_SetSource
 222:.\Generated_Source\PSoC5/CyLib.c **** ********************************************************************************
 223:.\Generated_Source\PSoC5/CyLib.c **** *
 224:.\Generated_Source\PSoC5/CyLib.c **** * Summary:
 225:.\Generated_Source\PSoC5/CyLib.c **** *  Sets the input clock source to the PLL. The PLL must be disabled before
 226:.\Generated_Source\PSoC5/CyLib.c **** *  calling this function.
 227:.\Generated_Source\PSoC5/CyLib.c **** *
 228:.\Generated_Source\PSoC5/CyLib.c **** * Parameters:
 229:.\Generated_Source\PSoC5/CyLib.c **** *   source: One of the three available PLL clock sources
 230:.\Generated_Source\PSoC5/CyLib.c **** *    CY_PLL_SOURCE_IMO  :   IMO
 231:.\Generated_Source\PSoC5/CyLib.c **** *    CY_PLL_SOURCE_XTAL :   MHz Crystal
 232:.\Generated_Source\PSoC5/CyLib.c **** *    CY_PLL_SOURCE_DSI  :   DSI
ARM GAS  C:\Users\Rolando\AppData\Local\Temp\ccmqTZg9.s 			page 11


 233:.\Generated_Source\PSoC5/CyLib.c **** *
 234:.\Generated_Source\PSoC5/CyLib.c **** * Return:
 235:.\Generated_Source\PSoC5/CyLib.c **** *  None
 236:.\Generated_Source\PSoC5/CyLib.c **** *
 237:.\Generated_Source\PSoC5/CyLib.c **** * Side Effects:
 238:.\Generated_Source\PSoC5/CyLib.c **** *  If as result of this function execution the CPU clock frequency is increased
 239:.\Generated_Source\PSoC5/CyLib.c **** *  then the number of clock cycles the cache will wait before it samples data
 240:.\Generated_Source\PSoC5/CyLib.c **** *  coming back from Flash must be adjusted by calling CyFlash_SetWaitCycles()
 241:.\Generated_Source\PSoC5/CyLib.c **** *  with appropriate parameter. It can be optionally called if CPU clock
 242:.\Generated_Source\PSoC5/CyLib.c **** *  frequency is lowered in order to improve CPU performance.
 243:.\Generated_Source\PSoC5/CyLib.c **** *  See CyFlash_SetWaitCycles() description for more information.
 244:.\Generated_Source\PSoC5/CyLib.c **** *
 245:.\Generated_Source\PSoC5/CyLib.c **** *******************************************************************************/
 246:.\Generated_Source\PSoC5/CyLib.c **** void CyPLL_OUT_SetSource(uint8 source) 
 247:.\Generated_Source\PSoC5/CyLib.c **** {
 337              		.loc 1 247 0
 338              		.cfi_startproc
 339              		@ args = 0, pretend = 0, frame = 8
 340              		@ frame_needed = 1, uses_anonymous_args = 0
 341 0000 80B5     		push	{r7, lr}
 342              		.cfi_def_cfa_offset 8
 343              		.cfi_offset 7, -8
 344              		.cfi_offset 14, -4
 345 0002 82B0     		sub	sp, sp, #8
 346              		.cfi_def_cfa_offset 16
 347 0004 00AF     		add	r7, sp, #0
 348              		.cfi_def_cfa_register 7
 349 0006 0346     		mov	r3, r0
 350 0008 FB71     		strb	r3, [r7, #7]
 248:.\Generated_Source\PSoC5/CyLib.c ****     /* Halt CPU in debug mode if PLL is enabled */
 249:.\Generated_Source\PSoC5/CyLib.c ****     CYASSERT(0u == (CY_CLK_PLL_CFG0_REG & CY_CLK_PLL_ENABLE));
 351              		.loc 1 249 0
 352 000a 114B     		ldr	r3, .L24
 353 000c 1B78     		ldrb	r3, [r3]
 354 000e DBB2     		uxtb	r3, r3
 355 0010 03F00103 		and	r3, r3, #1
 356 0014 002B     		cmp	r3, #0
 357 0016 02D0     		beq	.L20
 358              		.loc 1 249 0 is_stmt 0 discriminator 1
 359 0018 0020     		movs	r0, #0
 360 001a FFF7FEFF 		bl	CyHalt
 361              	.L20:
 250:.\Generated_Source\PSoC5/CyLib.c **** 
 251:.\Generated_Source\PSoC5/CyLib.c ****     switch(source)
 362              		.loc 1 251 0 is_stmt 1
 363 001e FB79     		ldrb	r3, [r7, #7]	@ zero_extendqisi2
 364 0020 0033     		adds	r3, r3, #0
 365 0022 022B     		cmp	r3, #2
 366 0024 0DD8     		bhi	.L21
 252:.\Generated_Source\PSoC5/CyLib.c ****     {
 253:.\Generated_Source\PSoC5/CyLib.c ****         case CY_PLL_SOURCE_IMO:
 254:.\Generated_Source\PSoC5/CyLib.c ****         case CY_PLL_SOURCE_XTAL:
 255:.\Generated_Source\PSoC5/CyLib.c ****         case CY_PLL_SOURCE_DSI:
 256:.\Generated_Source\PSoC5/CyLib.c ****             CY_LIB_CLKDIST_CR_REG = ((CY_LIB_CLKDIST_CR_REG & CY_LIB_CLKDIST_CR_PLL_SCR_MASK) | sou
 367              		.loc 1 256 0
 368 0026 4FF04021 		mov	r1, #1073758208
 369 002a 4FF04023 		mov	r3, #1073758208
ARM GAS  C:\Users\Rolando\AppData\Local\Temp\ccmqTZg9.s 			page 12


 370 002e 1B78     		ldrb	r3, [r3]
 371 0030 DBB2     		uxtb	r3, r3
 372 0032 23F00303 		bic	r3, r3, #3
 373 0036 DAB2     		uxtb	r2, r3
 374 0038 FB79     		ldrb	r3, [r7, #7]
 375 003a 1343     		orrs	r3, r3, r2
 376 003c DBB2     		uxtb	r3, r3
 377 003e 0B70     		strb	r3, [r1]
 257:.\Generated_Source\PSoC5/CyLib.c ****         break;
 378              		.loc 1 257 0
 379 0040 03E0     		b	.L19
 380              	.L21:
 258:.\Generated_Source\PSoC5/CyLib.c **** 
 259:.\Generated_Source\PSoC5/CyLib.c ****         default:
 260:.\Generated_Source\PSoC5/CyLib.c ****             CYASSERT(0u != 0u);
 381              		.loc 1 260 0
 382 0042 0020     		movs	r0, #0
 383 0044 FFF7FEFF 		bl	CyHalt
 261:.\Generated_Source\PSoC5/CyLib.c ****         break;
 384              		.loc 1 261 0
 385 0048 00BF     		nop
 386              	.L19:
 262:.\Generated_Source\PSoC5/CyLib.c ****     }
 263:.\Generated_Source\PSoC5/CyLib.c **** }
 387              		.loc 1 263 0
 388 004a 0837     		adds	r7, r7, #8
 389              		.cfi_def_cfa_offset 8
 390 004c BD46     		mov	sp, r7
 391              		.cfi_def_cfa_register 13
 392              		@ sp needed
 393 004e 80BD     		pop	{r7, pc}
 394              	.L25:
 395              		.align	2
 396              	.L24:
 397 0050 20420040 		.word	1073758752
 398              		.cfi_endproc
 399              	.LFE3:
 400              		.size	CyPLL_OUT_SetSource, .-CyPLL_OUT_SetSource
 401              		.section	.text.CyIMO_Start,"ax",%progbits
 402              		.align	2
 403              		.global	CyIMO_Start
 404              		.thumb
 405              		.thumb_func
 406              		.type	CyIMO_Start, %function
 407              	CyIMO_Start:
 408              	.LFB4:
 264:.\Generated_Source\PSoC5/CyLib.c **** 
 265:.\Generated_Source\PSoC5/CyLib.c **** 
 266:.\Generated_Source\PSoC5/CyLib.c **** /*******************************************************************************
 267:.\Generated_Source\PSoC5/CyLib.c **** * Function Name: CyIMO_Start
 268:.\Generated_Source\PSoC5/CyLib.c **** ********************************************************************************
 269:.\Generated_Source\PSoC5/CyLib.c **** *
 270:.\Generated_Source\PSoC5/CyLib.c **** * Summary:
 271:.\Generated_Source\PSoC5/CyLib.c **** *  Enables the IMO. Optionally waits at least 6 us for it to settle.
 272:.\Generated_Source\PSoC5/CyLib.c **** *
 273:.\Generated_Source\PSoC5/CyLib.c **** * Parameters:
 274:.\Generated_Source\PSoC5/CyLib.c **** *  uint8 wait:
ARM GAS  C:\Users\Rolando\AppData\Local\Temp\ccmqTZg9.s 			page 13


 275:.\Generated_Source\PSoC5/CyLib.c **** *   0: Return immediately after configuration
 276:.\Generated_Source\PSoC5/CyLib.c **** *   1: Wait for at least 6 us for the IMO to settle.
 277:.\Generated_Source\PSoC5/CyLib.c **** *
 278:.\Generated_Source\PSoC5/CyLib.c **** * Return:
 279:.\Generated_Source\PSoC5/CyLib.c **** *  None
 280:.\Generated_Source\PSoC5/CyLib.c **** *
 281:.\Generated_Source\PSoC5/CyLib.c **** * Side Effects:
 282:.\Generated_Source\PSoC5/CyLib.c **** *  If wait is enabled: This function wses the Fast Time Wheel to time the wait.
 283:.\Generated_Source\PSoC5/CyLib.c **** *  Any other use of the Fast Time Wheel will be stopped during the period of
 284:.\Generated_Source\PSoC5/CyLib.c **** *  this function and then restored. This function also uses the 100 KHz ILO.
 285:.\Generated_Source\PSoC5/CyLib.c **** *  If not enabled, this function will enable the 100 KHz ILO for the period of
 286:.\Generated_Source\PSoC5/CyLib.c **** *  this function.
 287:.\Generated_Source\PSoC5/CyLib.c **** *
 288:.\Generated_Source\PSoC5/CyLib.c **** *  No changes to the setup of the ILO, Fast Time Wheel, Central Time Wheel or
 289:.\Generated_Source\PSoC5/CyLib.c **** *  Once Per Second interrupt may be made by interrupt routines during the period
 290:.\Generated_Source\PSoC5/CyLib.c **** *  of this function execution. The current operation of the ILO, Central Time
 291:.\Generated_Source\PSoC5/CyLib.c **** *  Wheel and Once Per Second interrupt are maintained during the operation of
 292:.\Generated_Source\PSoC5/CyLib.c **** *  this function provided the reading of the Power Manager Interrupt Status
 293:.\Generated_Source\PSoC5/CyLib.c **** *  Register is only done using the CyPmReadStatus() function.
 294:.\Generated_Source\PSoC5/CyLib.c **** *
 295:.\Generated_Source\PSoC5/CyLib.c **** *******************************************************************************/
 296:.\Generated_Source\PSoC5/CyLib.c **** void CyIMO_Start(uint8 wait) 
 297:.\Generated_Source\PSoC5/CyLib.c **** {
 409              		.loc 1 297 0
 410              		.cfi_startproc
 411              		@ args = 0, pretend = 0, frame = 16
 412              		@ frame_needed = 1, uses_anonymous_args = 0
 413 0000 80B5     		push	{r7, lr}
 414              		.cfi_def_cfa_offset 8
 415              		.cfi_offset 7, -8
 416              		.cfi_offset 14, -4
 417 0002 84B0     		sub	sp, sp, #16
 418              		.cfi_def_cfa_offset 24
 419 0004 00AF     		add	r7, sp, #0
 420              		.cfi_def_cfa_register 7
 421 0006 0346     		mov	r3, r0
 422 0008 FB71     		strb	r3, [r7, #7]
 298:.\Generated_Source\PSoC5/CyLib.c ****     uint8 pmFtwCfg2Reg;
 299:.\Generated_Source\PSoC5/CyLib.c ****     uint8 pmFtwCfg0Reg;
 300:.\Generated_Source\PSoC5/CyLib.c ****     uint8 ilo100KhzEnable;
 301:.\Generated_Source\PSoC5/CyLib.c **** 
 302:.\Generated_Source\PSoC5/CyLib.c **** 
 303:.\Generated_Source\PSoC5/CyLib.c ****     CY_LIB_PM_ACT_CFG0_REG  |= CY_LIB_PM_ACT_CFG0_IMO_EN;
 423              		.loc 1 303 0
 424 000a 1D4A     		ldr	r2, .L30
 425 000c 1C4B     		ldr	r3, .L30
 426 000e 1B78     		ldrb	r3, [r3]
 427 0010 DBB2     		uxtb	r3, r3
 428 0012 43F01003 		orr	r3, r3, #16
 429 0016 DBB2     		uxtb	r3, r3
 430 0018 1370     		strb	r3, [r2]
 304:.\Generated_Source\PSoC5/CyLib.c ****     CY_LIB_PM_STBY_CFG0_REG |= CY_LIB_PM_STBY_CFG0_IMO_EN;
 431              		.loc 1 304 0
 432 001a 1A4A     		ldr	r2, .L30+4
 433 001c 194B     		ldr	r3, .L30+4
 434 001e 1B78     		ldrb	r3, [r3]
 435 0020 DBB2     		uxtb	r3, r3
ARM GAS  C:\Users\Rolando\AppData\Local\Temp\ccmqTZg9.s 			page 14


 436 0022 43F01003 		orr	r3, r3, #16
 437 0026 DBB2     		uxtb	r3, r3
 438 0028 1370     		strb	r3, [r2]
 305:.\Generated_Source\PSoC5/CyLib.c **** 
 306:.\Generated_Source\PSoC5/CyLib.c ****     if(0u != wait)
 439              		.loc 1 306 0
 440 002a FB79     		ldrb	r3, [r7, #7]	@ zero_extendqisi2
 441 002c 002B     		cmp	r3, #0
 442 002e 23D0     		beq	.L26
 307:.\Generated_Source\PSoC5/CyLib.c ****     {
 308:.\Generated_Source\PSoC5/CyLib.c ****         /* Need to turn on the 100KHz ILO if it happens to not already be running.*/
 309:.\Generated_Source\PSoC5/CyLib.c ****         ilo100KhzEnable = CY_LIB_SLOWCLK_ILO_CR0_REG & CY_LIB_SLOWCLK_ILO_CR0_EN_100KHZ;
 443              		.loc 1 309 0
 444 0030 154B     		ldr	r3, .L30+8
 445 0032 1B78     		ldrb	r3, [r3]
 446 0034 DBB2     		uxtb	r3, r3
 447 0036 03F00403 		and	r3, r3, #4
 448 003a FB73     		strb	r3, [r7, #15]
 310:.\Generated_Source\PSoC5/CyLib.c ****         pmFtwCfg0Reg = CY_LIB_PM_TW_CFG0_REG;
 449              		.loc 1 310 0
 450 003c 134B     		ldr	r3, .L30+12
 451 003e 1B78     		ldrb	r3, [r3]
 452 0040 BB73     		strb	r3, [r7, #14]
 311:.\Generated_Source\PSoC5/CyLib.c ****         pmFtwCfg2Reg = CY_LIB_PM_TW_CFG2_REG;
 453              		.loc 1 311 0
 454 0042 134B     		ldr	r3, .L30+16
 455 0044 1B78     		ldrb	r3, [r3]
 456 0046 7B73     		strb	r3, [r7, #13]
 312:.\Generated_Source\PSoC5/CyLib.c **** 
 313:.\Generated_Source\PSoC5/CyLib.c ****         CyPmFtwSetInterval(CY_LIB_CLK_IMO_FTW_TIMEOUT);
 457              		.loc 1 313 0
 458 0048 0020     		movs	r0, #0
 459 004a FFF7FEFF 		bl	CyPmFtwSetInterval
 314:.\Generated_Source\PSoC5/CyLib.c **** 
 315:.\Generated_Source\PSoC5/CyLib.c ****         while (0u == (CY_PM_FTW_INT & CyPmReadStatus(CY_PM_FTW_INT)))
 460              		.loc 1 315 0
 461 004e 00BF     		nop
 462              	.L28:
 463              		.loc 1 315 0 is_stmt 0 discriminator 1
 464 0050 0120     		movs	r0, #1
 465 0052 FFF7FEFF 		bl	CyPmReadStatus
 466 0056 0346     		mov	r3, r0
 467 0058 03F00103 		and	r3, r3, #1
 468 005c DBB2     		uxtb	r3, r3
 469 005e 002B     		cmp	r3, #0
 470 0060 F6D0     		beq	.L28
 316:.\Generated_Source\PSoC5/CyLib.c ****         {
 317:.\Generated_Source\PSoC5/CyLib.c ****             /* Wait for the interrupt status */
 318:.\Generated_Source\PSoC5/CyLib.c ****         }
 319:.\Generated_Source\PSoC5/CyLib.c **** 
 320:.\Generated_Source\PSoC5/CyLib.c ****         if(0u == ilo100KhzEnable)
 471              		.loc 1 320 0 is_stmt 1
 472 0062 FB7B     		ldrb	r3, [r7, #15]	@ zero_extendqisi2
 473 0064 002B     		cmp	r3, #0
 474 0066 01D1     		bne	.L29
 321:.\Generated_Source\PSoC5/CyLib.c ****         {
 322:.\Generated_Source\PSoC5/CyLib.c ****             CyILO_Stop100K();
ARM GAS  C:\Users\Rolando\AppData\Local\Temp\ccmqTZg9.s 			page 15


 475              		.loc 1 322 0
 476 0068 FFF7FEFF 		bl	CyILO_Stop100K
 477              	.L29:
 323:.\Generated_Source\PSoC5/CyLib.c ****         }
 324:.\Generated_Source\PSoC5/CyLib.c **** 
 325:.\Generated_Source\PSoC5/CyLib.c ****         CY_LIB_PM_TW_CFG0_REG = pmFtwCfg0Reg;
 478              		.loc 1 325 0
 479 006c 074A     		ldr	r2, .L30+12
 480 006e BB7B     		ldrb	r3, [r7, #14]
 481 0070 1370     		strb	r3, [r2]
 326:.\Generated_Source\PSoC5/CyLib.c ****         CY_LIB_PM_TW_CFG2_REG = pmFtwCfg2Reg;
 482              		.loc 1 326 0
 483 0072 074A     		ldr	r2, .L30+16
 484 0074 7B7B     		ldrb	r3, [r7, #13]
 485 0076 1370     		strb	r3, [r2]
 486              	.L26:
 327:.\Generated_Source\PSoC5/CyLib.c ****     }
 328:.\Generated_Source\PSoC5/CyLib.c **** }
 487              		.loc 1 328 0
 488 0078 1037     		adds	r7, r7, #16
 489              		.cfi_def_cfa_offset 8
 490 007a BD46     		mov	sp, r7
 491              		.cfi_def_cfa_register 13
 492              		@ sp needed
 493 007c 80BD     		pop	{r7, pc}
 494              	.L31:
 495 007e 00BF     		.align	2
 496              	.L30:
 497 0080 A0430040 		.word	1073759136
 498 0084 B0430040 		.word	1073759152
 499 0088 00430040 		.word	1073758976
 500 008c 80430040 		.word	1073759104
 501 0090 82430040 		.word	1073759106
 502              		.cfi_endproc
 503              	.LFE4:
 504              		.size	CyIMO_Start, .-CyIMO_Start
 505              		.section	.text.CyIMO_Stop,"ax",%progbits
 506              		.align	2
 507              		.global	CyIMO_Stop
 508              		.thumb
 509              		.thumb_func
 510              		.type	CyIMO_Stop, %function
 511              	CyIMO_Stop:
 512              	.LFB5:
 329:.\Generated_Source\PSoC5/CyLib.c **** 
 330:.\Generated_Source\PSoC5/CyLib.c **** 
 331:.\Generated_Source\PSoC5/CyLib.c **** /*******************************************************************************
 332:.\Generated_Source\PSoC5/CyLib.c **** * Function Name: CyIMO_Stop
 333:.\Generated_Source\PSoC5/CyLib.c **** ********************************************************************************
 334:.\Generated_Source\PSoC5/CyLib.c **** *
 335:.\Generated_Source\PSoC5/CyLib.c **** * Summary:
 336:.\Generated_Source\PSoC5/CyLib.c **** *   Disables the IMO.
 337:.\Generated_Source\PSoC5/CyLib.c **** *
 338:.\Generated_Source\PSoC5/CyLib.c **** * Parameters:
 339:.\Generated_Source\PSoC5/CyLib.c **** *  None
 340:.\Generated_Source\PSoC5/CyLib.c **** *
 341:.\Generated_Source\PSoC5/CyLib.c **** * Return:
ARM GAS  C:\Users\Rolando\AppData\Local\Temp\ccmqTZg9.s 			page 16


 342:.\Generated_Source\PSoC5/CyLib.c **** *  None
 343:.\Generated_Source\PSoC5/CyLib.c **** *
 344:.\Generated_Source\PSoC5/CyLib.c **** *******************************************************************************/
 345:.\Generated_Source\PSoC5/CyLib.c **** void CyIMO_Stop(void) 
 346:.\Generated_Source\PSoC5/CyLib.c **** {
 513              		.loc 1 346 0
 514              		.cfi_startproc
 515              		@ args = 0, pretend = 0, frame = 0
 516              		@ frame_needed = 1, uses_anonymous_args = 0
 517              		@ link register save eliminated.
 518 0000 80B4     		push	{r7}
 519              		.cfi_def_cfa_offset 4
 520              		.cfi_offset 7, -4
 521 0002 00AF     		add	r7, sp, #0
 522              		.cfi_def_cfa_register 7
 347:.\Generated_Source\PSoC5/CyLib.c ****     CY_LIB_PM_ACT_CFG0_REG  &= ((uint8) (~CY_LIB_PM_ACT_CFG0_IMO_EN));
 523              		.loc 1 347 0
 524 0004 094A     		ldr	r2, .L33
 525 0006 094B     		ldr	r3, .L33
 526 0008 1B78     		ldrb	r3, [r3]
 527 000a DBB2     		uxtb	r3, r3
 528 000c 23F01003 		bic	r3, r3, #16
 529 0010 DBB2     		uxtb	r3, r3
 530 0012 1370     		strb	r3, [r2]
 348:.\Generated_Source\PSoC5/CyLib.c ****     CY_LIB_PM_STBY_CFG0_REG &= ((uint8) (~CY_LIB_PM_STBY_CFG0_IMO_EN));
 531              		.loc 1 348 0
 532 0014 064A     		ldr	r2, .L33+4
 533 0016 064B     		ldr	r3, .L33+4
 534 0018 1B78     		ldrb	r3, [r3]
 535 001a DBB2     		uxtb	r3, r3
 536 001c 23F01003 		bic	r3, r3, #16
 537 0020 DBB2     		uxtb	r3, r3
 538 0022 1370     		strb	r3, [r2]
 349:.\Generated_Source\PSoC5/CyLib.c **** }
 539              		.loc 1 349 0
 540 0024 BD46     		mov	sp, r7
 541              		.cfi_def_cfa_register 13
 542              		@ sp needed
 543 0026 5DF8047B 		ldr	r7, [sp], #4
 544              		.cfi_restore 7
 545              		.cfi_def_cfa_offset 0
 546 002a 7047     		bx	lr
 547              	.L34:
 548              		.align	2
 549              	.L33:
 550 002c A0430040 		.word	1073759136
 551 0030 B0430040 		.word	1073759152
 552              		.cfi_endproc
 553              	.LFE5:
 554              		.size	CyIMO_Stop, .-CyIMO_Stop
 555              		.section	.text.CyUSB_PowerOnCheck,"ax",%progbits
 556              		.align	2
 557              		.thumb
 558              		.thumb_func
 559              		.type	CyUSB_PowerOnCheck, %function
 560              	CyUSB_PowerOnCheck:
 561              	.LFB6:
ARM GAS  C:\Users\Rolando\AppData\Local\Temp\ccmqTZg9.s 			page 17


 350:.\Generated_Source\PSoC5/CyLib.c **** 
 351:.\Generated_Source\PSoC5/CyLib.c **** 
 352:.\Generated_Source\PSoC5/CyLib.c **** /*******************************************************************************
 353:.\Generated_Source\PSoC5/CyLib.c **** * Function Name: CyUSB_PowerOnCheck
 354:.\Generated_Source\PSoC5/CyLib.c **** ********************************************************************************
 355:.\Generated_Source\PSoC5/CyLib.c **** *
 356:.\Generated_Source\PSoC5/CyLib.c **** * Summary:
 357:.\Generated_Source\PSoC5/CyLib.c **** *  Returns the USB power status value. A private function to cy_boot.
 358:.\Generated_Source\PSoC5/CyLib.c **** *
 359:.\Generated_Source\PSoC5/CyLib.c **** * Parameters:
 360:.\Generated_Source\PSoC5/CyLib.c **** *   None
 361:.\Generated_Source\PSoC5/CyLib.c **** *
 362:.\Generated_Source\PSoC5/CyLib.c **** * Return:
 363:.\Generated_Source\PSoC5/CyLib.c **** *   uint8: one if the USB is enabled, 0 if not enabled.
 364:.\Generated_Source\PSoC5/CyLib.c **** *
 365:.\Generated_Source\PSoC5/CyLib.c **** *******************************************************************************/
 366:.\Generated_Source\PSoC5/CyLib.c **** static uint8 CyUSB_PowerOnCheck(void)  
 367:.\Generated_Source\PSoC5/CyLib.c **** {
 562              		.loc 1 367 0
 563              		.cfi_startproc
 564              		@ args = 0, pretend = 0, frame = 8
 565              		@ frame_needed = 1, uses_anonymous_args = 0
 566              		@ link register save eliminated.
 567 0000 80B4     		push	{r7}
 568              		.cfi_def_cfa_offset 4
 569              		.cfi_offset 7, -4
 570 0002 83B0     		sub	sp, sp, #12
 571              		.cfi_def_cfa_offset 16
 572 0004 00AF     		add	r7, sp, #0
 573              		.cfi_def_cfa_register 7
 368:.\Generated_Source\PSoC5/CyLib.c ****     uint8 poweredOn = 0u;
 574              		.loc 1 368 0
 575 0006 0023     		movs	r3, #0
 576 0008 FB71     		strb	r3, [r7, #7]
 369:.\Generated_Source\PSoC5/CyLib.c **** 
 370:.\Generated_Source\PSoC5/CyLib.c ****     /* Check whether device is in Active or AltActiv and if USB is powered on */
 371:.\Generated_Source\PSoC5/CyLib.c ****     if((((CY_PM_MODE_CSR_REG & CY_PM_MODE_CSR_MASK) == CY_PM_MODE_CSR_ACTIVE ) &&
 577              		.loc 1 371 0
 578 000a 124B     		ldr	r3, .L40
 579 000c 1B78     		ldrb	r3, [r3]
 580 000e DBB2     		uxtb	r3, r3
 581 0010 03F00703 		and	r3, r3, #7
 582 0014 002B     		cmp	r3, #0
 583 0016 06D1     		bne	.L36
 372:.\Generated_Source\PSoC5/CyLib.c ****        (0u != (CY_LIB_PM_ACT_CFG5_REG & CY_ACT_USB_ENABLED     )))  ||
 584              		.loc 1 372 0 discriminator 1
 585 0018 0F4B     		ldr	r3, .L40+4
 586 001a 1B78     		ldrb	r3, [r3]
 587 001c DBB2     		uxtb	r3, r3
 588 001e 03F00103 		and	r3, r3, #1
 371:.\Generated_Source\PSoC5/CyLib.c ****        (0u != (CY_LIB_PM_ACT_CFG5_REG & CY_ACT_USB_ENABLED     )))  ||
 589              		.loc 1 371 0 discriminator 1
 590 0022 002B     		cmp	r3, #0
 591 0024 0DD1     		bne	.L37
 592              	.L36:
 373:.\Generated_Source\PSoC5/CyLib.c ****        (((CY_PM_MODE_CSR_REG & CY_PM_MODE_CSR_MASK) == CY_PM_MODE_CSR_ALT_ACT) &&
 593              		.loc 1 373 0
ARM GAS  C:\Users\Rolando\AppData\Local\Temp\ccmqTZg9.s 			page 18


 594 0026 0B4B     		ldr	r3, .L40
 595 0028 1B78     		ldrb	r3, [r3]
 596 002a DBB2     		uxtb	r3, r3
 597 002c 03F00703 		and	r3, r3, #7
 372:.\Generated_Source\PSoC5/CyLib.c ****        (0u != (CY_LIB_PM_ACT_CFG5_REG & CY_ACT_USB_ENABLED     )))  ||
 598              		.loc 1 372 0
 599 0030 012B     		cmp	r3, #1
 600 0032 08D1     		bne	.L38
 374:.\Generated_Source\PSoC5/CyLib.c ****        (0u != (CY_LIB_PM_STBY_CFG5_REG & CY_ALT_ACT_USB_ENABLED))))
 601              		.loc 1 374 0
 602 0034 094B     		ldr	r3, .L40+8
 603 0036 1B78     		ldrb	r3, [r3]
 604 0038 DBB2     		uxtb	r3, r3
 605 003a 03F00103 		and	r3, r3, #1
 373:.\Generated_Source\PSoC5/CyLib.c ****        (((CY_PM_MODE_CSR_REG & CY_PM_MODE_CSR_MASK) == CY_PM_MODE_CSR_ALT_ACT) &&
 606              		.loc 1 373 0
 607 003e 002B     		cmp	r3, #0
 608 0040 01D0     		beq	.L38
 609              	.L37:
 375:.\Generated_Source\PSoC5/CyLib.c ****     {
 376:.\Generated_Source\PSoC5/CyLib.c ****         poweredOn = 1u;
 610              		.loc 1 376 0
 611 0042 0123     		movs	r3, #1
 612 0044 FB71     		strb	r3, [r7, #7]
 613              	.L38:
 377:.\Generated_Source\PSoC5/CyLib.c ****     }
 378:.\Generated_Source\PSoC5/CyLib.c **** 
 379:.\Generated_Source\PSoC5/CyLib.c ****     return (poweredOn);
 614              		.loc 1 379 0
 615 0046 FB79     		ldrb	r3, [r7, #7]	@ zero_extendqisi2
 380:.\Generated_Source\PSoC5/CyLib.c **** }
 616              		.loc 1 380 0
 617 0048 1846     		mov	r0, r3
 618 004a 0C37     		adds	r7, r7, #12
 619              		.cfi_def_cfa_offset 4
 620 004c BD46     		mov	sp, r7
 621              		.cfi_def_cfa_register 13
 622              		@ sp needed
 623 004e 5DF8047B 		ldr	r7, [sp], #4
 624              		.cfi_restore 7
 625              		.cfi_def_cfa_offset 0
 626 0052 7047     		bx	lr
 627              	.L41:
 628              		.align	2
 629              	.L40:
 630 0054 93430040 		.word	1073759123
 631 0058 A5430040 		.word	1073759141
 632 005c B5430040 		.word	1073759157
 633              		.cfi_endproc
 634              	.LFE6:
 635              		.size	CyUSB_PowerOnCheck, .-CyUSB_PowerOnCheck
 636              		.section	.text.CyIMO_SetTrimValue,"ax",%progbits
 637              		.align	2
 638              		.thumb
 639              		.thumb_func
 640              		.type	CyIMO_SetTrimValue, %function
 641              	CyIMO_SetTrimValue:
ARM GAS  C:\Users\Rolando\AppData\Local\Temp\ccmqTZg9.s 			page 19


 642              	.LFB7:
 381:.\Generated_Source\PSoC5/CyLib.c **** 
 382:.\Generated_Source\PSoC5/CyLib.c **** 
 383:.\Generated_Source\PSoC5/CyLib.c **** /*******************************************************************************
 384:.\Generated_Source\PSoC5/CyLib.c **** * Function Name: CyIMO_SetTrimValue
 385:.\Generated_Source\PSoC5/CyLib.c **** ********************************************************************************
 386:.\Generated_Source\PSoC5/CyLib.c **** *
 387:.\Generated_Source\PSoC5/CyLib.c **** * Summary:
 388:.\Generated_Source\PSoC5/CyLib.c **** *  Sets the IMO factory trim values.
 389:.\Generated_Source\PSoC5/CyLib.c **** *
 390:.\Generated_Source\PSoC5/CyLib.c **** * Parameters:
 391:.\Generated_Source\PSoC5/CyLib.c **** *  uint8 freq - frequency for which trims must be set
 392:.\Generated_Source\PSoC5/CyLib.c **** *
 393:.\Generated_Source\PSoC5/CyLib.c **** * Return:
 394:.\Generated_Source\PSoC5/CyLib.c **** *  None
 395:.\Generated_Source\PSoC5/CyLib.c **** *
 396:.\Generated_Source\PSoC5/CyLib.c **** *******************************************************************************/
 397:.\Generated_Source\PSoC5/CyLib.c **** static void CyIMO_SetTrimValue(uint8 freq) 
 398:.\Generated_Source\PSoC5/CyLib.c **** {
 643              		.loc 1 398 0
 644              		.cfi_startproc
 645              		@ args = 0, pretend = 0, frame = 16
 646              		@ frame_needed = 1, uses_anonymous_args = 0
 647 0000 80B5     		push	{r7, lr}
 648              		.cfi_def_cfa_offset 8
 649              		.cfi_offset 7, -8
 650              		.cfi_offset 14, -4
 651 0002 84B0     		sub	sp, sp, #16
 652              		.cfi_def_cfa_offset 24
 653 0004 00AF     		add	r7, sp, #0
 654              		.cfi_def_cfa_register 7
 655 0006 0346     		mov	r3, r0
 656 0008 FB71     		strb	r3, [r7, #7]
 399:.\Generated_Source\PSoC5/CyLib.c ****     uint8 usbPowerOn = CyUSB_PowerOnCheck();
 657              		.loc 1 399 0
 658 000a FFF7FEFF 		bl	CyUSB_PowerOnCheck
 659 000e 0346     		mov	r3, r0
 660 0010 FB73     		strb	r3, [r7, #15]
 400:.\Generated_Source\PSoC5/CyLib.c **** 
 401:.\Generated_Source\PSoC5/CyLib.c ****     /* If USB is powered */
 402:.\Generated_Source\PSoC5/CyLib.c ****     if(usbPowerOn == 1u)
 661              		.loc 1 402 0
 662 0012 FB7B     		ldrb	r3, [r7, #15]	@ zero_extendqisi2
 663 0014 012B     		cmp	r3, #1
 664 0016 07D1     		bne	.L43
 403:.\Generated_Source\PSoC5/CyLib.c ****     {
 404:.\Generated_Source\PSoC5/CyLib.c ****         /* Unlock USB write */
 405:.\Generated_Source\PSoC5/CyLib.c ****         CY_LIB_USB_CR1_REG &= ((uint8)(~CY_LIB_USB_CLK_EN));
 665              		.loc 1 405 0
 666 0018 314A     		ldr	r2, .L56
 667 001a 314B     		ldr	r3, .L56
 668 001c 1B78     		ldrb	r3, [r3]
 669 001e DBB2     		uxtb	r3, r3
 670 0020 23F00203 		bic	r3, r3, #2
 671 0024 DBB2     		uxtb	r3, r3
 672 0026 1370     		strb	r3, [r2]
 673              	.L43:
ARM GAS  C:\Users\Rolando\AppData\Local\Temp\ccmqTZg9.s 			page 20


 406:.\Generated_Source\PSoC5/CyLib.c ****     }
 407:.\Generated_Source\PSoC5/CyLib.c ****     switch(freq)
 674              		.loc 1 407 0
 675 0028 FB79     		ldrb	r3, [r7, #7]	@ zero_extendqisi2
 676 002a 082B     		cmp	r3, #8
 677 002c 50D8     		bhi	.L44
 678 002e 01A2     		adr	r2, .L46
 679 0030 52F823F0 		ldr	pc, [r2, r3, lsl #2]
 680              		.p2align 2
 681              	.L46:
 682 0034 59000000 		.word	.L45+1
 683 0038 65000000 		.word	.L47+1
 684 003c 71000000 		.word	.L48+1
 685 0040 7D000000 		.word	.L49+1
 686 0044 89000000 		.word	.L50+1
 687 0048 95000000 		.word	.L51+1
 688 004c A1000000 		.word	.L52+1
 689 0050 D1000000 		.word	.L44+1
 690 0054 AD000000 		.word	.L53+1
 691              		.p2align 1
 692              	.L45:
 408:.\Generated_Source\PSoC5/CyLib.c ****     {
 409:.\Generated_Source\PSoC5/CyLib.c ****     case CY_IMO_FREQ_3MHZ:
 410:.\Generated_Source\PSoC5/CyLib.c ****         CY_LIB_IMO_TR1_REG = CY_GET_XTND_REG8(CY_LIB_TRIM_IMO_3MHZ_PTR);
 693              		.loc 1 410 0
 694 0058 224B     		ldr	r3, .L56+4
 695 005a 234A     		ldr	r2, .L56+8
 696 005c 1278     		ldrb	r2, [r2]
 697 005e D2B2     		uxtb	r2, r2
 698 0060 1A70     		strb	r2, [r3]
 411:.\Generated_Source\PSoC5/CyLib.c ****         break;
 699              		.loc 1 411 0
 700 0062 39E0     		b	.L42
 701              	.L47:
 412:.\Generated_Source\PSoC5/CyLib.c **** 
 413:.\Generated_Source\PSoC5/CyLib.c ****     case CY_IMO_FREQ_6MHZ:
 414:.\Generated_Source\PSoC5/CyLib.c ****         CY_LIB_IMO_TR1_REG = CY_GET_XTND_REG8(CY_LIB_TRIM_IMO_6MHZ_PTR);
 702              		.loc 1 414 0
 703 0064 1F4B     		ldr	r3, .L56+4
 704 0066 214A     		ldr	r2, .L56+12
 705 0068 1278     		ldrb	r2, [r2]
 706 006a D2B2     		uxtb	r2, r2
 707 006c 1A70     		strb	r2, [r3]
 415:.\Generated_Source\PSoC5/CyLib.c ****         break;
 708              		.loc 1 415 0
 709 006e 33E0     		b	.L42
 710              	.L48:
 416:.\Generated_Source\PSoC5/CyLib.c **** 
 417:.\Generated_Source\PSoC5/CyLib.c ****     case CY_IMO_FREQ_12MHZ:
 418:.\Generated_Source\PSoC5/CyLib.c ****         CY_LIB_IMO_TR1_REG = CY_GET_XTND_REG8(CY_LIB_TRIM_IMO_12MHZ_PTR);
 711              		.loc 1 418 0
 712 0070 1C4B     		ldr	r3, .L56+4
 713 0072 1F4A     		ldr	r2, .L56+16
 714 0074 1278     		ldrb	r2, [r2]
 715 0076 D2B2     		uxtb	r2, r2
 716 0078 1A70     		strb	r2, [r3]
 419:.\Generated_Source\PSoC5/CyLib.c ****         break;
ARM GAS  C:\Users\Rolando\AppData\Local\Temp\ccmqTZg9.s 			page 21


 717              		.loc 1 419 0
 718 007a 2DE0     		b	.L42
 719              	.L49:
 420:.\Generated_Source\PSoC5/CyLib.c **** 
 421:.\Generated_Source\PSoC5/CyLib.c ****     case CY_IMO_FREQ_24MHZ:
 422:.\Generated_Source\PSoC5/CyLib.c ****         CY_LIB_IMO_TR1_REG = CY_GET_XTND_REG8(CY_LIB_TRIM_IMO_24MHZ_PTR);
 720              		.loc 1 422 0
 721 007c 194B     		ldr	r3, .L56+4
 722 007e 1D4A     		ldr	r2, .L56+20
 723 0080 1278     		ldrb	r2, [r2]
 724 0082 D2B2     		uxtb	r2, r2
 725 0084 1A70     		strb	r2, [r3]
 423:.\Generated_Source\PSoC5/CyLib.c ****         break;
 726              		.loc 1 423 0
 727 0086 27E0     		b	.L42
 728              	.L50:
 424:.\Generated_Source\PSoC5/CyLib.c **** 
 425:.\Generated_Source\PSoC5/CyLib.c ****     case CY_IMO_FREQ_48MHZ:
 426:.\Generated_Source\PSoC5/CyLib.c ****         CY_LIB_IMO_TR1_REG = CY_GET_XTND_REG8(CY_LIB_TRIM_IMO_TR1_PTR);
 729              		.loc 1 426 0
 730 0088 164B     		ldr	r3, .L56+4
 731 008a 1B4A     		ldr	r2, .L56+24
 732 008c 1278     		ldrb	r2, [r2]
 733 008e D2B2     		uxtb	r2, r2
 734 0090 1A70     		strb	r2, [r3]
 427:.\Generated_Source\PSoC5/CyLib.c ****         break;
 735              		.loc 1 427 0
 736 0092 21E0     		b	.L42
 737              	.L51:
 428:.\Generated_Source\PSoC5/CyLib.c **** 
 429:.\Generated_Source\PSoC5/CyLib.c ****     case CY_IMO_FREQ_62MHZ:
 430:.\Generated_Source\PSoC5/CyLib.c ****         CY_LIB_IMO_TR1_REG = CY_GET_XTND_REG8(CY_LIB_TRIM_IMO_67MHZ_PTR);
 738              		.loc 1 430 0
 739 0094 134B     		ldr	r3, .L56+4
 740 0096 194A     		ldr	r2, .L56+28
 741 0098 1278     		ldrb	r2, [r2]
 742 009a D2B2     		uxtb	r2, r2
 743 009c 1A70     		strb	r2, [r3]
 431:.\Generated_Source\PSoC5/CyLib.c ****         break;
 744              		.loc 1 431 0
 745 009e 1BE0     		b	.L42
 746              	.L52:
 432:.\Generated_Source\PSoC5/CyLib.c **** 
 433:.\Generated_Source\PSoC5/CyLib.c **** #if(CY_PSOC5)
 434:.\Generated_Source\PSoC5/CyLib.c ****     case CY_IMO_FREQ_74MHZ:
 435:.\Generated_Source\PSoC5/CyLib.c ****         CY_LIB_IMO_TR1_REG = CY_GET_XTND_REG8(CY_LIB_TRIM_IMO_80MHZ_PTR);
 747              		.loc 1 435 0
 748 00a0 104B     		ldr	r3, .L56+4
 749 00a2 174A     		ldr	r2, .L56+32
 750 00a4 1278     		ldrb	r2, [r2]
 751 00a6 D2B2     		uxtb	r2, r2
 752 00a8 1A70     		strb	r2, [r3]
 436:.\Generated_Source\PSoC5/CyLib.c ****         break;
 753              		.loc 1 436 0
 754 00aa 15E0     		b	.L42
 755              	.L53:
 437:.\Generated_Source\PSoC5/CyLib.c **** #endif  /* (CY_PSOC5) */
ARM GAS  C:\Users\Rolando\AppData\Local\Temp\ccmqTZg9.s 			page 22


 438:.\Generated_Source\PSoC5/CyLib.c **** 
 439:.\Generated_Source\PSoC5/CyLib.c ****     case CY_IMO_FREQ_USB:
 440:.\Generated_Source\PSoC5/CyLib.c ****         CY_LIB_IMO_TR1_REG = CY_GET_XTND_REG8(CY_LIB_TRIM_IMO_USB_PTR);
 756              		.loc 1 440 0
 757 00ac 0D4B     		ldr	r3, .L56+4
 758 00ae 154A     		ldr	r2, .L56+36
 759 00b0 1278     		ldrb	r2, [r2]
 760 00b2 D2B2     		uxtb	r2, r2
 761 00b4 1A70     		strb	r2, [r3]
 441:.\Generated_Source\PSoC5/CyLib.c **** 
 442:.\Generated_Source\PSoC5/CyLib.c ****         /* If USB is powered */
 443:.\Generated_Source\PSoC5/CyLib.c ****         if(usbPowerOn == 1u)
 762              		.loc 1 443 0
 763 00b6 FB7B     		ldrb	r3, [r7, #15]	@ zero_extendqisi2
 764 00b8 012B     		cmp	r3, #1
 765 00ba 08D1     		bne	.L55
 444:.\Generated_Source\PSoC5/CyLib.c ****         {
 445:.\Generated_Source\PSoC5/CyLib.c ****             /* Lock the USB Oscillator */
 446:.\Generated_Source\PSoC5/CyLib.c ****             CY_LIB_USB_CR1_REG |= CY_LIB_USB_CLK_EN;
 766              		.loc 1 446 0
 767 00bc 084A     		ldr	r2, .L56
 768 00be 084B     		ldr	r3, .L56
 769 00c0 1B78     		ldrb	r3, [r3]
 770 00c2 DBB2     		uxtb	r3, r3
 771 00c4 43F00203 		orr	r3, r3, #2
 772 00c8 DBB2     		uxtb	r3, r3
 773 00ca 1370     		strb	r3, [r2]
 447:.\Generated_Source\PSoC5/CyLib.c ****         }
 448:.\Generated_Source\PSoC5/CyLib.c ****         break;
 774              		.loc 1 448 0
 775 00cc 04E0     		b	.L42
 776              	.L55:
 777 00ce 03E0     		b	.L42
 778              	.L44:
 449:.\Generated_Source\PSoC5/CyLib.c **** 
 450:.\Generated_Source\PSoC5/CyLib.c ****     default:
 451:.\Generated_Source\PSoC5/CyLib.c ****             CYASSERT(0u != 0u);
 779              		.loc 1 451 0
 780 00d0 0020     		movs	r0, #0
 781 00d2 FFF7FEFF 		bl	CyHalt
 452:.\Generated_Source\PSoC5/CyLib.c ****         break;
 782              		.loc 1 452 0
 783 00d6 00BF     		nop
 784              	.L42:
 453:.\Generated_Source\PSoC5/CyLib.c ****     }
 454:.\Generated_Source\PSoC5/CyLib.c **** 
 455:.\Generated_Source\PSoC5/CyLib.c **** }
 785              		.loc 1 455 0
 786 00d8 1037     		adds	r7, r7, #16
 787              		.cfi_def_cfa_offset 8
 788 00da BD46     		mov	sp, r7
 789              		.cfi_def_cfa_register 13
 790              		@ sp needed
 791 00dc 80BD     		pop	{r7, pc}
 792              	.L57:
 793 00de 00BF     		.align	2
 794              	.L56:
ARM GAS  C:\Users\Rolando\AppData\Local\Temp\ccmqTZg9.s 			page 23


 795 00e0 09600040 		.word	1073766409
 796 00e4 A1460040 		.word	1073759905
 797 00e8 08010049 		.word	1224737032
 798 00ec 09010049 		.word	1224737033
 799 00f0 0A010049 		.word	1224737034
 800 00f4 0B010049 		.word	1224737035
 801 00f8 89010049 		.word	1224737161
 802 00fc 0C010049 		.word	1224737036
 803 0100 0D010049 		.word	1224737037
 804 0104 0F010049 		.word	1224737039
 805              		.cfi_endproc
 806              	.LFE7:
 807              		.size	CyIMO_SetTrimValue, .-CyIMO_SetTrimValue
 808              		.section	.text.CyIMO_SetFreq,"ax",%progbits
 809              		.align	2
 810              		.global	CyIMO_SetFreq
 811              		.thumb
 812              		.thumb_func
 813              		.type	CyIMO_SetFreq, %function
 814              	CyIMO_SetFreq:
 815              	.LFB8:
 456:.\Generated_Source\PSoC5/CyLib.c **** 
 457:.\Generated_Source\PSoC5/CyLib.c **** 
 458:.\Generated_Source\PSoC5/CyLib.c **** /*******************************************************************************
 459:.\Generated_Source\PSoC5/CyLib.c **** * Function Name: CyIMO_SetFreq
 460:.\Generated_Source\PSoC5/CyLib.c **** ********************************************************************************
 461:.\Generated_Source\PSoC5/CyLib.c **** *
 462:.\Generated_Source\PSoC5/CyLib.c **** * Summary:
 463:.\Generated_Source\PSoC5/CyLib.c **** *  Sets the frequency of the IMO. Changes may be made while the IMO is running.
 464:.\Generated_Source\PSoC5/CyLib.c **** *
 465:.\Generated_Source\PSoC5/CyLib.c **** * Parameters:
 466:.\Generated_Source\PSoC5/CyLib.c **** *  freq: Frequency of IMO operation
 467:.\Generated_Source\PSoC5/CyLib.c **** *       CY_IMO_FREQ_3MHZ  to set  3   MHz
 468:.\Generated_Source\PSoC5/CyLib.c **** *       CY_IMO_FREQ_6MHZ  to set  6   MHz
 469:.\Generated_Source\PSoC5/CyLib.c **** *       CY_IMO_FREQ_12MHZ to set 12   MHz
 470:.\Generated_Source\PSoC5/CyLib.c **** *       CY_IMO_FREQ_24MHZ to set 24   MHz
 471:.\Generated_Source\PSoC5/CyLib.c **** *       CY_IMO_FREQ_48MHZ to set 48   MHz
 472:.\Generated_Source\PSoC5/CyLib.c **** *       CY_IMO_FREQ_62MHZ to set 62.6 MHz
 473:.\Generated_Source\PSoC5/CyLib.c **** *       CY_IMO_FREQ_74MHZ to set 74.7 MHz (not applicable for PSoC 3)
 474:.\Generated_Source\PSoC5/CyLib.c **** *       CY_IMO_FREQ_USB   to set 24   MHz (Trimmed for USB operation)
 475:.\Generated_Source\PSoC5/CyLib.c **** *
 476:.\Generated_Source\PSoC5/CyLib.c **** * Return:
 477:.\Generated_Source\PSoC5/CyLib.c **** *  None
 478:.\Generated_Source\PSoC5/CyLib.c **** *
 479:.\Generated_Source\PSoC5/CyLib.c **** * Side Effects:
 480:.\Generated_Source\PSoC5/CyLib.c **** *  If as result of this function execution the CPU clock frequency is increased
 481:.\Generated_Source\PSoC5/CyLib.c **** *  then the number of clock cycles the cache will wait before it samples data
 482:.\Generated_Source\PSoC5/CyLib.c **** *  coming back from Flash must be adjusted by calling CyFlash_SetWaitCycles()
 483:.\Generated_Source\PSoC5/CyLib.c **** *  with appropriate parameter. It can be optionally called if CPU clock
 484:.\Generated_Source\PSoC5/CyLib.c **** *  frequency is lowered in order to improve CPU performance.
 485:.\Generated_Source\PSoC5/CyLib.c **** *  See CyFlash_SetWaitCycles() description for more information.
 486:.\Generated_Source\PSoC5/CyLib.c **** *
 487:.\Generated_Source\PSoC5/CyLib.c **** *  When the USB setting is chosen, the USB clock locking circuit is enabled.
 488:.\Generated_Source\PSoC5/CyLib.c **** *  Otherwise this circuit is disabled. The USB block must be powered before
 489:.\Generated_Source\PSoC5/CyLib.c **** *  selecting the USB setting.
 490:.\Generated_Source\PSoC5/CyLib.c **** *
 491:.\Generated_Source\PSoC5/CyLib.c **** *******************************************************************************/
ARM GAS  C:\Users\Rolando\AppData\Local\Temp\ccmqTZg9.s 			page 24


 492:.\Generated_Source\PSoC5/CyLib.c **** void CyIMO_SetFreq(uint8 freq) 
 493:.\Generated_Source\PSoC5/CyLib.c **** {
 816              		.loc 1 493 0
 817              		.cfi_startproc
 818              		@ args = 0, pretend = 0, frame = 16
 819              		@ frame_needed = 1, uses_anonymous_args = 0
 820 0000 80B5     		push	{r7, lr}
 821              		.cfi_def_cfa_offset 8
 822              		.cfi_offset 7, -8
 823              		.cfi_offset 14, -4
 824 0002 84B0     		sub	sp, sp, #16
 825              		.cfi_def_cfa_offset 24
 826 0004 00AF     		add	r7, sp, #0
 827              		.cfi_def_cfa_register 7
 828 0006 0346     		mov	r3, r0
 829 0008 FB71     		strb	r3, [r7, #7]
 494:.\Generated_Source\PSoC5/CyLib.c ****     uint8 currentFreq;
 495:.\Generated_Source\PSoC5/CyLib.c ****     uint8 nextFreq;
 496:.\Generated_Source\PSoC5/CyLib.c **** 
 497:.\Generated_Source\PSoC5/CyLib.c ****     /***************************************************************************
 498:.\Generated_Source\PSoC5/CyLib.c ****     * When changing the IMO frequency the Trim values must also be set
 499:.\Generated_Source\PSoC5/CyLib.c ****     * accordingly.This requires reading the current frequency. If the new
 500:.\Generated_Source\PSoC5/CyLib.c ****     * frequency is faster, then set the new trim and then change the frequency,
 501:.\Generated_Source\PSoC5/CyLib.c ****     * otherwise change the frequency and then set the new trim values.
 502:.\Generated_Source\PSoC5/CyLib.c ****     ***************************************************************************/
 503:.\Generated_Source\PSoC5/CyLib.c **** 
 504:.\Generated_Source\PSoC5/CyLib.c ****     currentFreq = CY_LIB_FASTCLK_IMO_CR_REG & ((uint8)(~CY_LIB_FASTCLK_IMO_CR_RANGE_MASK));
 830              		.loc 1 504 0
 831 000a 674B     		ldr	r3, .L86
 832 000c 1B78     		ldrb	r3, [r3]
 833 000e DBB2     		uxtb	r3, r3
 834 0010 03F00703 		and	r3, r3, #7
 835 0014 FB73     		strb	r3, [r7, #15]
 505:.\Generated_Source\PSoC5/CyLib.c **** 
 506:.\Generated_Source\PSoC5/CyLib.c ****     /* Check if the requested frequency is USB. */
 507:.\Generated_Source\PSoC5/CyLib.c ****     nextFreq = (freq == CY_IMO_FREQ_USB) ? CY_IMO_FREQ_24MHZ : freq;
 836              		.loc 1 507 0
 837 0016 FB79     		ldrb	r3, [r7, #7]	@ zero_extendqisi2
 838 0018 082B     		cmp	r3, #8
 839 001a 01D0     		beq	.L59
 840              		.loc 1 507 0 is_stmt 0 discriminator 1
 841 001c FB79     		ldrb	r3, [r7, #7]	@ zero_extendqisi2
 842 001e 00E0     		b	.L60
 843              	.L59:
 844              		.loc 1 507 0 discriminator 2
 845 0020 0323     		movs	r3, #3
 846              	.L60:
 847              		.loc 1 507 0 discriminator 4
 848 0022 BB73     		strb	r3, [r7, #14]
 508:.\Generated_Source\PSoC5/CyLib.c **** 
 509:.\Generated_Source\PSoC5/CyLib.c ****     switch (currentFreq)
 849              		.loc 1 509 0 is_stmt 1 discriminator 4
 850 0024 FB7B     		ldrb	r3, [r7, #15]	@ zero_extendqisi2
 851 0026 062B     		cmp	r3, #6
 852 0028 25D8     		bhi	.L61
 853 002a 01A2     		adr	r2, .L63
 854 002c 52F823F0 		ldr	pc, [r2, r3, lsl #2]
ARM GAS  C:\Users\Rolando\AppData\Local\Temp\ccmqTZg9.s 			page 25


 855              		.p2align 2
 856              	.L63:
 857 0030 4D000000 		.word	.L62+1
 858 0034 53000000 		.word	.L64+1
 859 0038 59000000 		.word	.L65+1
 860 003c 5F000000 		.word	.L66+1
 861 0040 65000000 		.word	.L67+1
 862 0044 6B000000 		.word	.L68+1
 863 0048 71000000 		.word	.L69+1
 864              		.p2align 1
 865              	.L62:
 510:.\Generated_Source\PSoC5/CyLib.c ****     {
 511:.\Generated_Source\PSoC5/CyLib.c ****     case 0u:
 512:.\Generated_Source\PSoC5/CyLib.c ****         currentFreq = CY_IMO_FREQ_12MHZ;
 866              		.loc 1 512 0
 867 004c 0223     		movs	r3, #2
 868 004e FB73     		strb	r3, [r7, #15]
 513:.\Generated_Source\PSoC5/CyLib.c ****         break;
 869              		.loc 1 513 0
 870 0050 15E0     		b	.L70
 871              	.L64:
 514:.\Generated_Source\PSoC5/CyLib.c **** 
 515:.\Generated_Source\PSoC5/CyLib.c ****     case 1u:
 516:.\Generated_Source\PSoC5/CyLib.c ****         currentFreq = CY_IMO_FREQ_6MHZ;
 872              		.loc 1 516 0
 873 0052 0123     		movs	r3, #1
 874 0054 FB73     		strb	r3, [r7, #15]
 517:.\Generated_Source\PSoC5/CyLib.c ****         break;
 875              		.loc 1 517 0
 876 0056 12E0     		b	.L70
 877              	.L65:
 518:.\Generated_Source\PSoC5/CyLib.c **** 
 519:.\Generated_Source\PSoC5/CyLib.c ****     case 2u:
 520:.\Generated_Source\PSoC5/CyLib.c ****         currentFreq = CY_IMO_FREQ_24MHZ;
 878              		.loc 1 520 0
 879 0058 0323     		movs	r3, #3
 880 005a FB73     		strb	r3, [r7, #15]
 521:.\Generated_Source\PSoC5/CyLib.c ****         break;
 881              		.loc 1 521 0
 882 005c 0FE0     		b	.L70
 883              	.L66:
 522:.\Generated_Source\PSoC5/CyLib.c **** 
 523:.\Generated_Source\PSoC5/CyLib.c ****     case 3u:
 524:.\Generated_Source\PSoC5/CyLib.c ****         currentFreq = CY_IMO_FREQ_3MHZ;
 884              		.loc 1 524 0
 885 005e 0023     		movs	r3, #0
 886 0060 FB73     		strb	r3, [r7, #15]
 525:.\Generated_Source\PSoC5/CyLib.c ****         break;
 887              		.loc 1 525 0
 888 0062 0CE0     		b	.L70
 889              	.L67:
 526:.\Generated_Source\PSoC5/CyLib.c **** 
 527:.\Generated_Source\PSoC5/CyLib.c ****     case 4u:
 528:.\Generated_Source\PSoC5/CyLib.c ****         currentFreq = CY_IMO_FREQ_48MHZ;
 890              		.loc 1 528 0
 891 0064 0423     		movs	r3, #4
 892 0066 FB73     		strb	r3, [r7, #15]
ARM GAS  C:\Users\Rolando\AppData\Local\Temp\ccmqTZg9.s 			page 26


 529:.\Generated_Source\PSoC5/CyLib.c ****         break;
 893              		.loc 1 529 0
 894 0068 09E0     		b	.L70
 895              	.L68:
 530:.\Generated_Source\PSoC5/CyLib.c **** 
 531:.\Generated_Source\PSoC5/CyLib.c ****     case 5u:
 532:.\Generated_Source\PSoC5/CyLib.c ****         currentFreq = CY_IMO_FREQ_62MHZ;
 896              		.loc 1 532 0
 897 006a 0523     		movs	r3, #5
 898 006c FB73     		strb	r3, [r7, #15]
 533:.\Generated_Source\PSoC5/CyLib.c ****         break;
 899              		.loc 1 533 0
 900 006e 06E0     		b	.L70
 901              	.L69:
 534:.\Generated_Source\PSoC5/CyLib.c **** 
 535:.\Generated_Source\PSoC5/CyLib.c **** #if(CY_PSOC5)
 536:.\Generated_Source\PSoC5/CyLib.c ****     case 6u:
 537:.\Generated_Source\PSoC5/CyLib.c ****         currentFreq = CY_IMO_FREQ_74MHZ;
 902              		.loc 1 537 0
 903 0070 0623     		movs	r3, #6
 904 0072 FB73     		strb	r3, [r7, #15]
 538:.\Generated_Source\PSoC5/CyLib.c ****         break;
 905              		.loc 1 538 0
 906 0074 03E0     		b	.L70
 907              	.L61:
 539:.\Generated_Source\PSoC5/CyLib.c **** #endif  /* (CY_PSOC5) */
 540:.\Generated_Source\PSoC5/CyLib.c **** 
 541:.\Generated_Source\PSoC5/CyLib.c ****     default:
 542:.\Generated_Source\PSoC5/CyLib.c ****         CYASSERT(0u != 0u);
 908              		.loc 1 542 0
 909 0076 0020     		movs	r0, #0
 910 0078 FFF7FEFF 		bl	CyHalt
 543:.\Generated_Source\PSoC5/CyLib.c ****         break;
 911              		.loc 1 543 0
 912 007c 00BF     		nop
 913              	.L70:
 544:.\Generated_Source\PSoC5/CyLib.c ****     }
 545:.\Generated_Source\PSoC5/CyLib.c **** 
 546:.\Generated_Source\PSoC5/CyLib.c ****     if (nextFreq >= currentFreq)
 914              		.loc 1 546 0
 915 007e BA7B     		ldrb	r2, [r7, #14]	@ zero_extendqisi2
 916 0080 FB7B     		ldrb	r3, [r7, #15]	@ zero_extendqisi2
 917 0082 9A42     		cmp	r2, r3
 918 0084 03D3     		bcc	.L71
 547:.\Generated_Source\PSoC5/CyLib.c ****     {
 548:.\Generated_Source\PSoC5/CyLib.c ****         /* Set the new trim first */
 549:.\Generated_Source\PSoC5/CyLib.c ****         CyIMO_SetTrimValue(freq);
 919              		.loc 1 549 0
 920 0086 FB79     		ldrb	r3, [r7, #7]	@ zero_extendqisi2
 921 0088 1846     		mov	r0, r3
 922 008a FFF7FEFF 		bl	CyIMO_SetTrimValue
 923              	.L71:
 550:.\Generated_Source\PSoC5/CyLib.c ****     }
 551:.\Generated_Source\PSoC5/CyLib.c **** 
 552:.\Generated_Source\PSoC5/CyLib.c ****     /* Set the usbclk_on bit when using CY_IMO_FREQ_USB, if not clear it */
 553:.\Generated_Source\PSoC5/CyLib.c ****     switch(freq)
 924              		.loc 1 553 0
ARM GAS  C:\Users\Rolando\AppData\Local\Temp\ccmqTZg9.s 			page 27


 925 008e FB79     		ldrb	r3, [r7, #7]	@ zero_extendqisi2
 926 0090 082B     		cmp	r3, #8
 927 0092 72D8     		bhi	.L72
 928 0094 01A2     		adr	r2, .L74
 929 0096 52F823F0 		ldr	pc, [r2, r3, lsl #2]
 930 009a 00BF     		.p2align 2
 931              	.L74:
 932 009c C1000000 		.word	.L73+1
 933 00a0 D9000000 		.word	.L75+1
 934 00a4 F1000000 		.word	.L76+1
 935 00a8 03010000 		.word	.L77+1
 936 00ac 1B010000 		.word	.L78+1
 937 00b0 33010000 		.word	.L79+1
 938 00b4 4B010000 		.word	.L80+1
 939 00b8 7B010000 		.word	.L72+1
 940 00bc 63010000 		.word	.L81+1
 941              		.p2align 1
 942              	.L73:
 554:.\Generated_Source\PSoC5/CyLib.c ****     {
 555:.\Generated_Source\PSoC5/CyLib.c ****     case CY_IMO_FREQ_3MHZ:
 556:.\Generated_Source\PSoC5/CyLib.c ****         CY_LIB_FASTCLK_IMO_CR_REG = ((CY_LIB_FASTCLK_IMO_CR_REG & CY_LIB_FASTCLK_IMO_CR_RANGE_MASK)
 943              		.loc 1 556 0
 944 00c0 394A     		ldr	r2, .L86
 945 00c2 394B     		ldr	r3, .L86
 946 00c4 1B78     		ldrb	r3, [r3]
 947 00c6 DBB2     		uxtb	r3, r3
 948 00c8 23F04703 		bic	r3, r3, #71
 949 00cc DBB2     		uxtb	r3, r3
 950 00ce 43F00303 		orr	r3, r3, #3
 951 00d2 DBB2     		uxtb	r3, r3
 952 00d4 1370     		strb	r3, [r2]
 557:.\Generated_Source\PSoC5/CyLib.c ****             CY_LIB_IMO_3MHZ_VALUE) & ((uint8)(~CY_LIB_IMO_USBCLK_ON_SET));
 558:.\Generated_Source\PSoC5/CyLib.c ****         break;
 953              		.loc 1 558 0
 954 00d6 54E0     		b	.L82
 955              	.L75:
 559:.\Generated_Source\PSoC5/CyLib.c **** 
 560:.\Generated_Source\PSoC5/CyLib.c ****     case CY_IMO_FREQ_6MHZ:
 561:.\Generated_Source\PSoC5/CyLib.c ****         CY_LIB_FASTCLK_IMO_CR_REG = ((CY_LIB_FASTCLK_IMO_CR_REG & CY_LIB_FASTCLK_IMO_CR_RANGE_MASK)
 956              		.loc 1 561 0
 957 00d8 334A     		ldr	r2, .L86
 958 00da 334B     		ldr	r3, .L86
 959 00dc 1B78     		ldrb	r3, [r3]
 960 00de DBB2     		uxtb	r3, r3
 961 00e0 23F04703 		bic	r3, r3, #71
 962 00e4 DBB2     		uxtb	r3, r3
 963 00e6 43F00103 		orr	r3, r3, #1
 964 00ea DBB2     		uxtb	r3, r3
 965 00ec 1370     		strb	r3, [r2]
 562:.\Generated_Source\PSoC5/CyLib.c ****             CY_LIB_IMO_6MHZ_VALUE) & ((uint8)(~CY_LIB_IMO_USBCLK_ON_SET));
 563:.\Generated_Source\PSoC5/CyLib.c ****         break;
 966              		.loc 1 563 0
 967 00ee 48E0     		b	.L82
 968              	.L76:
 564:.\Generated_Source\PSoC5/CyLib.c **** 
 565:.\Generated_Source\PSoC5/CyLib.c ****     case CY_IMO_FREQ_12MHZ:
 566:.\Generated_Source\PSoC5/CyLib.c ****         CY_LIB_FASTCLK_IMO_CR_REG = ((CY_LIB_FASTCLK_IMO_CR_REG & CY_LIB_FASTCLK_IMO_CR_RANGE_MASK)
ARM GAS  C:\Users\Rolando\AppData\Local\Temp\ccmqTZg9.s 			page 28


 969              		.loc 1 566 0
 970 00f0 2D4A     		ldr	r2, .L86
 971 00f2 2D4B     		ldr	r3, .L86
 972 00f4 1B78     		ldrb	r3, [r3]
 973 00f6 DBB2     		uxtb	r3, r3
 974 00f8 23F04703 		bic	r3, r3, #71
 975 00fc DBB2     		uxtb	r3, r3
 976 00fe 1370     		strb	r3, [r2]
 567:.\Generated_Source\PSoC5/CyLib.c ****             CY_LIB_IMO_12MHZ_VALUE) & ((uint8)(~CY_LIB_IMO_USBCLK_ON_SET));
 568:.\Generated_Source\PSoC5/CyLib.c ****         break;
 977              		.loc 1 568 0
 978 0100 3FE0     		b	.L82
 979              	.L77:
 569:.\Generated_Source\PSoC5/CyLib.c **** 
 570:.\Generated_Source\PSoC5/CyLib.c ****     case CY_IMO_FREQ_24MHZ:
 571:.\Generated_Source\PSoC5/CyLib.c ****         CY_LIB_FASTCLK_IMO_CR_REG = ((CY_LIB_FASTCLK_IMO_CR_REG & CY_LIB_FASTCLK_IMO_CR_RANGE_MASK)
 980              		.loc 1 571 0
 981 0102 294A     		ldr	r2, .L86
 982 0104 284B     		ldr	r3, .L86
 983 0106 1B78     		ldrb	r3, [r3]
 984 0108 DBB2     		uxtb	r3, r3
 985 010a 23F04703 		bic	r3, r3, #71
 986 010e DBB2     		uxtb	r3, r3
 987 0110 43F00203 		orr	r3, r3, #2
 988 0114 DBB2     		uxtb	r3, r3
 989 0116 1370     		strb	r3, [r2]
 572:.\Generated_Source\PSoC5/CyLib.c ****             CY_LIB_IMO_24MHZ_VALUE) & ((uint8)(~CY_LIB_IMO_USBCLK_ON_SET));
 573:.\Generated_Source\PSoC5/CyLib.c ****         break;
 990              		.loc 1 573 0
 991 0118 33E0     		b	.L82
 992              	.L78:
 574:.\Generated_Source\PSoC5/CyLib.c **** 
 575:.\Generated_Source\PSoC5/CyLib.c ****     case CY_IMO_FREQ_48MHZ:
 576:.\Generated_Source\PSoC5/CyLib.c ****         CY_LIB_FASTCLK_IMO_CR_REG = ((CY_LIB_FASTCLK_IMO_CR_REG & CY_LIB_FASTCLK_IMO_CR_RANGE_MASK)
 993              		.loc 1 576 0
 994 011a 234A     		ldr	r2, .L86
 995 011c 224B     		ldr	r3, .L86
 996 011e 1B78     		ldrb	r3, [r3]
 997 0120 DBB2     		uxtb	r3, r3
 998 0122 23F04703 		bic	r3, r3, #71
 999 0126 DBB2     		uxtb	r3, r3
 1000 0128 43F00403 		orr	r3, r3, #4
 1001 012c DBB2     		uxtb	r3, r3
 1002 012e 1370     		strb	r3, [r2]
 577:.\Generated_Source\PSoC5/CyLib.c ****             CY_LIB_IMO_48MHZ_VALUE) & ((uint8)(~CY_LIB_IMO_USBCLK_ON_SET));
 578:.\Generated_Source\PSoC5/CyLib.c ****         break;
 1003              		.loc 1 578 0
 1004 0130 27E0     		b	.L82
 1005              	.L79:
 579:.\Generated_Source\PSoC5/CyLib.c **** 
 580:.\Generated_Source\PSoC5/CyLib.c ****     case CY_IMO_FREQ_62MHZ:
 581:.\Generated_Source\PSoC5/CyLib.c ****         CY_LIB_FASTCLK_IMO_CR_REG = ((CY_LIB_FASTCLK_IMO_CR_REG & CY_LIB_FASTCLK_IMO_CR_RANGE_MASK)
 1006              		.loc 1 581 0
 1007 0132 1D4A     		ldr	r2, .L86
 1008 0134 1C4B     		ldr	r3, .L86
 1009 0136 1B78     		ldrb	r3, [r3]
 1010 0138 DBB2     		uxtb	r3, r3
ARM GAS  C:\Users\Rolando\AppData\Local\Temp\ccmqTZg9.s 			page 29


 1011 013a 23F04703 		bic	r3, r3, #71
 1012 013e DBB2     		uxtb	r3, r3
 1013 0140 43F00503 		orr	r3, r3, #5
 1014 0144 DBB2     		uxtb	r3, r3
 1015 0146 1370     		strb	r3, [r2]
 582:.\Generated_Source\PSoC5/CyLib.c ****             CY_LIB_IMO_62MHZ_VALUE) & ((uint8)(~CY_LIB_IMO_USBCLK_ON_SET));
 583:.\Generated_Source\PSoC5/CyLib.c ****         break;
 1016              		.loc 1 583 0
 1017 0148 1BE0     		b	.L82
 1018              	.L80:
 584:.\Generated_Source\PSoC5/CyLib.c **** 
 585:.\Generated_Source\PSoC5/CyLib.c **** #if(CY_PSOC5)
 586:.\Generated_Source\PSoC5/CyLib.c ****     case CY_IMO_FREQ_74MHZ:
 587:.\Generated_Source\PSoC5/CyLib.c ****         CY_LIB_FASTCLK_IMO_CR_REG = ((CY_LIB_FASTCLK_IMO_CR_REG & CY_LIB_FASTCLK_IMO_CR_RANGE_MASK)
 1019              		.loc 1 587 0
 1020 014a 174A     		ldr	r2, .L86
 1021 014c 164B     		ldr	r3, .L86
 1022 014e 1B78     		ldrb	r3, [r3]
 1023 0150 DBB2     		uxtb	r3, r3
 1024 0152 23F04703 		bic	r3, r3, #71
 1025 0156 DBB2     		uxtb	r3, r3
 1026 0158 43F00603 		orr	r3, r3, #6
 1027 015c DBB2     		uxtb	r3, r3
 1028 015e 1370     		strb	r3, [r2]
 588:.\Generated_Source\PSoC5/CyLib.c ****             CY_LIB_IMO_74MHZ_VALUE) & ((uint8)(~CY_LIB_IMO_USBCLK_ON_SET));
 589:.\Generated_Source\PSoC5/CyLib.c ****         break;
 1029              		.loc 1 589 0
 1030 0160 0FE0     		b	.L82
 1031              	.L81:
 590:.\Generated_Source\PSoC5/CyLib.c **** #endif  /* (CY_PSOC5) */
 591:.\Generated_Source\PSoC5/CyLib.c **** 
 592:.\Generated_Source\PSoC5/CyLib.c ****     case CY_IMO_FREQ_USB:
 593:.\Generated_Source\PSoC5/CyLib.c ****         CY_LIB_FASTCLK_IMO_CR_REG = ((CY_LIB_FASTCLK_IMO_CR_REG & CY_LIB_FASTCLK_IMO_CR_RANGE_MASK)
 1032              		.loc 1 593 0
 1033 0162 114A     		ldr	r2, .L86
 1034 0164 104B     		ldr	r3, .L86
 1035 0166 1B78     		ldrb	r3, [r3]
 1036 0168 DBB2     		uxtb	r3, r3
 1037 016a 23F04703 		bic	r3, r3, #71
 1038 016e DBB2     		uxtb	r3, r3
 1039 0170 43F04203 		orr	r3, r3, #66
 1040 0174 DBB2     		uxtb	r3, r3
 1041 0176 1370     		strb	r3, [r2]
 594:.\Generated_Source\PSoC5/CyLib.c ****             CY_LIB_IMO_24MHZ_VALUE) | CY_LIB_IMO_USBCLK_ON_SET;
 595:.\Generated_Source\PSoC5/CyLib.c ****         break;
 1042              		.loc 1 595 0
 1043 0178 03E0     		b	.L82
 1044              	.L72:
 596:.\Generated_Source\PSoC5/CyLib.c **** 
 597:.\Generated_Source\PSoC5/CyLib.c ****     default:
 598:.\Generated_Source\PSoC5/CyLib.c ****         CYASSERT(0u != 0u);
 1045              		.loc 1 598 0
 1046 017a 0020     		movs	r0, #0
 1047 017c FFF7FEFF 		bl	CyHalt
 599:.\Generated_Source\PSoC5/CyLib.c ****         break;
 1048              		.loc 1 599 0
 1049 0180 00BF     		nop
ARM GAS  C:\Users\Rolando\AppData\Local\Temp\ccmqTZg9.s 			page 30


 1050              	.L82:
 600:.\Generated_Source\PSoC5/CyLib.c ****     }
 601:.\Generated_Source\PSoC5/CyLib.c **** 
 602:.\Generated_Source\PSoC5/CyLib.c ****     /* Turn on the IMO Doubler, if switching to CY_IMO_FREQ_USB */
 603:.\Generated_Source\PSoC5/CyLib.c ****     if (freq == CY_IMO_FREQ_USB)
 1051              		.loc 1 603 0
 1052 0182 FB79     		ldrb	r3, [r7, #7]	@ zero_extendqisi2
 1053 0184 082B     		cmp	r3, #8
 1054 0186 02D1     		bne	.L83
 604:.\Generated_Source\PSoC5/CyLib.c ****     {
 605:.\Generated_Source\PSoC5/CyLib.c ****         CyIMO_EnableDoubler();
 1055              		.loc 1 605 0
 1056 0188 FFF7FEFF 		bl	CyIMO_EnableDoubler
 1057 018c 01E0     		b	.L84
 1058              	.L83:
 606:.\Generated_Source\PSoC5/CyLib.c ****     }
 607:.\Generated_Source\PSoC5/CyLib.c ****     else
 608:.\Generated_Source\PSoC5/CyLib.c ****     {
 609:.\Generated_Source\PSoC5/CyLib.c ****         CyIMO_DisableDoubler();
 1059              		.loc 1 609 0
 1060 018e FFF7FEFF 		bl	CyIMO_DisableDoubler
 1061              	.L84:
 610:.\Generated_Source\PSoC5/CyLib.c ****     }
 611:.\Generated_Source\PSoC5/CyLib.c **** 
 612:.\Generated_Source\PSoC5/CyLib.c ****     if (nextFreq < currentFreq)
 1062              		.loc 1 612 0
 1063 0192 BA7B     		ldrb	r2, [r7, #14]	@ zero_extendqisi2
 1064 0194 FB7B     		ldrb	r3, [r7, #15]	@ zero_extendqisi2
 1065 0196 9A42     		cmp	r2, r3
 1066 0198 03D2     		bcs	.L58
 613:.\Generated_Source\PSoC5/CyLib.c ****     {
 614:.\Generated_Source\PSoC5/CyLib.c ****         /* Set the new trim after setting the frequency */
 615:.\Generated_Source\PSoC5/CyLib.c ****         CyIMO_SetTrimValue(freq);
 1067              		.loc 1 615 0
 1068 019a FB79     		ldrb	r3, [r7, #7]	@ zero_extendqisi2
 1069 019c 1846     		mov	r0, r3
 1070 019e FFF7FEFF 		bl	CyIMO_SetTrimValue
 1071              	.L58:
 616:.\Generated_Source\PSoC5/CyLib.c ****     }
 617:.\Generated_Source\PSoC5/CyLib.c **** }
 1072              		.loc 1 617 0
 1073 01a2 1037     		adds	r7, r7, #16
 1074              		.cfi_def_cfa_offset 8
 1075 01a4 BD46     		mov	sp, r7
 1076              		.cfi_def_cfa_register 13
 1077              		@ sp needed
 1078 01a6 80BD     		pop	{r7, pc}
 1079              	.L87:
 1080              		.align	2
 1081              	.L86:
 1082 01a8 00420040 		.word	1073758720
 1083              		.cfi_endproc
 1084              	.LFE8:
 1085              		.size	CyIMO_SetFreq, .-CyIMO_SetFreq
 1086              		.section	.text.CyIMO_SetSource,"ax",%progbits
 1087              		.align	2
 1088              		.global	CyIMO_SetSource
ARM GAS  C:\Users\Rolando\AppData\Local\Temp\ccmqTZg9.s 			page 31


 1089              		.thumb
 1090              		.thumb_func
 1091              		.type	CyIMO_SetSource, %function
 1092              	CyIMO_SetSource:
 1093              	.LFB9:
 618:.\Generated_Source\PSoC5/CyLib.c **** 
 619:.\Generated_Source\PSoC5/CyLib.c **** 
 620:.\Generated_Source\PSoC5/CyLib.c **** /*******************************************************************************
 621:.\Generated_Source\PSoC5/CyLib.c **** * Function Name: CyIMO_SetSource
 622:.\Generated_Source\PSoC5/CyLib.c **** ********************************************************************************
 623:.\Generated_Source\PSoC5/CyLib.c **** *
 624:.\Generated_Source\PSoC5/CyLib.c **** * Summary:
 625:.\Generated_Source\PSoC5/CyLib.c **** *  Sets the source of the clock output from the IMO block.
 626:.\Generated_Source\PSoC5/CyLib.c **** *
 627:.\Generated_Source\PSoC5/CyLib.c **** *  The output from the IMO is by default the IMO itself. Optionally the MHz
 628:.\Generated_Source\PSoC5/CyLib.c **** *  Crystal or a DSI input can be the source of the IMO output instead.
 629:.\Generated_Source\PSoC5/CyLib.c **** *
 630:.\Generated_Source\PSoC5/CyLib.c **** * Parameters:
 631:.\Generated_Source\PSoC5/CyLib.c **** *   source: CY_IMO_SOURCE_DSI to set the DSI as source.
 632:.\Generated_Source\PSoC5/CyLib.c **** *           CY_IMO_SOURCE_XTAL to set the MHz as source.
 633:.\Generated_Source\PSoC5/CyLib.c **** *           CY_IMO_SOURCE_IMO to set the IMO itself.
 634:.\Generated_Source\PSoC5/CyLib.c **** *
 635:.\Generated_Source\PSoC5/CyLib.c **** * Return:
 636:.\Generated_Source\PSoC5/CyLib.c **** *  None
 637:.\Generated_Source\PSoC5/CyLib.c **** *
 638:.\Generated_Source\PSoC5/CyLib.c **** * Side Effects:
 639:.\Generated_Source\PSoC5/CyLib.c **** *  If as result of this function execution the CPU clock frequency is increased
 640:.\Generated_Source\PSoC5/CyLib.c **** *  then the number of clock cycles the cache will wait before it samples data
 641:.\Generated_Source\PSoC5/CyLib.c **** *  coming back from Flash must be adjusted by calling CyFlash_SetWaitCycles()
 642:.\Generated_Source\PSoC5/CyLib.c **** *  with appropriate parameter. It can be optionally called if CPU clock
 643:.\Generated_Source\PSoC5/CyLib.c **** *  frequency is lowered in order to improve CPU performance.
 644:.\Generated_Source\PSoC5/CyLib.c **** *  See CyFlash_SetWaitCycles() description for more information.
 645:.\Generated_Source\PSoC5/CyLib.c **** *
 646:.\Generated_Source\PSoC5/CyLib.c **** *******************************************************************************/
 647:.\Generated_Source\PSoC5/CyLib.c **** void CyIMO_SetSource(uint8 source) 
 648:.\Generated_Source\PSoC5/CyLib.c **** {
 1094              		.loc 1 648 0
 1095              		.cfi_startproc
 1096              		@ args = 0, pretend = 0, frame = 8
 1097              		@ frame_needed = 1, uses_anonymous_args = 0
 1098 0000 80B5     		push	{r7, lr}
 1099              		.cfi_def_cfa_offset 8
 1100              		.cfi_offset 7, -8
 1101              		.cfi_offset 14, -4
 1102 0002 82B0     		sub	sp, sp, #8
 1103              		.cfi_def_cfa_offset 16
 1104 0004 00AF     		add	r7, sp, #0
 1105              		.cfi_def_cfa_register 7
 1106 0006 0346     		mov	r3, r0
 1107 0008 FB71     		strb	r3, [r7, #7]
 649:.\Generated_Source\PSoC5/CyLib.c ****     switch(source)
 1108              		.loc 1 649 0
 1109 000a FB79     		ldrb	r3, [r7, #7]	@ zero_extendqisi2
 1110 000c 012B     		cmp	r3, #1
 1111 000e 17D0     		beq	.L90
 1112 0010 022B     		cmp	r3, #2
 1113 0012 02D0     		beq	.L91
ARM GAS  C:\Users\Rolando\AppData\Local\Temp\ccmqTZg9.s 			page 32


 1114 0014 002B     		cmp	r3, #0
 1115 0016 26D0     		beq	.L92
 1116 0018 2EE0     		b	.L94
 1117              	.L91:
 650:.\Generated_Source\PSoC5/CyLib.c ****     {
 651:.\Generated_Source\PSoC5/CyLib.c ****     case CY_IMO_SOURCE_DSI:
 652:.\Generated_Source\PSoC5/CyLib.c ****         CY_LIB_CLKDIST_CR_REG     &= ((uint8)(~CY_LIB_CLKDIST_CR_IMO2X));
 1118              		.loc 1 652 0
 1119 001a 4FF04022 		mov	r2, #1073758208
 1120 001e 4FF04023 		mov	r3, #1073758208
 1121 0022 1B78     		ldrb	r3, [r3]
 1122 0024 DBB2     		uxtb	r3, r3
 1123 0026 23F04003 		bic	r3, r3, #64
 1124 002a DBB2     		uxtb	r3, r3
 1125 002c 1370     		strb	r3, [r2]
 653:.\Generated_Source\PSoC5/CyLib.c ****         CY_LIB_FASTCLK_IMO_CR_REG |= CY_LIB_FASTCLK_IMO_IMO;
 1126              		.loc 1 653 0
 1127 002e 164A     		ldr	r2, .L95
 1128 0030 154B     		ldr	r3, .L95
 1129 0032 1B78     		ldrb	r3, [r3]
 1130 0034 DBB2     		uxtb	r3, r3
 1131 0036 43F02003 		orr	r3, r3, #32
 1132 003a DBB2     		uxtb	r3, r3
 1133 003c 1370     		strb	r3, [r2]
 654:.\Generated_Source\PSoC5/CyLib.c ****         break;
 1134              		.loc 1 654 0
 1135 003e 1FE0     		b	.L88
 1136              	.L90:
 655:.\Generated_Source\PSoC5/CyLib.c **** 
 656:.\Generated_Source\PSoC5/CyLib.c ****     case CY_IMO_SOURCE_XTAL:
 657:.\Generated_Source\PSoC5/CyLib.c ****         CY_LIB_CLKDIST_CR_REG     |= CY_LIB_CLKDIST_CR_IMO2X;
 1137              		.loc 1 657 0
 1138 0040 4FF04022 		mov	r2, #1073758208
 1139 0044 4FF04023 		mov	r3, #1073758208
 1140 0048 1B78     		ldrb	r3, [r3]
 1141 004a DBB2     		uxtb	r3, r3
 1142 004c 43F04003 		orr	r3, r3, #64
 1143 0050 DBB2     		uxtb	r3, r3
 1144 0052 1370     		strb	r3, [r2]
 658:.\Generated_Source\PSoC5/CyLib.c ****         CY_LIB_FASTCLK_IMO_CR_REG |= CY_LIB_FASTCLK_IMO_IMO;
 1145              		.loc 1 658 0
 1146 0054 0C4A     		ldr	r2, .L95
 1147 0056 0C4B     		ldr	r3, .L95
 1148 0058 1B78     		ldrb	r3, [r3]
 1149 005a DBB2     		uxtb	r3, r3
 1150 005c 43F02003 		orr	r3, r3, #32
 1151 0060 DBB2     		uxtb	r3, r3
 1152 0062 1370     		strb	r3, [r2]
 659:.\Generated_Source\PSoC5/CyLib.c ****         break;
 1153              		.loc 1 659 0
 1154 0064 0CE0     		b	.L88
 1155              	.L92:
 660:.\Generated_Source\PSoC5/CyLib.c **** 
 661:.\Generated_Source\PSoC5/CyLib.c ****     case CY_IMO_SOURCE_IMO:
 662:.\Generated_Source\PSoC5/CyLib.c ****         CY_LIB_FASTCLK_IMO_CR_REG &= ((uint8)(~CY_LIB_FASTCLK_IMO_IMO));
 1156              		.loc 1 662 0
 1157 0066 084A     		ldr	r2, .L95
ARM GAS  C:\Users\Rolando\AppData\Local\Temp\ccmqTZg9.s 			page 33


 1158 0068 074B     		ldr	r3, .L95
 1159 006a 1B78     		ldrb	r3, [r3]
 1160 006c DBB2     		uxtb	r3, r3
 1161 006e 23F02003 		bic	r3, r3, #32
 1162 0072 DBB2     		uxtb	r3, r3
 1163 0074 1370     		strb	r3, [r2]
 663:.\Generated_Source\PSoC5/CyLib.c ****         break;
 1164              		.loc 1 663 0
 1165 0076 03E0     		b	.L88
 1166              	.L94:
 664:.\Generated_Source\PSoC5/CyLib.c **** 
 665:.\Generated_Source\PSoC5/CyLib.c ****     default:
 666:.\Generated_Source\PSoC5/CyLib.c ****         /* Incorrect source value */
 667:.\Generated_Source\PSoC5/CyLib.c ****         CYASSERT(0u != 0u);
 1167              		.loc 1 667 0
 1168 0078 0020     		movs	r0, #0
 1169 007a FFF7FEFF 		bl	CyHalt
 668:.\Generated_Source\PSoC5/CyLib.c ****         break;
 1170              		.loc 1 668 0
 1171 007e 00BF     		nop
 1172              	.L88:
 669:.\Generated_Source\PSoC5/CyLib.c ****     }
 670:.\Generated_Source\PSoC5/CyLib.c **** }
 1173              		.loc 1 670 0
 1174 0080 0837     		adds	r7, r7, #8
 1175              		.cfi_def_cfa_offset 8
 1176 0082 BD46     		mov	sp, r7
 1177              		.cfi_def_cfa_register 13
 1178              		@ sp needed
 1179 0084 80BD     		pop	{r7, pc}
 1180              	.L96:
 1181 0086 00BF     		.align	2
 1182              	.L95:
 1183 0088 00420040 		.word	1073758720
 1184              		.cfi_endproc
 1185              	.LFE9:
 1186              		.size	CyIMO_SetSource, .-CyIMO_SetSource
 1187              		.section	.text.CyIMO_EnableDoubler,"ax",%progbits
 1188              		.align	2
 1189              		.global	CyIMO_EnableDoubler
 1190              		.thumb
 1191              		.thumb_func
 1192              		.type	CyIMO_EnableDoubler, %function
 1193              	CyIMO_EnableDoubler:
 1194              	.LFB10:
 671:.\Generated_Source\PSoC5/CyLib.c **** 
 672:.\Generated_Source\PSoC5/CyLib.c **** 
 673:.\Generated_Source\PSoC5/CyLib.c **** /*******************************************************************************
 674:.\Generated_Source\PSoC5/CyLib.c **** * Function Name: CyIMO_EnableDoubler
 675:.\Generated_Source\PSoC5/CyLib.c **** ********************************************************************************
 676:.\Generated_Source\PSoC5/CyLib.c **** *
 677:.\Generated_Source\PSoC5/CyLib.c **** * Summary:
 678:.\Generated_Source\PSoC5/CyLib.c **** *  Enables the IMO doubler.  The 2x frequency clock is used to convert a 24 MHz
 679:.\Generated_Source\PSoC5/CyLib.c **** *  input to a 48 MHz output for use by the USB block.
 680:.\Generated_Source\PSoC5/CyLib.c **** *
 681:.\Generated_Source\PSoC5/CyLib.c **** * Parameters:
 682:.\Generated_Source\PSoC5/CyLib.c **** *  None
ARM GAS  C:\Users\Rolando\AppData\Local\Temp\ccmqTZg9.s 			page 34


 683:.\Generated_Source\PSoC5/CyLib.c **** *
 684:.\Generated_Source\PSoC5/CyLib.c **** * Return:
 685:.\Generated_Source\PSoC5/CyLib.c **** *  None
 686:.\Generated_Source\PSoC5/CyLib.c **** *
 687:.\Generated_Source\PSoC5/CyLib.c **** *******************************************************************************/
 688:.\Generated_Source\PSoC5/CyLib.c **** void CyIMO_EnableDoubler(void) 
 689:.\Generated_Source\PSoC5/CyLib.c **** {
 1195              		.loc 1 689 0
 1196              		.cfi_startproc
 1197              		@ args = 0, pretend = 0, frame = 0
 1198              		@ frame_needed = 1, uses_anonymous_args = 0
 1199              		@ link register save eliminated.
 1200 0000 80B4     		push	{r7}
 1201              		.cfi_def_cfa_offset 4
 1202              		.cfi_offset 7, -4
 1203 0002 00AF     		add	r7, sp, #0
 1204              		.cfi_def_cfa_register 7
 690:.\Generated_Source\PSoC5/CyLib.c ****     /* Set the FASTCLK_IMO_CR_PTR regigster's 4th bit */
 691:.\Generated_Source\PSoC5/CyLib.c ****     CY_LIB_FASTCLK_IMO_CR_REG |= CY_LIB_FASTCLK_IMO_DOUBLER;
 1205              		.loc 1 691 0
 1206 0004 054A     		ldr	r2, .L98
 1207 0006 054B     		ldr	r3, .L98
 1208 0008 1B78     		ldrb	r3, [r3]
 1209 000a DBB2     		uxtb	r3, r3
 1210 000c 43F01003 		orr	r3, r3, #16
 1211 0010 DBB2     		uxtb	r3, r3
 1212 0012 1370     		strb	r3, [r2]
 692:.\Generated_Source\PSoC5/CyLib.c **** }
 1213              		.loc 1 692 0
 1214 0014 BD46     		mov	sp, r7
 1215              		.cfi_def_cfa_register 13
 1216              		@ sp needed
 1217 0016 5DF8047B 		ldr	r7, [sp], #4
 1218              		.cfi_restore 7
 1219              		.cfi_def_cfa_offset 0
 1220 001a 7047     		bx	lr
 1221              	.L99:
 1222              		.align	2
 1223              	.L98:
 1224 001c 00420040 		.word	1073758720
 1225              		.cfi_endproc
 1226              	.LFE10:
 1227              		.size	CyIMO_EnableDoubler, .-CyIMO_EnableDoubler
 1228              		.section	.text.CyIMO_DisableDoubler,"ax",%progbits
 1229              		.align	2
 1230              		.global	CyIMO_DisableDoubler
 1231              		.thumb
 1232              		.thumb_func
 1233              		.type	CyIMO_DisableDoubler, %function
 1234              	CyIMO_DisableDoubler:
 1235              	.LFB11:
 693:.\Generated_Source\PSoC5/CyLib.c **** 
 694:.\Generated_Source\PSoC5/CyLib.c **** 
 695:.\Generated_Source\PSoC5/CyLib.c **** /*******************************************************************************
 696:.\Generated_Source\PSoC5/CyLib.c **** * Function Name: CyIMO_DisableDoubler
 697:.\Generated_Source\PSoC5/CyLib.c **** ********************************************************************************
 698:.\Generated_Source\PSoC5/CyLib.c **** *
ARM GAS  C:\Users\Rolando\AppData\Local\Temp\ccmqTZg9.s 			page 35


 699:.\Generated_Source\PSoC5/CyLib.c **** * Summary:
 700:.\Generated_Source\PSoC5/CyLib.c **** *   Disables the IMO doubler.
 701:.\Generated_Source\PSoC5/CyLib.c **** *
 702:.\Generated_Source\PSoC5/CyLib.c **** * Parameters:
 703:.\Generated_Source\PSoC5/CyLib.c **** *  None
 704:.\Generated_Source\PSoC5/CyLib.c **** *
 705:.\Generated_Source\PSoC5/CyLib.c **** * Return:
 706:.\Generated_Source\PSoC5/CyLib.c **** *  None
 707:.\Generated_Source\PSoC5/CyLib.c **** *
 708:.\Generated_Source\PSoC5/CyLib.c **** *******************************************************************************/
 709:.\Generated_Source\PSoC5/CyLib.c **** void CyIMO_DisableDoubler(void) 
 710:.\Generated_Source\PSoC5/CyLib.c **** {
 1236              		.loc 1 710 0
 1237              		.cfi_startproc
 1238              		@ args = 0, pretend = 0, frame = 0
 1239              		@ frame_needed = 1, uses_anonymous_args = 0
 1240              		@ link register save eliminated.
 1241 0000 80B4     		push	{r7}
 1242              		.cfi_def_cfa_offset 4
 1243              		.cfi_offset 7, -4
 1244 0002 00AF     		add	r7, sp, #0
 1245              		.cfi_def_cfa_register 7
 711:.\Generated_Source\PSoC5/CyLib.c ****     CY_LIB_FASTCLK_IMO_CR_REG &= ((uint8)(~CY_LIB_FASTCLK_IMO_DOUBLER));
 1246              		.loc 1 711 0
 1247 0004 054A     		ldr	r2, .L101
 1248 0006 054B     		ldr	r3, .L101
 1249 0008 1B78     		ldrb	r3, [r3]
 1250 000a DBB2     		uxtb	r3, r3
 1251 000c 23F01003 		bic	r3, r3, #16
 1252 0010 DBB2     		uxtb	r3, r3
 1253 0012 1370     		strb	r3, [r2]
 712:.\Generated_Source\PSoC5/CyLib.c **** }
 1254              		.loc 1 712 0
 1255 0014 BD46     		mov	sp, r7
 1256              		.cfi_def_cfa_register 13
 1257              		@ sp needed
 1258 0016 5DF8047B 		ldr	r7, [sp], #4
 1259              		.cfi_restore 7
 1260              		.cfi_def_cfa_offset 0
 1261 001a 7047     		bx	lr
 1262              	.L102:
 1263              		.align	2
 1264              	.L101:
 1265 001c 00420040 		.word	1073758720
 1266              		.cfi_endproc
 1267              	.LFE11:
 1268              		.size	CyIMO_DisableDoubler, .-CyIMO_DisableDoubler
 1269              		.section	.text.CyMasterClk_SetSource,"ax",%progbits
 1270              		.align	2
 1271              		.global	CyMasterClk_SetSource
 1272              		.thumb
 1273              		.thumb_func
 1274              		.type	CyMasterClk_SetSource, %function
 1275              	CyMasterClk_SetSource:
 1276              	.LFB12:
 713:.\Generated_Source\PSoC5/CyLib.c **** 
 714:.\Generated_Source\PSoC5/CyLib.c **** 
ARM GAS  C:\Users\Rolando\AppData\Local\Temp\ccmqTZg9.s 			page 36


 715:.\Generated_Source\PSoC5/CyLib.c **** /*******************************************************************************
 716:.\Generated_Source\PSoC5/CyLib.c **** * Function Name: CyMasterClk_SetSource
 717:.\Generated_Source\PSoC5/CyLib.c **** ********************************************************************************
 718:.\Generated_Source\PSoC5/CyLib.c **** *
 719:.\Generated_Source\PSoC5/CyLib.c **** * Summary:
 720:.\Generated_Source\PSoC5/CyLib.c **** *  Sets the source of the master clock.
 721:.\Generated_Source\PSoC5/CyLib.c **** *
 722:.\Generated_Source\PSoC5/CyLib.c **** * Parameters:
 723:.\Generated_Source\PSoC5/CyLib.c **** *   source: One of the four available Master clock sources.
 724:.\Generated_Source\PSoC5/CyLib.c **** *     CY_MASTER_SOURCE_IMO
 725:.\Generated_Source\PSoC5/CyLib.c **** *     CY_MASTER_SOURCE_PLL
 726:.\Generated_Source\PSoC5/CyLib.c **** *     CY_MASTER_SOURCE_XTAL
 727:.\Generated_Source\PSoC5/CyLib.c **** *     CY_MASTER_SOURCE_DSI
 728:.\Generated_Source\PSoC5/CyLib.c **** *
 729:.\Generated_Source\PSoC5/CyLib.c **** * Return:
 730:.\Generated_Source\PSoC5/CyLib.c **** *  None
 731:.\Generated_Source\PSoC5/CyLib.c **** *
 732:.\Generated_Source\PSoC5/CyLib.c **** * Side Effects:
 733:.\Generated_Source\PSoC5/CyLib.c **** *  The current source and the new source must both be running and stable before
 734:.\Generated_Source\PSoC5/CyLib.c **** *  calling this function.
 735:.\Generated_Source\PSoC5/CyLib.c **** *
 736:.\Generated_Source\PSoC5/CyLib.c **** *  If as result of this function execution the CPU clock frequency is increased
 737:.\Generated_Source\PSoC5/CyLib.c **** *  then the number of clock cycles the cache will wait before it samples data
 738:.\Generated_Source\PSoC5/CyLib.c **** *  coming back from Flash must be adjusted by calling CyFlash_SetWaitCycles()
 739:.\Generated_Source\PSoC5/CyLib.c **** *  with appropriate parameter. It can be optionally called if CPU clock
 740:.\Generated_Source\PSoC5/CyLib.c **** *  frequency is lowered in order to improve CPU performance.
 741:.\Generated_Source\PSoC5/CyLib.c **** *  See CyFlash_SetWaitCycles() description for more information.
 742:.\Generated_Source\PSoC5/CyLib.c **** *
 743:.\Generated_Source\PSoC5/CyLib.c **** *******************************************************************************/
 744:.\Generated_Source\PSoC5/CyLib.c **** void CyMasterClk_SetSource(uint8 source) 
 745:.\Generated_Source\PSoC5/CyLib.c **** {
 1277              		.loc 1 745 0
 1278              		.cfi_startproc
 1279              		@ args = 0, pretend = 0, frame = 8
 1280              		@ frame_needed = 1, uses_anonymous_args = 0
 1281              		@ link register save eliminated.
 1282 0000 80B4     		push	{r7}
 1283              		.cfi_def_cfa_offset 4
 1284              		.cfi_offset 7, -4
 1285 0002 83B0     		sub	sp, sp, #12
 1286              		.cfi_def_cfa_offset 16
 1287 0004 00AF     		add	r7, sp, #0
 1288              		.cfi_def_cfa_register 7
 1289 0006 0346     		mov	r3, r0
 1290 0008 FB71     		strb	r3, [r7, #7]
 746:.\Generated_Source\PSoC5/CyLib.c ****     CY_LIB_CLKDIST_MSTR1_REG = (CY_LIB_CLKDIST_MSTR1_REG & MASTER_CLK_SRC_CLEAR) |
 1291              		.loc 1 746 0
 1292 000a 0949     		ldr	r1, .L104
 1293 000c 084B     		ldr	r3, .L104
 1294 000e 1B78     		ldrb	r3, [r3]
 1295 0010 DBB2     		uxtb	r3, r3
 1296 0012 23F00303 		bic	r3, r3, #3
 1297 0016 DAB2     		uxtb	r2, r3
 1298 0018 FB79     		ldrb	r3, [r7, #7]
 1299 001a 03F00303 		and	r3, r3, #3
 1300 001e DBB2     		uxtb	r3, r3
 1301 0020 1343     		orrs	r3, r3, r2
ARM GAS  C:\Users\Rolando\AppData\Local\Temp\ccmqTZg9.s 			page 37


 1302 0022 DBB2     		uxtb	r3, r3
 1303 0024 0B70     		strb	r3, [r1]
 747:.\Generated_Source\PSoC5/CyLib.c ****                                 (source & ((uint8)(~MASTER_CLK_SRC_CLEAR)));
 748:.\Generated_Source\PSoC5/CyLib.c **** }
 1304              		.loc 1 748 0
 1305 0026 0C37     		adds	r7, r7, #12
 1306              		.cfi_def_cfa_offset 4
 1307 0028 BD46     		mov	sp, r7
 1308              		.cfi_def_cfa_register 13
 1309              		@ sp needed
 1310 002a 5DF8047B 		ldr	r7, [sp], #4
 1311              		.cfi_restore 7
 1312              		.cfi_def_cfa_offset 0
 1313 002e 7047     		bx	lr
 1314              	.L105:
 1315              		.align	2
 1316              	.L104:
 1317 0030 05400040 		.word	1073758213
 1318              		.cfi_endproc
 1319              	.LFE12:
 1320              		.size	CyMasterClk_SetSource, .-CyMasterClk_SetSource
 1321              		.section	.text.CyMasterClk_SetDivider,"ax",%progbits
 1322              		.align	2
 1323              		.global	CyMasterClk_SetDivider
 1324              		.thumb
 1325              		.thumb_func
 1326              		.type	CyMasterClk_SetDivider, %function
 1327              	CyMasterClk_SetDivider:
 1328              	.LFB13:
 749:.\Generated_Source\PSoC5/CyLib.c **** 
 750:.\Generated_Source\PSoC5/CyLib.c **** 
 751:.\Generated_Source\PSoC5/CyLib.c **** /*******************************************************************************
 752:.\Generated_Source\PSoC5/CyLib.c **** * Function Name: CyMasterClk_SetDivider
 753:.\Generated_Source\PSoC5/CyLib.c **** ********************************************************************************
 754:.\Generated_Source\PSoC5/CyLib.c **** *
 755:.\Generated_Source\PSoC5/CyLib.c **** * Summary:
 756:.\Generated_Source\PSoC5/CyLib.c **** *  Sets the divider value used to generate Master Clock.
 757:.\Generated_Source\PSoC5/CyLib.c **** *
 758:.\Generated_Source\PSoC5/CyLib.c **** * Parameters:
 759:.\Generated_Source\PSoC5/CyLib.c **** *  uint8 divider:
 760:.\Generated_Source\PSoC5/CyLib.c **** *   Valid range [0-255]. The clock will be divided by this value + 1.
 761:.\Generated_Source\PSoC5/CyLib.c **** *   For example to divide by 2 this parameter should be set to 1.
 762:.\Generated_Source\PSoC5/CyLib.c **** *
 763:.\Generated_Source\PSoC5/CyLib.c **** * Return:
 764:.\Generated_Source\PSoC5/CyLib.c **** *  None
 765:.\Generated_Source\PSoC5/CyLib.c **** *
 766:.\Generated_Source\PSoC5/CyLib.c **** * Side Effects:
 767:.\Generated_Source\PSoC5/CyLib.c **** *  If as result of this function execution the CPU clock frequency is increased
 768:.\Generated_Source\PSoC5/CyLib.c **** *  then the number of clock cycles the cache will wait before it samples data
 769:.\Generated_Source\PSoC5/CyLib.c **** *  coming back from Flash must be adjusted by calling CyFlash_SetWaitCycles()
 770:.\Generated_Source\PSoC5/CyLib.c **** *  with appropriate parameter. It can be optionally called if CPU clock
 771:.\Generated_Source\PSoC5/CyLib.c **** *  frequency is lowered in order to improve CPU performance.
 772:.\Generated_Source\PSoC5/CyLib.c **** *  See CyFlash_SetWaitCycles() description for more information.
 773:.\Generated_Source\PSoC5/CyLib.c **** *
 774:.\Generated_Source\PSoC5/CyLib.c **** *  When changing the Master or Bus clock divider value from div-by-n to div-by-1
 775:.\Generated_Source\PSoC5/CyLib.c **** *  the first clock cycle output after the div-by-1 can be up to 4 ns shorter
 776:.\Generated_Source\PSoC5/CyLib.c **** *  than the final/expected div-by-1 period.
ARM GAS  C:\Users\Rolando\AppData\Local\Temp\ccmqTZg9.s 			page 38


 777:.\Generated_Source\PSoC5/CyLib.c **** *
 778:.\Generated_Source\PSoC5/CyLib.c **** *******************************************************************************/
 779:.\Generated_Source\PSoC5/CyLib.c **** void CyMasterClk_SetDivider(uint8 divider) 
 780:.\Generated_Source\PSoC5/CyLib.c **** {
 1329              		.loc 1 780 0
 1330              		.cfi_startproc
 1331              		@ args = 0, pretend = 0, frame = 8
 1332              		@ frame_needed = 1, uses_anonymous_args = 0
 1333              		@ link register save eliminated.
 1334 0000 80B4     		push	{r7}
 1335              		.cfi_def_cfa_offset 4
 1336              		.cfi_offset 7, -4
 1337 0002 83B0     		sub	sp, sp, #12
 1338              		.cfi_def_cfa_offset 16
 1339 0004 00AF     		add	r7, sp, #0
 1340              		.cfi_def_cfa_register 7
 1341 0006 0346     		mov	r3, r0
 1342 0008 FB71     		strb	r3, [r7, #7]
 781:.\Generated_Source\PSoC5/CyLib.c ****     CY_LIB_CLKDIST_MSTR0_REG = divider;
 1343              		.loc 1 781 0
 1344 000a 044A     		ldr	r2, .L107
 1345 000c FB79     		ldrb	r3, [r7, #7]
 1346 000e 1370     		strb	r3, [r2]
 782:.\Generated_Source\PSoC5/CyLib.c **** }
 1347              		.loc 1 782 0
 1348 0010 0C37     		adds	r7, r7, #12
 1349              		.cfi_def_cfa_offset 4
 1350 0012 BD46     		mov	sp, r7
 1351              		.cfi_def_cfa_register 13
 1352              		@ sp needed
 1353 0014 5DF8047B 		ldr	r7, [sp], #4
 1354              		.cfi_restore 7
 1355              		.cfi_def_cfa_offset 0
 1356 0018 7047     		bx	lr
 1357              	.L108:
 1358 001a 00BF     		.align	2
 1359              	.L107:
 1360 001c 04400040 		.word	1073758212
 1361              		.cfi_endproc
 1362              	.LFE13:
 1363              		.size	CyMasterClk_SetDivider, .-CyMasterClk_SetDivider
 1364              		.section	.text.CyBusClk_Internal_SetDivider,"ax",%progbits
 1365              		.align	2
 1366              		.thumb
 1367              		.thumb_func
 1368              		.type	CyBusClk_Internal_SetDivider, %function
 1369              	CyBusClk_Internal_SetDivider:
 1370              	.LFB14:
 783:.\Generated_Source\PSoC5/CyLib.c **** 
 784:.\Generated_Source\PSoC5/CyLib.c **** 
 785:.\Generated_Source\PSoC5/CyLib.c **** /*******************************************************************************
 786:.\Generated_Source\PSoC5/CyLib.c **** * Function Name: CyBusClk_Internal_SetDivider
 787:.\Generated_Source\PSoC5/CyLib.c **** ********************************************************************************
 788:.\Generated_Source\PSoC5/CyLib.c **** *
 789:.\Generated_Source\PSoC5/CyLib.c **** * Summary:
 790:.\Generated_Source\PSoC5/CyLib.c **** *  Function used by CyBusClk_SetDivider(). For internal use only.
 791:.\Generated_Source\PSoC5/CyLib.c **** *
ARM GAS  C:\Users\Rolando\AppData\Local\Temp\ccmqTZg9.s 			page 39


 792:.\Generated_Source\PSoC5/CyLib.c **** * Parameters:
 793:.\Generated_Source\PSoC5/CyLib.c **** *   divider: Valid range [0-65535].
 794:.\Generated_Source\PSoC5/CyLib.c **** *   The clock will be divided by this value + 1.
 795:.\Generated_Source\PSoC5/CyLib.c **** *   For example to divide by 2 this parameter should be set to 1.
 796:.\Generated_Source\PSoC5/CyLib.c **** *
 797:.\Generated_Source\PSoC5/CyLib.c **** * Return:
 798:.\Generated_Source\PSoC5/CyLib.c **** *  None
 799:.\Generated_Source\PSoC5/CyLib.c **** *
 800:.\Generated_Source\PSoC5/CyLib.c **** *******************************************************************************/
 801:.\Generated_Source\PSoC5/CyLib.c **** static void CyBusClk_Internal_SetDivider(uint16 divider)
 802:.\Generated_Source\PSoC5/CyLib.c **** {
 1371              		.loc 1 802 0
 1372              		.cfi_startproc
 1373              		@ args = 0, pretend = 0, frame = 8
 1374              		@ frame_needed = 1, uses_anonymous_args = 0
 1375              		@ link register save eliminated.
 1376 0000 80B4     		push	{r7}
 1377              		.cfi_def_cfa_offset 4
 1378              		.cfi_offset 7, -4
 1379 0002 83B0     		sub	sp, sp, #12
 1380              		.cfi_def_cfa_offset 16
 1381 0004 00AF     		add	r7, sp, #0
 1382              		.cfi_def_cfa_register 7
 1383 0006 0346     		mov	r3, r0
 1384 0008 FB80     		strh	r3, [r7, #6]	@ movhi
 803:.\Generated_Source\PSoC5/CyLib.c ****     /* Mask bits to enable shadow loads  */
 804:.\Generated_Source\PSoC5/CyLib.c ****     CY_LIB_CLKDIST_AMASK_REG &= CY_LIB_CLKDIST_AMASK_MASK;
 1385              		.loc 1 804 0
 1386 000a 154A     		ldr	r2, .L110
 1387 000c 144B     		ldr	r3, .L110
 1388 000e 1B78     		ldrb	r3, [r3]
 1389 0010 DBB2     		uxtb	r3, r3
 1390 0012 23F00F03 		bic	r3, r3, #15
 1391 0016 DBB2     		uxtb	r3, r3
 1392 0018 1370     		strb	r3, [r2]
 805:.\Generated_Source\PSoC5/CyLib.c ****     CY_LIB_CLKDIST_DMASK_REG  = CY_LIB_CLKDIST_DMASK_MASK;
 1393              		.loc 1 805 0
 1394 001a 124B     		ldr	r3, .L110+4
 1395 001c 0022     		movs	r2, #0
 1396 001e 1A70     		strb	r2, [r3]
 806:.\Generated_Source\PSoC5/CyLib.c **** 
 807:.\Generated_Source\PSoC5/CyLib.c ****     /* Enable mask bits to enable shadow loads */
 808:.\Generated_Source\PSoC5/CyLib.c ****     CY_LIB_CLKDIST_BCFG2_REG |= CY_LIB_CLKDIST_BCFG2_MASK;
 1397              		.loc 1 808 0
 1398 0020 114A     		ldr	r2, .L110+8
 1399 0022 114B     		ldr	r3, .L110+8
 1400 0024 1B78     		ldrb	r3, [r3]
 1401 0026 DBB2     		uxtb	r3, r3
 1402 0028 63F07F03 		orn	r3, r3, #127
 1403 002c DBB2     		uxtb	r3, r3
 1404 002e 1370     		strb	r3, [r2]
 809:.\Generated_Source\PSoC5/CyLib.c **** 
 810:.\Generated_Source\PSoC5/CyLib.c ****     /* Update Shadow Divider Value Register with the new divider */
 811:.\Generated_Source\PSoC5/CyLib.c ****     CY_LIB_CLKDIST_WRK_LSB_REG = LO8(divider);
 1405              		.loc 1 811 0
 1406 0030 0E4B     		ldr	r3, .L110+12
 1407 0032 FA88     		ldrh	r2, [r7, #6]	@ movhi
ARM GAS  C:\Users\Rolando\AppData\Local\Temp\ccmqTZg9.s 			page 40


 1408 0034 D2B2     		uxtb	r2, r2
 1409 0036 1A70     		strb	r2, [r3]
 812:.\Generated_Source\PSoC5/CyLib.c ****     CY_LIB_CLKDIST_WRK_MSB_REG = HI8(divider);
 1410              		.loc 1 812 0
 1411 0038 0D4A     		ldr	r2, .L110+16
 1412 003a FB88     		ldrh	r3, [r7, #6]
 1413 003c 1B0A     		lsrs	r3, r3, #8
 1414 003e 9BB2     		uxth	r3, r3
 1415 0040 DBB2     		uxtb	r3, r3
 1416 0042 1370     		strb	r3, [r2]
 813:.\Generated_Source\PSoC5/CyLib.c **** 
 814:.\Generated_Source\PSoC5/CyLib.c **** 
 815:.\Generated_Source\PSoC5/CyLib.c ****     /***************************************************************************
 816:.\Generated_Source\PSoC5/CyLib.c ****     * Copy shadow value defined in Shadow Divider Value Register
 817:.\Generated_Source\PSoC5/CyLib.c ****     * (CY_LIB_CLKDIST_WRK_LSB_REG and CY_LIB_CLKDIST_WRK_MSB_REG) to all
 818:.\Generated_Source\PSoC5/CyLib.c ****     * dividers selected in Analog and Digital Clock Mask Registers
 819:.\Generated_Source\PSoC5/CyLib.c ****     * (CY_LIB_CLKDIST_AMASK_REG and CY_LIB_CLKDIST_DMASK_REG).
 820:.\Generated_Source\PSoC5/CyLib.c ****     ***************************************************************************/
 821:.\Generated_Source\PSoC5/CyLib.c ****     CY_LIB_CLKDIST_LD_REG |= CY_LIB_CLKDIST_LD_LOAD;
 1417              		.loc 1 821 0
 1418 0044 0B4A     		ldr	r2, .L110+20
 1419 0046 0B4B     		ldr	r3, .L110+20
 1420 0048 1B78     		ldrb	r3, [r3]
 1421 004a DBB2     		uxtb	r3, r3
 1422 004c 43F00103 		orr	r3, r3, #1
 1423 0050 DBB2     		uxtb	r3, r3
 1424 0052 1370     		strb	r3, [r2]
 822:.\Generated_Source\PSoC5/CyLib.c **** }
 1425              		.loc 1 822 0
 1426 0054 0C37     		adds	r7, r7, #12
 1427              		.cfi_def_cfa_offset 4
 1428 0056 BD46     		mov	sp, r7
 1429              		.cfi_def_cfa_register 13
 1430              		@ sp needed
 1431 0058 5DF8047B 		ldr	r7, [sp], #4
 1432              		.cfi_restore 7
 1433              		.cfi_def_cfa_offset 0
 1434 005c 7047     		bx	lr
 1435              	.L111:
 1436 005e 00BF     		.align	2
 1437              	.L110:
 1438 0060 14400040 		.word	1073758228
 1439 0064 10400040 		.word	1073758224
 1440 0068 08400040 		.word	1073758216
 1441 006c 02400040 		.word	1073758210
 1442 0070 03400040 		.word	1073758211
 1443 0074 01400040 		.word	1073758209
 1444              		.cfi_endproc
 1445              	.LFE14:
 1446              		.size	CyBusClk_Internal_SetDivider, .-CyBusClk_Internal_SetDivider
 1447              		.section	.text.CyBusClk_SetDivider,"ax",%progbits
 1448              		.align	2
 1449              		.global	CyBusClk_SetDivider
 1450              		.thumb
 1451              		.thumb_func
 1452              		.type	CyBusClk_SetDivider, %function
 1453              	CyBusClk_SetDivider:
ARM GAS  C:\Users\Rolando\AppData\Local\Temp\ccmqTZg9.s 			page 41


 1454              	.LFB15:
 823:.\Generated_Source\PSoC5/CyLib.c **** 
 824:.\Generated_Source\PSoC5/CyLib.c **** 
 825:.\Generated_Source\PSoC5/CyLib.c **** /*******************************************************************************
 826:.\Generated_Source\PSoC5/CyLib.c **** * Function Name: CyBusClk_SetDivider
 827:.\Generated_Source\PSoC5/CyLib.c **** ********************************************************************************
 828:.\Generated_Source\PSoC5/CyLib.c **** *
 829:.\Generated_Source\PSoC5/CyLib.c **** * Summary:
 830:.\Generated_Source\PSoC5/CyLib.c **** *  Sets the divider value used to generate Bus Clock.
 831:.\Generated_Source\PSoC5/CyLib.c **** *
 832:.\Generated_Source\PSoC5/CyLib.c **** * Parameters:
 833:.\Generated_Source\PSoC5/CyLib.c **** *  divider: Valid range [0-65535]. The clock will be divided by this value + 1.
 834:.\Generated_Source\PSoC5/CyLib.c **** *  For example to divide by 2 this parameter should be set to 1.
 835:.\Generated_Source\PSoC5/CyLib.c **** *
 836:.\Generated_Source\PSoC5/CyLib.c **** * Return:
 837:.\Generated_Source\PSoC5/CyLib.c **** *  None
 838:.\Generated_Source\PSoC5/CyLib.c **** *
 839:.\Generated_Source\PSoC5/CyLib.c **** * Side Effects:
 840:.\Generated_Source\PSoC5/CyLib.c **** *  If as result of this function execution the CPU clock frequency is increased
 841:.\Generated_Source\PSoC5/CyLib.c **** *  then the number of clock cycles the cache will wait before it samples data
 842:.\Generated_Source\PSoC5/CyLib.c **** *  coming back from Flash must be adjusted by calling CyFlash_SetWaitCycles()
 843:.\Generated_Source\PSoC5/CyLib.c **** *  with appropriate parameter. It can be optionally called if CPU clock
 844:.\Generated_Source\PSoC5/CyLib.c **** *  frequency is lowered in order to improve CPU performance.
 845:.\Generated_Source\PSoC5/CyLib.c **** *  See CyFlash_SetWaitCycles() description for more information.
 846:.\Generated_Source\PSoC5/CyLib.c **** *
 847:.\Generated_Source\PSoC5/CyLib.c **** *******************************************************************************/
 848:.\Generated_Source\PSoC5/CyLib.c **** void CyBusClk_SetDivider(uint16 divider) 
 849:.\Generated_Source\PSoC5/CyLib.c **** {
 1455              		.loc 1 849 0
 1456              		.cfi_startproc
 1457              		@ args = 0, pretend = 0, frame = 16
 1458              		@ frame_needed = 1, uses_anonymous_args = 0
 1459 0000 80B5     		push	{r7, lr}
 1460              		.cfi_def_cfa_offset 8
 1461              		.cfi_offset 7, -8
 1462              		.cfi_offset 14, -4
 1463 0002 84B0     		sub	sp, sp, #16
 1464              		.cfi_def_cfa_offset 24
 1465 0004 00AF     		add	r7, sp, #0
 1466              		.cfi_def_cfa_register 7
 1467 0006 0346     		mov	r3, r0
 1468 0008 FB80     		strh	r3, [r7, #6]	@ movhi
 850:.\Generated_Source\PSoC5/CyLib.c ****     uint8  masterClkDiv;
 851:.\Generated_Source\PSoC5/CyLib.c ****     uint16 busClkDiv;
 852:.\Generated_Source\PSoC5/CyLib.c ****     uint8 interruptState;
 853:.\Generated_Source\PSoC5/CyLib.c **** 
 854:.\Generated_Source\PSoC5/CyLib.c ****     interruptState = CyEnterCriticalSection();
 1469              		.loc 1 854 0
 1470 000a FFF7FEFF 		bl	CyEnterCriticalSection
 1471 000e 0346     		mov	r3, r0
 1472 0010 FB73     		strb	r3, [r7, #15]
 855:.\Generated_Source\PSoC5/CyLib.c **** 
 856:.\Generated_Source\PSoC5/CyLib.c ****     /* Work around to set the bus clock divider value */
 857:.\Generated_Source\PSoC5/CyLib.c ****     busClkDiv = (uint16)((uint16)CY_LIB_CLKDIST_BCFG_MSB_REG << 8u);
 1473              		.loc 1 857 0
 1474 0012 244B     		ldr	r3, .L119
 1475 0014 1B78     		ldrb	r3, [r3]
ARM GAS  C:\Users\Rolando\AppData\Local\Temp\ccmqTZg9.s 			page 42


 1476 0016 DBB2     		uxtb	r3, r3
 1477 0018 9BB2     		uxth	r3, r3
 1478 001a 1B02     		lsls	r3, r3, #8
 1479 001c BB81     		strh	r3, [r7, #12]	@ movhi
 858:.\Generated_Source\PSoC5/CyLib.c ****     busClkDiv |= CY_LIB_CLKDIST_BCFG_LSB_REG;
 1480              		.loc 1 858 0
 1481 001e 224B     		ldr	r3, .L119+4
 1482 0020 1B78     		ldrb	r3, [r3]
 1483 0022 DBB2     		uxtb	r3, r3
 1484 0024 9AB2     		uxth	r2, r3
 1485 0026 BB89     		ldrh	r3, [r7, #12]	@ movhi
 1486 0028 1343     		orrs	r3, r3, r2
 1487 002a BB81     		strh	r3, [r7, #12]	@ movhi
 859:.\Generated_Source\PSoC5/CyLib.c **** 
 860:.\Generated_Source\PSoC5/CyLib.c ****     if ((divider == 0u) || (busClkDiv == 0u))
 1488              		.loc 1 860 0
 1489 002c FB88     		ldrh	r3, [r7, #6]
 1490 002e 002B     		cmp	r3, #0
 1491 0030 02D0     		beq	.L113
 1492              		.loc 1 860 0 is_stmt 0 discriminator 1
 1493 0032 BB89     		ldrh	r3, [r7, #12]
 1494 0034 002B     		cmp	r3, #0
 1495 0036 29D1     		bne	.L114
 1496              	.L113:
 861:.\Generated_Source\PSoC5/CyLib.c ****     {
 862:.\Generated_Source\PSoC5/CyLib.c ****         /* Save away the master clock divider value */
 863:.\Generated_Source\PSoC5/CyLib.c ****         masterClkDiv = CY_LIB_CLKDIST_MSTR0_REG;
 1497              		.loc 1 863 0 is_stmt 1
 1498 0038 1C4B     		ldr	r3, .L119+8
 1499 003a 1B78     		ldrb	r3, [r3]
 1500 003c FB72     		strb	r3, [r7, #11]
 864:.\Generated_Source\PSoC5/CyLib.c **** 
 865:.\Generated_Source\PSoC5/CyLib.c ****         if (masterClkDiv < CY_LIB_CLKDIST_MASTERCLK_DIV)
 1501              		.loc 1 865 0
 1502 003e FB7A     		ldrb	r3, [r7, #11]	@ zero_extendqisi2
 1503 0040 062B     		cmp	r3, #6
 1504 0042 02D8     		bhi	.L115
 866:.\Generated_Source\PSoC5/CyLib.c ****         {
 867:.\Generated_Source\PSoC5/CyLib.c ****             /* Set master clock divider to 7 */
 868:.\Generated_Source\PSoC5/CyLib.c ****             CyMasterClk_SetDivider(CY_LIB_CLKDIST_MASTERCLK_DIV);
 1505              		.loc 1 868 0
 1506 0044 0720     		movs	r0, #7
 1507 0046 FFF7FEFF 		bl	CyMasterClk_SetDivider
 1508              	.L115:
 869:.\Generated_Source\PSoC5/CyLib.c ****         }
 870:.\Generated_Source\PSoC5/CyLib.c **** 
 871:.\Generated_Source\PSoC5/CyLib.c ****         if (divider == 0u)
 1509              		.loc 1 871 0
 1510 004a FB88     		ldrh	r3, [r7, #6]
 1511 004c 002B     		cmp	r3, #0
 1512 004e 0CD1     		bne	.L116
 872:.\Generated_Source\PSoC5/CyLib.c ****         {
 873:.\Generated_Source\PSoC5/CyLib.c ****             /* Set the SSS bit and the divider register desired value */
 874:.\Generated_Source\PSoC5/CyLib.c ****             CY_LIB_CLKDIST_BCFG2_REG |= CY_LIB_CLKDIST_BCFG2_SSS;
 1513              		.loc 1 874 0
 1514 0050 174A     		ldr	r2, .L119+12
 1515 0052 174B     		ldr	r3, .L119+12
ARM GAS  C:\Users\Rolando\AppData\Local\Temp\ccmqTZg9.s 			page 43


 1516 0054 1B78     		ldrb	r3, [r3]
 1517 0056 DBB2     		uxtb	r3, r3
 1518 0058 43F04003 		orr	r3, r3, #64
 1519 005c DBB2     		uxtb	r3, r3
 1520 005e 1370     		strb	r3, [r2]
 875:.\Generated_Source\PSoC5/CyLib.c ****             CyBusClk_Internal_SetDivider(divider);
 1521              		.loc 1 875 0
 1522 0060 FB88     		ldrh	r3, [r7, #6]
 1523 0062 1846     		mov	r0, r3
 1524 0064 FFF7FEFF 		bl	CyBusClk_Internal_SetDivider
 1525 0068 0BE0     		b	.L117
 1526              	.L116:
 876:.\Generated_Source\PSoC5/CyLib.c ****         }
 877:.\Generated_Source\PSoC5/CyLib.c ****         else
 878:.\Generated_Source\PSoC5/CyLib.c ****         {
 879:.\Generated_Source\PSoC5/CyLib.c ****             CyBusClk_Internal_SetDivider(divider);
 1527              		.loc 1 879 0
 1528 006a FB88     		ldrh	r3, [r7, #6]
 1529 006c 1846     		mov	r0, r3
 1530 006e FFF7FEFF 		bl	CyBusClk_Internal_SetDivider
 880:.\Generated_Source\PSoC5/CyLib.c ****             CY_LIB_CLKDIST_BCFG2_REG &= ((uint8)(~CY_LIB_CLKDIST_BCFG2_SSS));
 1531              		.loc 1 880 0
 1532 0072 0F4A     		ldr	r2, .L119+12
 1533 0074 0E4B     		ldr	r3, .L119+12
 1534 0076 1B78     		ldrb	r3, [r3]
 1535 0078 DBB2     		uxtb	r3, r3
 1536 007a 23F04003 		bic	r3, r3, #64
 1537 007e DBB2     		uxtb	r3, r3
 1538 0080 1370     		strb	r3, [r2]
 1539              	.L117:
 881:.\Generated_Source\PSoC5/CyLib.c ****         }
 882:.\Generated_Source\PSoC5/CyLib.c **** 
 883:.\Generated_Source\PSoC5/CyLib.c ****         /* Restore the master clock */
 884:.\Generated_Source\PSoC5/CyLib.c ****         CyMasterClk_SetDivider(masterClkDiv);
 1540              		.loc 1 884 0
 1541 0082 FB7A     		ldrb	r3, [r7, #11]	@ zero_extendqisi2
 1542 0084 1846     		mov	r0, r3
 1543 0086 FFF7FEFF 		bl	CyMasterClk_SetDivider
 1544 008a 03E0     		b	.L118
 1545              	.L114:
 885:.\Generated_Source\PSoC5/CyLib.c ****     }
 886:.\Generated_Source\PSoC5/CyLib.c ****     else
 887:.\Generated_Source\PSoC5/CyLib.c ****     {
 888:.\Generated_Source\PSoC5/CyLib.c ****         CyBusClk_Internal_SetDivider(divider);
 1546              		.loc 1 888 0
 1547 008c FB88     		ldrh	r3, [r7, #6]
 1548 008e 1846     		mov	r0, r3
 1549 0090 FFF7FEFF 		bl	CyBusClk_Internal_SetDivider
 1550              	.L118:
 889:.\Generated_Source\PSoC5/CyLib.c ****     }
 890:.\Generated_Source\PSoC5/CyLib.c **** 
 891:.\Generated_Source\PSoC5/CyLib.c ****     CyExitCriticalSection(interruptState);
 1551              		.loc 1 891 0
 1552 0094 FB7B     		ldrb	r3, [r7, #15]	@ zero_extendqisi2
 1553 0096 1846     		mov	r0, r3
 1554 0098 FFF7FEFF 		bl	CyExitCriticalSection
 892:.\Generated_Source\PSoC5/CyLib.c **** }
ARM GAS  C:\Users\Rolando\AppData\Local\Temp\ccmqTZg9.s 			page 44


 1555              		.loc 1 892 0
 1556 009c 1037     		adds	r7, r7, #16
 1557              		.cfi_def_cfa_offset 8
 1558 009e BD46     		mov	sp, r7
 1559              		.cfi_def_cfa_register 13
 1560              		@ sp needed
 1561 00a0 80BD     		pop	{r7, pc}
 1562              	.L120:
 1563 00a2 00BF     		.align	2
 1564              	.L119:
 1565 00a4 07400040 		.word	1073758215
 1566 00a8 06400040 		.word	1073758214
 1567 00ac 04400040 		.word	1073758212
 1568 00b0 08400040 		.word	1073758216
 1569              		.cfi_endproc
 1570              	.LFE15:
 1571              		.size	CyBusClk_SetDivider, .-CyBusClk_SetDivider
 1572              		.section	.text.CyUsbClk_SetSource,"ax",%progbits
 1573              		.align	2
 1574              		.global	CyUsbClk_SetSource
 1575              		.thumb
 1576              		.thumb_func
 1577              		.type	CyUsbClk_SetSource, %function
 1578              	CyUsbClk_SetSource:
 1579              	.LFB16:
 893:.\Generated_Source\PSoC5/CyLib.c **** 
 894:.\Generated_Source\PSoC5/CyLib.c **** 
 895:.\Generated_Source\PSoC5/CyLib.c **** #if(CY_PSOC3)
 896:.\Generated_Source\PSoC5/CyLib.c **** 
 897:.\Generated_Source\PSoC5/CyLib.c ****     /*******************************************************************************
 898:.\Generated_Source\PSoC5/CyLib.c ****     * Function Name: CyCpuClk_SetDivider
 899:.\Generated_Source\PSoC5/CyLib.c ****     ********************************************************************************
 900:.\Generated_Source\PSoC5/CyLib.c ****     *
 901:.\Generated_Source\PSoC5/CyLib.c ****     * Summary:
 902:.\Generated_Source\PSoC5/CyLib.c ****     *  Sets the divider value used to generate the CPU Clock. Only applicable for
 903:.\Generated_Source\PSoC5/CyLib.c ****     *  PSoC 3 parts.
 904:.\Generated_Source\PSoC5/CyLib.c ****     *
 905:.\Generated_Source\PSoC5/CyLib.c ****     * Parameters:
 906:.\Generated_Source\PSoC5/CyLib.c ****     *  divider: Valid range [0-15]. The clock will be divided by this value + 1.
 907:.\Generated_Source\PSoC5/CyLib.c ****     *  For example to divide by 2 this parameter should be set to 1.
 908:.\Generated_Source\PSoC5/CyLib.c ****     *
 909:.\Generated_Source\PSoC5/CyLib.c ****     * Return:
 910:.\Generated_Source\PSoC5/CyLib.c ****     *  None
 911:.\Generated_Source\PSoC5/CyLib.c ****     *
 912:.\Generated_Source\PSoC5/CyLib.c ****     * Side Effects:
 913:.\Generated_Source\PSoC5/CyLib.c ****     *  If as result of this function execution the CPU clock frequency is increased
 914:.\Generated_Source\PSoC5/CyLib.c ****     *  then the number of clock cycles the cache will wait before it samples data
 915:.\Generated_Source\PSoC5/CyLib.c ****     *  coming back from Flash must be adjusted by calling CyFlash_SetWaitCycles()
 916:.\Generated_Source\PSoC5/CyLib.c ****     *  with appropriate parameter. It can be optionally called if CPU clock
 917:.\Generated_Source\PSoC5/CyLib.c ****     *  frequency is lowered in order to improve CPU performance.
 918:.\Generated_Source\PSoC5/CyLib.c ****     *  See CyFlash_SetWaitCycles() description for more information.
 919:.\Generated_Source\PSoC5/CyLib.c ****     *
 920:.\Generated_Source\PSoC5/CyLib.c ****     *******************************************************************************/
 921:.\Generated_Source\PSoC5/CyLib.c ****     void CyCpuClk_SetDivider(uint8 divider) 
 922:.\Generated_Source\PSoC5/CyLib.c ****     {
 923:.\Generated_Source\PSoC5/CyLib.c ****             CY_LIB_CLKDIST_MSTR1_REG = (CY_LIB_CLKDIST_MSTR1_REG & CY_LIB_CLKDIST_MSTR1_DIV_MASK) |
 924:.\Generated_Source\PSoC5/CyLib.c ****                                 ((uint8)(divider << CY_LIB_CLKDIST_DIV_POSITION));
ARM GAS  C:\Users\Rolando\AppData\Local\Temp\ccmqTZg9.s 			page 45


 925:.\Generated_Source\PSoC5/CyLib.c ****     }
 926:.\Generated_Source\PSoC5/CyLib.c **** 
 927:.\Generated_Source\PSoC5/CyLib.c **** #endif /* (CY_PSOC3) */
 928:.\Generated_Source\PSoC5/CyLib.c **** 
 929:.\Generated_Source\PSoC5/CyLib.c **** 
 930:.\Generated_Source\PSoC5/CyLib.c **** /*******************************************************************************
 931:.\Generated_Source\PSoC5/CyLib.c **** * Function Name: CyUsbClk_SetSource
 932:.\Generated_Source\PSoC5/CyLib.c **** ********************************************************************************
 933:.\Generated_Source\PSoC5/CyLib.c **** *
 934:.\Generated_Source\PSoC5/CyLib.c **** * Summary:
 935:.\Generated_Source\PSoC5/CyLib.c **** *  Sets the source of the USB clock.
 936:.\Generated_Source\PSoC5/CyLib.c **** *
 937:.\Generated_Source\PSoC5/CyLib.c **** * Parameters:
 938:.\Generated_Source\PSoC5/CyLib.c **** *  source: One of the four available USB clock sources
 939:.\Generated_Source\PSoC5/CyLib.c **** *    CY_LIB_USB_CLK_IMO2X     - IMO 2x
 940:.\Generated_Source\PSoC5/CyLib.c **** *    CY_LIB_USB_CLK_IMO       - IMO
 941:.\Generated_Source\PSoC5/CyLib.c **** *    CY_LIB_USB_CLK_PLL       - PLL
 942:.\Generated_Source\PSoC5/CyLib.c **** *    CY_LIB_USB_CLK_DSI       - DSI
 943:.\Generated_Source\PSoC5/CyLib.c **** *
 944:.\Generated_Source\PSoC5/CyLib.c **** * Return:
 945:.\Generated_Source\PSoC5/CyLib.c **** *  None
 946:.\Generated_Source\PSoC5/CyLib.c **** *
 947:.\Generated_Source\PSoC5/CyLib.c **** *******************************************************************************/
 948:.\Generated_Source\PSoC5/CyLib.c **** void CyUsbClk_SetSource(uint8 source) 
 949:.\Generated_Source\PSoC5/CyLib.c **** {
 1580              		.loc 1 949 0
 1581              		.cfi_startproc
 1582              		@ args = 0, pretend = 0, frame = 8
 1583              		@ frame_needed = 1, uses_anonymous_args = 0
 1584              		@ link register save eliminated.
 1585 0000 80B4     		push	{r7}
 1586              		.cfi_def_cfa_offset 4
 1587              		.cfi_offset 7, -4
 1588 0002 83B0     		sub	sp, sp, #12
 1589              		.cfi_def_cfa_offset 16
 1590 0004 00AF     		add	r7, sp, #0
 1591              		.cfi_def_cfa_register 7
 1592 0006 0346     		mov	r3, r0
 1593 0008 FB71     		strb	r3, [r7, #7]
 950:.\Generated_Source\PSoC5/CyLib.c ****     CY_LIB_CLKDIST_UCFG_REG = (CY_LIB_CLKDIST_UCFG_REG & ((uint8)(~CY_LIB_CLKDIST_UCFG_SRC_SEL_MASK
 1594              		.loc 1 950 0
 1595 000a 0949     		ldr	r1, .L122
 1596 000c 084B     		ldr	r3, .L122
 1597 000e 1B78     		ldrb	r3, [r3]
 1598 0010 DBB2     		uxtb	r3, r3
 1599 0012 23F00303 		bic	r3, r3, #3
 1600 0016 DAB2     		uxtb	r2, r3
 1601 0018 FB79     		ldrb	r3, [r7, #7]
 1602 001a 03F00303 		and	r3, r3, #3
 1603 001e DBB2     		uxtb	r3, r3
 1604 0020 1343     		orrs	r3, r3, r2
 1605 0022 DBB2     		uxtb	r3, r3
 1606 0024 0B70     		strb	r3, [r1]
 951:.\Generated_Source\PSoC5/CyLib.c ****                         (CY_LIB_CLKDIST_UCFG_SRC_SEL_MASK & source);
 952:.\Generated_Source\PSoC5/CyLib.c **** }
 1607              		.loc 1 952 0
 1608 0026 0C37     		adds	r7, r7, #12
ARM GAS  C:\Users\Rolando\AppData\Local\Temp\ccmqTZg9.s 			page 46


 1609              		.cfi_def_cfa_offset 4
 1610 0028 BD46     		mov	sp, r7
 1611              		.cfi_def_cfa_register 13
 1612              		@ sp needed
 1613 002a 5DF8047B 		ldr	r7, [sp], #4
 1614              		.cfi_restore 7
 1615              		.cfi_def_cfa_offset 0
 1616 002e 7047     		bx	lr
 1617              	.L123:
 1618              		.align	2
 1619              	.L122:
 1620 0030 09400040 		.word	1073758217
 1621              		.cfi_endproc
 1622              	.LFE16:
 1623              		.size	CyUsbClk_SetSource, .-CyUsbClk_SetSource
 1624              		.section	.text.CyILO_Start1K,"ax",%progbits
 1625              		.align	2
 1626              		.global	CyILO_Start1K
 1627              		.thumb
 1628              		.thumb_func
 1629              		.type	CyILO_Start1K, %function
 1630              	CyILO_Start1K:
 1631              	.LFB17:
 953:.\Generated_Source\PSoC5/CyLib.c **** 
 954:.\Generated_Source\PSoC5/CyLib.c **** 
 955:.\Generated_Source\PSoC5/CyLib.c **** /*******************************************************************************
 956:.\Generated_Source\PSoC5/CyLib.c **** * Function Name: CyILO_Start1K
 957:.\Generated_Source\PSoC5/CyLib.c **** ********************************************************************************
 958:.\Generated_Source\PSoC5/CyLib.c **** *
 959:.\Generated_Source\PSoC5/CyLib.c **** * Summary:
 960:.\Generated_Source\PSoC5/CyLib.c **** *  Enables the ILO 1 KHz oscillator.
 961:.\Generated_Source\PSoC5/CyLib.c **** *
 962:.\Generated_Source\PSoC5/CyLib.c **** *  Note The ILO 1 KHz oscillator is always enabled by default, regardless of the
 963:.\Generated_Source\PSoC5/CyLib.c **** *  selection in the Clock Editor. Therefore, this API is only needed if the
 964:.\Generated_Source\PSoC5/CyLib.c **** *  oscillator was turned off manually.
 965:.\Generated_Source\PSoC5/CyLib.c **** *
 966:.\Generated_Source\PSoC5/CyLib.c **** * Parameters:
 967:.\Generated_Source\PSoC5/CyLib.c **** *  None
 968:.\Generated_Source\PSoC5/CyLib.c **** *
 969:.\Generated_Source\PSoC5/CyLib.c **** * Return:
 970:.\Generated_Source\PSoC5/CyLib.c **** *  None
 971:.\Generated_Source\PSoC5/CyLib.c **** *
 972:.\Generated_Source\PSoC5/CyLib.c **** *******************************************************************************/
 973:.\Generated_Source\PSoC5/CyLib.c **** void CyILO_Start1K(void) 
 974:.\Generated_Source\PSoC5/CyLib.c **** {
 1632              		.loc 1 974 0
 1633              		.cfi_startproc
 1634              		@ args = 0, pretend = 0, frame = 0
 1635              		@ frame_needed = 1, uses_anonymous_args = 0
 1636              		@ link register save eliminated.
 1637 0000 80B4     		push	{r7}
 1638              		.cfi_def_cfa_offset 4
 1639              		.cfi_offset 7, -4
 1640 0002 00AF     		add	r7, sp, #0
 1641              		.cfi_def_cfa_register 7
 975:.\Generated_Source\PSoC5/CyLib.c ****     /* Set the bit 1 of ILO RS */
 976:.\Generated_Source\PSoC5/CyLib.c ****     CY_LIB_SLOWCLK_ILO_CR0_REG |= CY_LIB_SLOWCLK_ILO_CR0_EN_1KHZ;
ARM GAS  C:\Users\Rolando\AppData\Local\Temp\ccmqTZg9.s 			page 47


 1642              		.loc 1 976 0
 1643 0004 054A     		ldr	r2, .L125
 1644 0006 054B     		ldr	r3, .L125
 1645 0008 1B78     		ldrb	r3, [r3]
 1646 000a DBB2     		uxtb	r3, r3
 1647 000c 43F00203 		orr	r3, r3, #2
 1648 0010 DBB2     		uxtb	r3, r3
 1649 0012 1370     		strb	r3, [r2]
 977:.\Generated_Source\PSoC5/CyLib.c **** }
 1650              		.loc 1 977 0
 1651 0014 BD46     		mov	sp, r7
 1652              		.cfi_def_cfa_register 13
 1653              		@ sp needed
 1654 0016 5DF8047B 		ldr	r7, [sp], #4
 1655              		.cfi_restore 7
 1656              		.cfi_def_cfa_offset 0
 1657 001a 7047     		bx	lr
 1658              	.L126:
 1659              		.align	2
 1660              	.L125:
 1661 001c 00430040 		.word	1073758976
 1662              		.cfi_endproc
 1663              	.LFE17:
 1664              		.size	CyILO_Start1K, .-CyILO_Start1K
 1665              		.section	.text.CyILO_Stop1K,"ax",%progbits
 1666              		.align	2
 1667              		.global	CyILO_Stop1K
 1668              		.thumb
 1669              		.thumb_func
 1670              		.type	CyILO_Stop1K, %function
 1671              	CyILO_Stop1K:
 1672              	.LFB18:
 978:.\Generated_Source\PSoC5/CyLib.c **** 
 979:.\Generated_Source\PSoC5/CyLib.c **** 
 980:.\Generated_Source\PSoC5/CyLib.c **** /*******************************************************************************
 981:.\Generated_Source\PSoC5/CyLib.c **** * Function Name: CyILO_Stop1K
 982:.\Generated_Source\PSoC5/CyLib.c **** ********************************************************************************
 983:.\Generated_Source\PSoC5/CyLib.c **** *
 984:.\Generated_Source\PSoC5/CyLib.c **** * Summary:
 985:.\Generated_Source\PSoC5/CyLib.c **** *  Disables the ILO 1 KHz oscillator.
 986:.\Generated_Source\PSoC5/CyLib.c **** *
 987:.\Generated_Source\PSoC5/CyLib.c **** *  Note The ILO 1 KHz oscillator must be enabled if Sleep or Hibernate low power
 988:.\Generated_Source\PSoC5/CyLib.c **** *  mode APIs are expected to be used. For more information, refer to the Power
 989:.\Generated_Source\PSoC5/CyLib.c **** *  Management section of this document.
 990:.\Generated_Source\PSoC5/CyLib.c **** *
 991:.\Generated_Source\PSoC5/CyLib.c **** * Parameters:
 992:.\Generated_Source\PSoC5/CyLib.c **** *  None
 993:.\Generated_Source\PSoC5/CyLib.c **** *
 994:.\Generated_Source\PSoC5/CyLib.c **** * Return:
 995:.\Generated_Source\PSoC5/CyLib.c **** *  None
 996:.\Generated_Source\PSoC5/CyLib.c **** *
 997:.\Generated_Source\PSoC5/CyLib.c **** * Side Effects:
 998:.\Generated_Source\PSoC5/CyLib.c **** *  PSoC5: Stopping the ILO 1 kHz could break the active WDT functionality.
 999:.\Generated_Source\PSoC5/CyLib.c **** *
1000:.\Generated_Source\PSoC5/CyLib.c **** *******************************************************************************/
1001:.\Generated_Source\PSoC5/CyLib.c **** void CyILO_Stop1K(void) 
1002:.\Generated_Source\PSoC5/CyLib.c **** {
ARM GAS  C:\Users\Rolando\AppData\Local\Temp\ccmqTZg9.s 			page 48


 1673              		.loc 1 1002 0
 1674              		.cfi_startproc
 1675              		@ args = 0, pretend = 0, frame = 0
 1676              		@ frame_needed = 1, uses_anonymous_args = 0
 1677              		@ link register save eliminated.
 1678 0000 80B4     		push	{r7}
 1679              		.cfi_def_cfa_offset 4
 1680              		.cfi_offset 7, -4
 1681 0002 00AF     		add	r7, sp, #0
 1682              		.cfi_def_cfa_register 7
1003:.\Generated_Source\PSoC5/CyLib.c ****     /* Clear the bit 1 of ILO RS */
1004:.\Generated_Source\PSoC5/CyLib.c ****     CY_LIB_SLOWCLK_ILO_CR0_REG &= ((uint8)(~CY_LIB_SLOWCLK_ILO_CR0_EN_1KHZ));
 1683              		.loc 1 1004 0
 1684 0004 054A     		ldr	r2, .L128
 1685 0006 054B     		ldr	r3, .L128
 1686 0008 1B78     		ldrb	r3, [r3]
 1687 000a DBB2     		uxtb	r3, r3
 1688 000c 23F00203 		bic	r3, r3, #2
 1689 0010 DBB2     		uxtb	r3, r3
 1690 0012 1370     		strb	r3, [r2]
1005:.\Generated_Source\PSoC5/CyLib.c **** }
 1691              		.loc 1 1005 0
 1692 0014 BD46     		mov	sp, r7
 1693              		.cfi_def_cfa_register 13
 1694              		@ sp needed
 1695 0016 5DF8047B 		ldr	r7, [sp], #4
 1696              		.cfi_restore 7
 1697              		.cfi_def_cfa_offset 0
 1698 001a 7047     		bx	lr
 1699              	.L129:
 1700              		.align	2
 1701              	.L128:
 1702 001c 00430040 		.word	1073758976
 1703              		.cfi_endproc
 1704              	.LFE18:
 1705              		.size	CyILO_Stop1K, .-CyILO_Stop1K
 1706              		.section	.text.CyILO_Start100K,"ax",%progbits
 1707              		.align	2
 1708              		.global	CyILO_Start100K
 1709              		.thumb
 1710              		.thumb_func
 1711              		.type	CyILO_Start100K, %function
 1712              	CyILO_Start100K:
 1713              	.LFB19:
1006:.\Generated_Source\PSoC5/CyLib.c **** 
1007:.\Generated_Source\PSoC5/CyLib.c **** 
1008:.\Generated_Source\PSoC5/CyLib.c **** /*******************************************************************************
1009:.\Generated_Source\PSoC5/CyLib.c **** * Function Name: CyILO_Start100K
1010:.\Generated_Source\PSoC5/CyLib.c **** ********************************************************************************
1011:.\Generated_Source\PSoC5/CyLib.c **** *
1012:.\Generated_Source\PSoC5/CyLib.c **** * Summary:
1013:.\Generated_Source\PSoC5/CyLib.c **** *  Enables the ILO 100 KHz oscillator.
1014:.\Generated_Source\PSoC5/CyLib.c **** *
1015:.\Generated_Source\PSoC5/CyLib.c **** * Parameters:
1016:.\Generated_Source\PSoC5/CyLib.c **** *  None
1017:.\Generated_Source\PSoC5/CyLib.c **** *
1018:.\Generated_Source\PSoC5/CyLib.c **** * Return:
ARM GAS  C:\Users\Rolando\AppData\Local\Temp\ccmqTZg9.s 			page 49


1019:.\Generated_Source\PSoC5/CyLib.c **** *  None
1020:.\Generated_Source\PSoC5/CyLib.c **** *
1021:.\Generated_Source\PSoC5/CyLib.c **** *******************************************************************************/
1022:.\Generated_Source\PSoC5/CyLib.c **** void CyILO_Start100K(void) 
1023:.\Generated_Source\PSoC5/CyLib.c **** {
 1714              		.loc 1 1023 0
 1715              		.cfi_startproc
 1716              		@ args = 0, pretend = 0, frame = 0
 1717              		@ frame_needed = 1, uses_anonymous_args = 0
 1718              		@ link register save eliminated.
 1719 0000 80B4     		push	{r7}
 1720              		.cfi_def_cfa_offset 4
 1721              		.cfi_offset 7, -4
 1722 0002 00AF     		add	r7, sp, #0
 1723              		.cfi_def_cfa_register 7
1024:.\Generated_Source\PSoC5/CyLib.c ****     CY_LIB_SLOWCLK_ILO_CR0_REG |= CY_LIB_SLOWCLK_ILO_CR0_EN_100KHZ;
 1724              		.loc 1 1024 0
 1725 0004 054A     		ldr	r2, .L131
 1726 0006 054B     		ldr	r3, .L131
 1727 0008 1B78     		ldrb	r3, [r3]
 1728 000a DBB2     		uxtb	r3, r3
 1729 000c 43F00403 		orr	r3, r3, #4
 1730 0010 DBB2     		uxtb	r3, r3
 1731 0012 1370     		strb	r3, [r2]
1025:.\Generated_Source\PSoC5/CyLib.c **** }
 1732              		.loc 1 1025 0
 1733 0014 BD46     		mov	sp, r7
 1734              		.cfi_def_cfa_register 13
 1735              		@ sp needed
 1736 0016 5DF8047B 		ldr	r7, [sp], #4
 1737              		.cfi_restore 7
 1738              		.cfi_def_cfa_offset 0
 1739 001a 7047     		bx	lr
 1740              	.L132:
 1741              		.align	2
 1742              	.L131:
 1743 001c 00430040 		.word	1073758976
 1744              		.cfi_endproc
 1745              	.LFE19:
 1746              		.size	CyILO_Start100K, .-CyILO_Start100K
 1747              		.section	.text.CyILO_Stop100K,"ax",%progbits
 1748              		.align	2
 1749              		.global	CyILO_Stop100K
 1750              		.thumb
 1751              		.thumb_func
 1752              		.type	CyILO_Stop100K, %function
 1753              	CyILO_Stop100K:
 1754              	.LFB20:
1026:.\Generated_Source\PSoC5/CyLib.c **** 
1027:.\Generated_Source\PSoC5/CyLib.c **** 
1028:.\Generated_Source\PSoC5/CyLib.c **** /*******************************************************************************
1029:.\Generated_Source\PSoC5/CyLib.c **** * Function Name: CyILO_Stop100K
1030:.\Generated_Source\PSoC5/CyLib.c **** ********************************************************************************
1031:.\Generated_Source\PSoC5/CyLib.c **** *
1032:.\Generated_Source\PSoC5/CyLib.c **** * Summary:
1033:.\Generated_Source\PSoC5/CyLib.c **** *  Disables the ILO 100 KHz oscillator.
1034:.\Generated_Source\PSoC5/CyLib.c **** *
ARM GAS  C:\Users\Rolando\AppData\Local\Temp\ccmqTZg9.s 			page 50


1035:.\Generated_Source\PSoC5/CyLib.c **** * Parameters:
1036:.\Generated_Source\PSoC5/CyLib.c **** *  None
1037:.\Generated_Source\PSoC5/CyLib.c **** *
1038:.\Generated_Source\PSoC5/CyLib.c **** * Return:
1039:.\Generated_Source\PSoC5/CyLib.c **** *  None
1040:.\Generated_Source\PSoC5/CyLib.c **** *
1041:.\Generated_Source\PSoC5/CyLib.c **** *******************************************************************************/
1042:.\Generated_Source\PSoC5/CyLib.c **** void CyILO_Stop100K(void) 
1043:.\Generated_Source\PSoC5/CyLib.c **** {
 1755              		.loc 1 1043 0
 1756              		.cfi_startproc
 1757              		@ args = 0, pretend = 0, frame = 0
 1758              		@ frame_needed = 1, uses_anonymous_args = 0
 1759              		@ link register save eliminated.
 1760 0000 80B4     		push	{r7}
 1761              		.cfi_def_cfa_offset 4
 1762              		.cfi_offset 7, -4
 1763 0002 00AF     		add	r7, sp, #0
 1764              		.cfi_def_cfa_register 7
1044:.\Generated_Source\PSoC5/CyLib.c ****     CY_LIB_SLOWCLK_ILO_CR0_REG &= ((uint8)(~CY_LIB_SLOWCLK_ILO_CR0_EN_100KHZ));
 1765              		.loc 1 1044 0
 1766 0004 054A     		ldr	r2, .L134
 1767 0006 054B     		ldr	r3, .L134
 1768 0008 1B78     		ldrb	r3, [r3]
 1769 000a DBB2     		uxtb	r3, r3
 1770 000c 23F00403 		bic	r3, r3, #4
 1771 0010 DBB2     		uxtb	r3, r3
 1772 0012 1370     		strb	r3, [r2]
1045:.\Generated_Source\PSoC5/CyLib.c **** }
 1773              		.loc 1 1045 0
 1774 0014 BD46     		mov	sp, r7
 1775              		.cfi_def_cfa_register 13
 1776              		@ sp needed
 1777 0016 5DF8047B 		ldr	r7, [sp], #4
 1778              		.cfi_restore 7
 1779              		.cfi_def_cfa_offset 0
 1780 001a 7047     		bx	lr
 1781              	.L135:
 1782              		.align	2
 1783              	.L134:
 1784 001c 00430040 		.word	1073758976
 1785              		.cfi_endproc
 1786              	.LFE20:
 1787              		.size	CyILO_Stop100K, .-CyILO_Stop100K
 1788              		.section	.text.CyILO_Enable33K,"ax",%progbits
 1789              		.align	2
 1790              		.global	CyILO_Enable33K
 1791              		.thumb
 1792              		.thumb_func
 1793              		.type	CyILO_Enable33K, %function
 1794              	CyILO_Enable33K:
 1795              	.LFB21:
1046:.\Generated_Source\PSoC5/CyLib.c **** 
1047:.\Generated_Source\PSoC5/CyLib.c **** 
1048:.\Generated_Source\PSoC5/CyLib.c **** /*******************************************************************************
1049:.\Generated_Source\PSoC5/CyLib.c **** * Function Name: CyILO_Enable33K
1050:.\Generated_Source\PSoC5/CyLib.c **** ********************************************************************************
ARM GAS  C:\Users\Rolando\AppData\Local\Temp\ccmqTZg9.s 			page 51


1051:.\Generated_Source\PSoC5/CyLib.c **** *
1052:.\Generated_Source\PSoC5/CyLib.c **** * Summary:
1053:.\Generated_Source\PSoC5/CyLib.c **** *  Enables the ILO 33 KHz divider.
1054:.\Generated_Source\PSoC5/CyLib.c **** *
1055:.\Generated_Source\PSoC5/CyLib.c **** *  Note that the 33 KHz clock is generated from the 100 KHz oscillator,
1056:.\Generated_Source\PSoC5/CyLib.c **** *  so it must also be running in order to generate the 33 KHz output.
1057:.\Generated_Source\PSoC5/CyLib.c **** *
1058:.\Generated_Source\PSoC5/CyLib.c **** * Parameters:
1059:.\Generated_Source\PSoC5/CyLib.c **** *  None
1060:.\Generated_Source\PSoC5/CyLib.c **** *
1061:.\Generated_Source\PSoC5/CyLib.c **** * Return:
1062:.\Generated_Source\PSoC5/CyLib.c **** *  None
1063:.\Generated_Source\PSoC5/CyLib.c **** *
1064:.\Generated_Source\PSoC5/CyLib.c **** *******************************************************************************/
1065:.\Generated_Source\PSoC5/CyLib.c **** void CyILO_Enable33K(void) 
1066:.\Generated_Source\PSoC5/CyLib.c **** {
 1796              		.loc 1 1066 0
 1797              		.cfi_startproc
 1798              		@ args = 0, pretend = 0, frame = 0
 1799              		@ frame_needed = 1, uses_anonymous_args = 0
 1800              		@ link register save eliminated.
 1801 0000 80B4     		push	{r7}
 1802              		.cfi_def_cfa_offset 4
 1803              		.cfi_offset 7, -4
 1804 0002 00AF     		add	r7, sp, #0
 1805              		.cfi_def_cfa_register 7
1067:.\Generated_Source\PSoC5/CyLib.c ****     /* Set the bit 5 of ILO RS */
1068:.\Generated_Source\PSoC5/CyLib.c ****     CY_LIB_SLOWCLK_ILO_CR0_REG |= CY_LIB_SLOWCLK_ILO_CR0_EN_33KHZ;
 1806              		.loc 1 1068 0
 1807 0004 054A     		ldr	r2, .L137
 1808 0006 054B     		ldr	r3, .L137
 1809 0008 1B78     		ldrb	r3, [r3]
 1810 000a DBB2     		uxtb	r3, r3
 1811 000c 43F02003 		orr	r3, r3, #32
 1812 0010 DBB2     		uxtb	r3, r3
 1813 0012 1370     		strb	r3, [r2]
1069:.\Generated_Source\PSoC5/CyLib.c **** }
 1814              		.loc 1 1069 0
 1815 0014 BD46     		mov	sp, r7
 1816              		.cfi_def_cfa_register 13
 1817              		@ sp needed
 1818 0016 5DF8047B 		ldr	r7, [sp], #4
 1819              		.cfi_restore 7
 1820              		.cfi_def_cfa_offset 0
 1821 001a 7047     		bx	lr
 1822              	.L138:
 1823              		.align	2
 1824              	.L137:
 1825 001c 00430040 		.word	1073758976
 1826              		.cfi_endproc
 1827              	.LFE21:
 1828              		.size	CyILO_Enable33K, .-CyILO_Enable33K
 1829              		.section	.text.CyILO_Disable33K,"ax",%progbits
 1830              		.align	2
 1831              		.global	CyILO_Disable33K
 1832              		.thumb
 1833              		.thumb_func
ARM GAS  C:\Users\Rolando\AppData\Local\Temp\ccmqTZg9.s 			page 52


 1834              		.type	CyILO_Disable33K, %function
 1835              	CyILO_Disable33K:
 1836              	.LFB22:
1070:.\Generated_Source\PSoC5/CyLib.c **** 
1071:.\Generated_Source\PSoC5/CyLib.c **** 
1072:.\Generated_Source\PSoC5/CyLib.c **** /*******************************************************************************
1073:.\Generated_Source\PSoC5/CyLib.c **** * Function Name: CyILO_Disable33K
1074:.\Generated_Source\PSoC5/CyLib.c **** ********************************************************************************
1075:.\Generated_Source\PSoC5/CyLib.c **** *
1076:.\Generated_Source\PSoC5/CyLib.c **** * Summary:
1077:.\Generated_Source\PSoC5/CyLib.c **** *  Disables the ILO 33 KHz divider.
1078:.\Generated_Source\PSoC5/CyLib.c **** *
1079:.\Generated_Source\PSoC5/CyLib.c **** *  Note that the 33 KHz clock is generated from the 100 KHz oscillator, but this
1080:.\Generated_Source\PSoC5/CyLib.c **** *  API does not disable the 100 KHz clock.
1081:.\Generated_Source\PSoC5/CyLib.c **** *
1082:.\Generated_Source\PSoC5/CyLib.c **** * Parameters:
1083:.\Generated_Source\PSoC5/CyLib.c **** *  None
1084:.\Generated_Source\PSoC5/CyLib.c **** *
1085:.\Generated_Source\PSoC5/CyLib.c **** * Return:
1086:.\Generated_Source\PSoC5/CyLib.c **** *  None
1087:.\Generated_Source\PSoC5/CyLib.c **** *
1088:.\Generated_Source\PSoC5/CyLib.c **** *******************************************************************************/
1089:.\Generated_Source\PSoC5/CyLib.c **** void CyILO_Disable33K(void) 
1090:.\Generated_Source\PSoC5/CyLib.c **** {
 1837              		.loc 1 1090 0
 1838              		.cfi_startproc
 1839              		@ args = 0, pretend = 0, frame = 0
 1840              		@ frame_needed = 1, uses_anonymous_args = 0
 1841              		@ link register save eliminated.
 1842 0000 80B4     		push	{r7}
 1843              		.cfi_def_cfa_offset 4
 1844              		.cfi_offset 7, -4
 1845 0002 00AF     		add	r7, sp, #0
 1846              		.cfi_def_cfa_register 7
1091:.\Generated_Source\PSoC5/CyLib.c ****     CY_LIB_SLOWCLK_ILO_CR0_REG &= ((uint8)(~CY_LIB_SLOWCLK_ILO_CR0_EN_33KHZ));
 1847              		.loc 1 1091 0
 1848 0004 054A     		ldr	r2, .L140
 1849 0006 054B     		ldr	r3, .L140
 1850 0008 1B78     		ldrb	r3, [r3]
 1851 000a DBB2     		uxtb	r3, r3
 1852 000c 23F02003 		bic	r3, r3, #32
 1853 0010 DBB2     		uxtb	r3, r3
 1854 0012 1370     		strb	r3, [r2]
1092:.\Generated_Source\PSoC5/CyLib.c **** }
 1855              		.loc 1 1092 0
 1856 0014 BD46     		mov	sp, r7
 1857              		.cfi_def_cfa_register 13
 1858              		@ sp needed
 1859 0016 5DF8047B 		ldr	r7, [sp], #4
 1860              		.cfi_restore 7
 1861              		.cfi_def_cfa_offset 0
 1862 001a 7047     		bx	lr
 1863              	.L141:
 1864              		.align	2
 1865              	.L140:
 1866 001c 00430040 		.word	1073758976
 1867              		.cfi_endproc
ARM GAS  C:\Users\Rolando\AppData\Local\Temp\ccmqTZg9.s 			page 53


 1868              	.LFE22:
 1869              		.size	CyILO_Disable33K, .-CyILO_Disable33K
 1870              		.section	.text.CyILO_SetSource,"ax",%progbits
 1871              		.align	2
 1872              		.global	CyILO_SetSource
 1873              		.thumb
 1874              		.thumb_func
 1875              		.type	CyILO_SetSource, %function
 1876              	CyILO_SetSource:
 1877              	.LFB23:
1093:.\Generated_Source\PSoC5/CyLib.c **** 
1094:.\Generated_Source\PSoC5/CyLib.c **** 
1095:.\Generated_Source\PSoC5/CyLib.c **** /*******************************************************************************
1096:.\Generated_Source\PSoC5/CyLib.c **** * Function Name: CyILO_SetSource
1097:.\Generated_Source\PSoC5/CyLib.c **** ********************************************************************************
1098:.\Generated_Source\PSoC5/CyLib.c **** *
1099:.\Generated_Source\PSoC5/CyLib.c **** * Summary:
1100:.\Generated_Source\PSoC5/CyLib.c **** *  Sets the source of the clock output from the ILO block.
1101:.\Generated_Source\PSoC5/CyLib.c **** *
1102:.\Generated_Source\PSoC5/CyLib.c **** * Parameters:
1103:.\Generated_Source\PSoC5/CyLib.c **** *  source: One of the three available ILO output sources
1104:.\Generated_Source\PSoC5/CyLib.c **** *       Value        Define                Source
1105:.\Generated_Source\PSoC5/CyLib.c **** *       0            CY_ILO_SOURCE_100K    ILO 100 KHz
1106:.\Generated_Source\PSoC5/CyLib.c **** *       1            CY_ILO_SOURCE_33K     ILO 33 KHz
1107:.\Generated_Source\PSoC5/CyLib.c **** *       2            CY_ILO_SOURCE_1K      ILO 1 KHz
1108:.\Generated_Source\PSoC5/CyLib.c **** *
1109:.\Generated_Source\PSoC5/CyLib.c **** * Return:
1110:.\Generated_Source\PSoC5/CyLib.c **** *  None
1111:.\Generated_Source\PSoC5/CyLib.c **** *
1112:.\Generated_Source\PSoC5/CyLib.c **** *******************************************************************************/
1113:.\Generated_Source\PSoC5/CyLib.c **** void CyILO_SetSource(uint8 source) 
1114:.\Generated_Source\PSoC5/CyLib.c **** {
 1878              		.loc 1 1114 0
 1879              		.cfi_startproc
 1880              		@ args = 0, pretend = 0, frame = 8
 1881              		@ frame_needed = 1, uses_anonymous_args = 0
 1882              		@ link register save eliminated.
 1883 0000 80B4     		push	{r7}
 1884              		.cfi_def_cfa_offset 4
 1885              		.cfi_offset 7, -4
 1886 0002 83B0     		sub	sp, sp, #12
 1887              		.cfi_def_cfa_offset 16
 1888 0004 00AF     		add	r7, sp, #0
 1889              		.cfi_def_cfa_register 7
 1890 0006 0346     		mov	r3, r0
 1891 0008 FB71     		strb	r3, [r7, #7]
1115:.\Generated_Source\PSoC5/CyLib.c ****     CY_LIB_CLKDIST_CR_REG = (CY_LIB_CLKDIST_CR_REG & CY_ILO_SOURCE_BITS_CLEAR) |
 1892              		.loc 1 1115 0
 1893 000a 4FF04021 		mov	r1, #1073758208
 1894 000e 4FF04023 		mov	r3, #1073758208
 1895 0012 1B78     		ldrb	r3, [r3]
 1896 0014 DBB2     		uxtb	r3, r3
 1897 0016 23F00C03 		bic	r3, r3, #12
 1898 001a DAB2     		uxtb	r2, r3
1116:.\Generated_Source\PSoC5/CyLib.c ****                     (((uint8) (source << 2u)) & ((uint8)(~CY_ILO_SOURCE_BITS_CLEAR)));
 1899              		.loc 1 1116 0
 1900 001c FB79     		ldrb	r3, [r7, #7]
ARM GAS  C:\Users\Rolando\AppData\Local\Temp\ccmqTZg9.s 			page 54


 1901 001e 9B00     		lsls	r3, r3, #2
 1902 0020 DBB2     		uxtb	r3, r3
1115:.\Generated_Source\PSoC5/CyLib.c ****     CY_LIB_CLKDIST_CR_REG = (CY_LIB_CLKDIST_CR_REG & CY_ILO_SOURCE_BITS_CLEAR) |
 1903              		.loc 1 1115 0
 1904 0022 03F00C03 		and	r3, r3, #12
 1905 0026 DBB2     		uxtb	r3, r3
 1906 0028 1343     		orrs	r3, r3, r2
 1907 002a DBB2     		uxtb	r3, r3
 1908 002c 0B70     		strb	r3, [r1]
1117:.\Generated_Source\PSoC5/CyLib.c **** }
 1909              		.loc 1 1117 0
 1910 002e 0C37     		adds	r7, r7, #12
 1911              		.cfi_def_cfa_offset 4
 1912 0030 BD46     		mov	sp, r7
 1913              		.cfi_def_cfa_register 13
 1914              		@ sp needed
 1915 0032 5DF8047B 		ldr	r7, [sp], #4
 1916              		.cfi_restore 7
 1917              		.cfi_def_cfa_offset 0
 1918 0036 7047     		bx	lr
 1919              		.cfi_endproc
 1920              	.LFE23:
 1921              		.size	CyILO_SetSource, .-CyILO_SetSource
 1922              		.section	.text.CyILO_SetPowerMode,"ax",%progbits
 1923              		.align	2
 1924              		.global	CyILO_SetPowerMode
 1925              		.thumb
 1926              		.thumb_func
 1927              		.type	CyILO_SetPowerMode, %function
 1928              	CyILO_SetPowerMode:
 1929              	.LFB24:
1118:.\Generated_Source\PSoC5/CyLib.c **** 
1119:.\Generated_Source\PSoC5/CyLib.c **** 
1120:.\Generated_Source\PSoC5/CyLib.c **** /*******************************************************************************
1121:.\Generated_Source\PSoC5/CyLib.c **** * Function Name: CyILO_SetPowerMode
1122:.\Generated_Source\PSoC5/CyLib.c **** ********************************************************************************
1123:.\Generated_Source\PSoC5/CyLib.c **** *
1124:.\Generated_Source\PSoC5/CyLib.c **** * Summary:
1125:.\Generated_Source\PSoC5/CyLib.c **** *  Sets the power mode used by the ILO during power down. Allows for lower power
1126:.\Generated_Source\PSoC5/CyLib.c **** *  down power usage resulting in a slower startup time.
1127:.\Generated_Source\PSoC5/CyLib.c **** *
1128:.\Generated_Source\PSoC5/CyLib.c **** * Parameters:
1129:.\Generated_Source\PSoC5/CyLib.c **** *  uint8 mode
1130:.\Generated_Source\PSoC5/CyLib.c **** *   CY_ILO_FAST_START - Faster start-up, internal bias left on when powered down
1131:.\Generated_Source\PSoC5/CyLib.c **** *   CY_ILO_SLOW_START - Slower start-up, internal bias off when powered down
1132:.\Generated_Source\PSoC5/CyLib.c **** *
1133:.\Generated_Source\PSoC5/CyLib.c **** * Return:
1134:.\Generated_Source\PSoC5/CyLib.c **** *   Prevous power mode state.
1135:.\Generated_Source\PSoC5/CyLib.c **** *
1136:.\Generated_Source\PSoC5/CyLib.c **** *******************************************************************************/
1137:.\Generated_Source\PSoC5/CyLib.c **** uint8 CyILO_SetPowerMode(uint8 mode) 
1138:.\Generated_Source\PSoC5/CyLib.c **** {
 1930              		.loc 1 1138 0
 1931              		.cfi_startproc
 1932              		@ args = 0, pretend = 0, frame = 16
 1933              		@ frame_needed = 1, uses_anonymous_args = 0
 1934              		@ link register save eliminated.
ARM GAS  C:\Users\Rolando\AppData\Local\Temp\ccmqTZg9.s 			page 55


 1935 0000 80B4     		push	{r7}
 1936              		.cfi_def_cfa_offset 4
 1937              		.cfi_offset 7, -4
 1938 0002 85B0     		sub	sp, sp, #20
 1939              		.cfi_def_cfa_offset 24
 1940 0004 00AF     		add	r7, sp, #0
 1941              		.cfi_def_cfa_register 7
 1942 0006 0346     		mov	r3, r0
 1943 0008 FB71     		strb	r3, [r7, #7]
1139:.\Generated_Source\PSoC5/CyLib.c ****     uint8 state;
1140:.\Generated_Source\PSoC5/CyLib.c **** 
1141:.\Generated_Source\PSoC5/CyLib.c ****     /* Get current state. */
1142:.\Generated_Source\PSoC5/CyLib.c ****     state = CY_LIB_SLOWCLK_ILO_CR0_REG;
 1944              		.loc 1 1142 0
 1945 000a 0F4B     		ldr	r3, .L147
 1946 000c 1B78     		ldrb	r3, [r3]
 1947 000e FB73     		strb	r3, [r7, #15]
1143:.\Generated_Source\PSoC5/CyLib.c **** 
1144:.\Generated_Source\PSoC5/CyLib.c ****     /* Set the the oscillator power mode. */
1145:.\Generated_Source\PSoC5/CyLib.c ****     if(mode != CY_ILO_FAST_START)
 1948              		.loc 1 1145 0
 1949 0010 FB79     		ldrb	r3, [r7, #7]	@ zero_extendqisi2
 1950 0012 002B     		cmp	r3, #0
 1951 0014 06D0     		beq	.L144
1146:.\Generated_Source\PSoC5/CyLib.c ****     {
1147:.\Generated_Source\PSoC5/CyLib.c ****         CY_LIB_SLOWCLK_ILO_CR0_REG = (state | CY_ILO_CONTROL_PD_MODE);
 1952              		.loc 1 1147 0
 1953 0016 0C4A     		ldr	r2, .L147
 1954 0018 FB7B     		ldrb	r3, [r7, #15]
 1955 001a 43F01003 		orr	r3, r3, #16
 1956 001e DBB2     		uxtb	r3, r3
 1957 0020 1370     		strb	r3, [r2]
 1958 0022 05E0     		b	.L145
 1959              	.L144:
1148:.\Generated_Source\PSoC5/CyLib.c ****     }
1149:.\Generated_Source\PSoC5/CyLib.c ****     else
1150:.\Generated_Source\PSoC5/CyLib.c ****     {
1151:.\Generated_Source\PSoC5/CyLib.c ****         CY_LIB_SLOWCLK_ILO_CR0_REG = (state & ((uint8)(~CY_ILO_CONTROL_PD_MODE)));
 1960              		.loc 1 1151 0
 1961 0024 084A     		ldr	r2, .L147
 1962 0026 FB7B     		ldrb	r3, [r7, #15]
 1963 0028 23F01003 		bic	r3, r3, #16
 1964 002c DBB2     		uxtb	r3, r3
 1965 002e 1370     		strb	r3, [r2]
 1966              	.L145:
1152:.\Generated_Source\PSoC5/CyLib.c ****     }
1153:.\Generated_Source\PSoC5/CyLib.c **** 
1154:.\Generated_Source\PSoC5/CyLib.c ****     /* Return the old mode. */
1155:.\Generated_Source\PSoC5/CyLib.c ****     return ((state & CY_ILO_CONTROL_PD_MODE) >> CY_ILO_CONTROL_PD_POSITION);
 1967              		.loc 1 1155 0
 1968 0030 FB7B     		ldrb	r3, [r7, #15]	@ zero_extendqisi2
 1969 0032 03F01003 		and	r3, r3, #16
 1970 0036 1B09     		lsrs	r3, r3, #4
 1971 0038 DBB2     		uxtb	r3, r3
1156:.\Generated_Source\PSoC5/CyLib.c **** }
 1972              		.loc 1 1156 0
 1973 003a 1846     		mov	r0, r3
ARM GAS  C:\Users\Rolando\AppData\Local\Temp\ccmqTZg9.s 			page 56


 1974 003c 1437     		adds	r7, r7, #20
 1975              		.cfi_def_cfa_offset 4
 1976 003e BD46     		mov	sp, r7
 1977              		.cfi_def_cfa_register 13
 1978              		@ sp needed
 1979 0040 5DF8047B 		ldr	r7, [sp], #4
 1980              		.cfi_restore 7
 1981              		.cfi_def_cfa_offset 0
 1982 0044 7047     		bx	lr
 1983              	.L148:
 1984 0046 00BF     		.align	2
 1985              	.L147:
 1986 0048 00430040 		.word	1073758976
 1987              		.cfi_endproc
 1988              	.LFE24:
 1989              		.size	CyILO_SetPowerMode, .-CyILO_SetPowerMode
 1990              		.section	.text.CyXTAL_32KHZ_Start,"ax",%progbits
 1991              		.align	2
 1992              		.global	CyXTAL_32KHZ_Start
 1993              		.thumb
 1994              		.thumb_func
 1995              		.type	CyXTAL_32KHZ_Start, %function
 1996              	CyXTAL_32KHZ_Start:
 1997              	.LFB25:
1157:.\Generated_Source\PSoC5/CyLib.c **** 
1158:.\Generated_Source\PSoC5/CyLib.c **** 
1159:.\Generated_Source\PSoC5/CyLib.c **** /*******************************************************************************
1160:.\Generated_Source\PSoC5/CyLib.c **** * Function Name: CyXTAL_32KHZ_Start
1161:.\Generated_Source\PSoC5/CyLib.c **** ********************************************************************************
1162:.\Generated_Source\PSoC5/CyLib.c **** *
1163:.\Generated_Source\PSoC5/CyLib.c **** * Summary:
1164:.\Generated_Source\PSoC5/CyLib.c **** *  Enables the 32 KHz Crystal Oscillator.
1165:.\Generated_Source\PSoC5/CyLib.c **** *
1166:.\Generated_Source\PSoC5/CyLib.c **** * Parameters:
1167:.\Generated_Source\PSoC5/CyLib.c **** *  None
1168:.\Generated_Source\PSoC5/CyLib.c **** *
1169:.\Generated_Source\PSoC5/CyLib.c **** * Return:
1170:.\Generated_Source\PSoC5/CyLib.c **** *  None
1171:.\Generated_Source\PSoC5/CyLib.c **** *
1172:.\Generated_Source\PSoC5/CyLib.c **** *******************************************************************************/
1173:.\Generated_Source\PSoC5/CyLib.c **** void CyXTAL_32KHZ_Start(void) 
1174:.\Generated_Source\PSoC5/CyLib.c **** {
 1998              		.loc 1 1174 0
 1999              		.cfi_startproc
 2000              		@ args = 0, pretend = 0, frame = 8
 2001              		@ frame_needed = 1, uses_anonymous_args = 0
 2002 0000 80B5     		push	{r7, lr}
 2003              		.cfi_def_cfa_offset 8
 2004              		.cfi_offset 7, -8
 2005              		.cfi_offset 14, -4
 2006 0002 82B0     		sub	sp, sp, #8
 2007              		.cfi_def_cfa_offset 16
 2008 0004 00AF     		add	r7, sp, #0
 2009              		.cfi_def_cfa_register 7
1175:.\Generated_Source\PSoC5/CyLib.c ****     volatile uint16 i;
1176:.\Generated_Source\PSoC5/CyLib.c **** 
1177:.\Generated_Source\PSoC5/CyLib.c ****     CY_CLK_XTAL32_TST_REG = CY_CLK_XTAL32_TST_DEFAULT;
ARM GAS  C:\Users\Rolando\AppData\Local\Temp\ccmqTZg9.s 			page 57


 2010              		.loc 1 1177 0
 2011 0006 1B4B     		ldr	r3, .L154
 2012 0008 F322     		movs	r2, #243
 2013 000a 1A70     		strb	r2, [r3]
1178:.\Generated_Source\PSoC5/CyLib.c ****     CY_CLK_XTAL32_TR_REG  = CY_CLK_XTAL32_TR_STARTUP;
 2014              		.loc 1 1178 0
 2015 000c 1A4B     		ldr	r3, .L154+4
 2016 000e 0322     		movs	r2, #3
 2017 0010 1A70     		strb	r2, [r3]
1179:.\Generated_Source\PSoC5/CyLib.c ****     CY_CLK_XTAL32_CFG_REG = (CY_CLK_XTAL32_CFG_REG & ((uint8)(~CY_CLK_XTAL32_CFG_LP_MASK))) |
 2018              		.loc 1 1179 0
 2019 0012 1A4A     		ldr	r2, .L154+8
 2020 0014 194B     		ldr	r3, .L154+8
 2021 0016 1B78     		ldrb	r3, [r3]
 2022 0018 DBB2     		uxtb	r3, r3
 2023 001a 23F00C03 		bic	r3, r3, #12
 2024 001e DBB2     		uxtb	r3, r3
 2025 0020 43F00403 		orr	r3, r3, #4
 2026 0024 DBB2     		uxtb	r3, r3
 2027 0026 1370     		strb	r3, [r2]
1180:.\Generated_Source\PSoC5/CyLib.c ****                                 CY_CLK_XTAL32_CFG_LP_DEFAULT;
1181:.\Generated_Source\PSoC5/CyLib.c **** 
1182:.\Generated_Source\PSoC5/CyLib.c ****     #if(CY_PSOC3)
1183:.\Generated_Source\PSoC5/CyLib.c ****         CY_CLK_XTAL32_CR_REG |= CY_CLK_XTAL32_CR_PDBEN;
1184:.\Generated_Source\PSoC5/CyLib.c ****     #endif  /* (CY_PSOC3) */
1185:.\Generated_Source\PSoC5/CyLib.c **** 
1186:.\Generated_Source\PSoC5/CyLib.c ****     /* Enable operation of the 32K Crystal Oscillator */
1187:.\Generated_Source\PSoC5/CyLib.c ****     CY_CLK_XTAL32_CR_REG |= CY_CLK_XTAL32_CR_EN;
 2028              		.loc 1 1187 0
 2029 0028 154A     		ldr	r2, .L154+12
 2030 002a 154B     		ldr	r3, .L154+12
 2031 002c 1B78     		ldrb	r3, [r3]
 2032 002e DBB2     		uxtb	r3, r3
 2033 0030 43F00103 		orr	r3, r3, #1
 2034 0034 DBB2     		uxtb	r3, r3
 2035 0036 1370     		strb	r3, [r2]
1188:.\Generated_Source\PSoC5/CyLib.c **** 
1189:.\Generated_Source\PSoC5/CyLib.c ****     for (i = 1000u; i > 0u; i--)
 2036              		.loc 1 1189 0
 2037 0038 4FF47A73 		mov	r3, #1000
 2038 003c FB80     		strh	r3, [r7, #6]	@ movhi
 2039 003e 12E0     		b	.L150
 2040              	.L153:
1190:.\Generated_Source\PSoC5/CyLib.c ****     {
1191:.\Generated_Source\PSoC5/CyLib.c ****         if(0u != (CyXTAL_32KHZ_ReadStatus() & CY_XTAL32K_ANA_STAT))
 2041              		.loc 1 1191 0
 2042 0040 FFF7FEFF 		bl	CyXTAL_32KHZ_ReadStatus
 2043 0044 0346     		mov	r3, r0
 2044 0046 03F02003 		and	r3, r3, #32
 2045 004a 002B     		cmp	r3, #0
 2046 004c 03D0     		beq	.L151
1192:.\Generated_Source\PSoC5/CyLib.c ****         {
1193:.\Generated_Source\PSoC5/CyLib.c ****             /* Ready - switch to the hign power mode */
1194:.\Generated_Source\PSoC5/CyLib.c ****             (void) CyXTAL_32KHZ_SetPowerMode(0u);
 2047              		.loc 1 1194 0
 2048 004e 0020     		movs	r0, #0
 2049 0050 FFF7FEFF 		bl	CyXTAL_32KHZ_SetPowerMode
ARM GAS  C:\Users\Rolando\AppData\Local\Temp\ccmqTZg9.s 			page 58


1195:.\Generated_Source\PSoC5/CyLib.c **** 
1196:.\Generated_Source\PSoC5/CyLib.c ****             break;
 2050              		.loc 1 1196 0
 2051 0054 0BE0     		b	.L149
 2052              	.L151:
1197:.\Generated_Source\PSoC5/CyLib.c ****         }
1198:.\Generated_Source\PSoC5/CyLib.c ****         CyDelayUs(1u);
 2053              		.loc 1 1198 0 discriminator 2
 2054 0056 0120     		movs	r0, #1
 2055 0058 FFF7FEFF 		bl	CyDelayUs
1189:.\Generated_Source\PSoC5/CyLib.c ****     {
 2056              		.loc 1 1189 0 discriminator 2
 2057 005c FB88     		ldrh	r3, [r7, #6]	@ movhi
 2058 005e 9BB2     		uxth	r3, r3
 2059 0060 013B     		subs	r3, r3, #1
 2060 0062 9BB2     		uxth	r3, r3
 2061 0064 FB80     		strh	r3, [r7, #6]	@ movhi
 2062              	.L150:
1189:.\Generated_Source\PSoC5/CyLib.c ****     {
 2063              		.loc 1 1189 0 is_stmt 0 discriminator 1
 2064 0066 FB88     		ldrh	r3, [r7, #6]	@ movhi
 2065 0068 9BB2     		uxth	r3, r3
 2066 006a 002B     		cmp	r3, #0
 2067 006c E8D1     		bne	.L153
 2068              	.L149:
1199:.\Generated_Source\PSoC5/CyLib.c ****     }
1200:.\Generated_Source\PSoC5/CyLib.c **** }
 2069              		.loc 1 1200 0 is_stmt 1
 2070 006e 0837     		adds	r7, r7, #8
 2071              		.cfi_def_cfa_offset 8
 2072 0070 BD46     		mov	sp, r7
 2073              		.cfi_def_cfa_register 13
 2074              		@ sp needed
 2075 0072 80BD     		pop	{r7, pc}
 2076              	.L155:
 2077              		.align	2
 2078              	.L154:
 2079 0074 0A430040 		.word	1073758986
 2080 0078 98460040 		.word	1073759896
 2081 007c 09430040 		.word	1073758985
 2082 0080 08430040 		.word	1073758984
 2083              		.cfi_endproc
 2084              	.LFE25:
 2085              		.size	CyXTAL_32KHZ_Start, .-CyXTAL_32KHZ_Start
 2086              		.section	.text.CyXTAL_32KHZ_Stop,"ax",%progbits
 2087              		.align	2
 2088              		.global	CyXTAL_32KHZ_Stop
 2089              		.thumb
 2090              		.thumb_func
 2091              		.type	CyXTAL_32KHZ_Stop, %function
 2092              	CyXTAL_32KHZ_Stop:
 2093              	.LFB26:
1201:.\Generated_Source\PSoC5/CyLib.c **** 
1202:.\Generated_Source\PSoC5/CyLib.c **** 
1203:.\Generated_Source\PSoC5/CyLib.c **** /*******************************************************************************
1204:.\Generated_Source\PSoC5/CyLib.c **** * Function Name: CyXTAL_32KHZ_Stop
1205:.\Generated_Source\PSoC5/CyLib.c **** ********************************************************************************
ARM GAS  C:\Users\Rolando\AppData\Local\Temp\ccmqTZg9.s 			page 59


1206:.\Generated_Source\PSoC5/CyLib.c **** *
1207:.\Generated_Source\PSoC5/CyLib.c **** * Summary:
1208:.\Generated_Source\PSoC5/CyLib.c **** *  Disables the 32KHz Crystal Oscillator.
1209:.\Generated_Source\PSoC5/CyLib.c **** *
1210:.\Generated_Source\PSoC5/CyLib.c **** * Parameters:
1211:.\Generated_Source\PSoC5/CyLib.c **** *  None
1212:.\Generated_Source\PSoC5/CyLib.c **** *
1213:.\Generated_Source\PSoC5/CyLib.c **** * Return:
1214:.\Generated_Source\PSoC5/CyLib.c **** *  None
1215:.\Generated_Source\PSoC5/CyLib.c **** *
1216:.\Generated_Source\PSoC5/CyLib.c **** *******************************************************************************/
1217:.\Generated_Source\PSoC5/CyLib.c **** void CyXTAL_32KHZ_Stop(void) 
1218:.\Generated_Source\PSoC5/CyLib.c **** {
 2094              		.loc 1 1218 0
 2095              		.cfi_startproc
 2096              		@ args = 0, pretend = 0, frame = 0
 2097              		@ frame_needed = 1, uses_anonymous_args = 0
 2098              		@ link register save eliminated.
 2099 0000 80B4     		push	{r7}
 2100              		.cfi_def_cfa_offset 4
 2101              		.cfi_offset 7, -4
 2102 0002 00AF     		add	r7, sp, #0
 2103              		.cfi_def_cfa_register 7
1219:.\Generated_Source\PSoC5/CyLib.c ****     CY_CLK_XTAL32_TST_REG  = CY_CLK_XTAL32_TST_DEFAULT;
 2104              		.loc 1 1219 0
 2105 0004 0E4B     		ldr	r3, .L157
 2106 0006 F322     		movs	r2, #243
 2107 0008 1A70     		strb	r2, [r3]
1220:.\Generated_Source\PSoC5/CyLib.c ****     CY_CLK_XTAL32_TR_REG   = CY_CLK_XTAL32_TR_POWERDOWN;
 2108              		.loc 1 1220 0
 2109 000a 0E4B     		ldr	r3, .L157+4
 2110 000c 0022     		movs	r2, #0
 2111 000e 1A70     		strb	r2, [r3]
1221:.\Generated_Source\PSoC5/CyLib.c ****     CY_CLK_XTAL32_CFG_REG = (CY_CLK_XTAL32_CFG_REG & ((uint8)(~CY_CLK_XTAL32_CFG_LP_MASK))) |
 2112              		.loc 1 1221 0
 2113 0010 0D4A     		ldr	r2, .L157+8
 2114 0012 0D4B     		ldr	r3, .L157+8
 2115 0014 1B78     		ldrb	r3, [r3]
 2116 0016 DBB2     		uxtb	r3, r3
 2117 0018 23F00C03 		bic	r3, r3, #12
 2118 001c DBB2     		uxtb	r3, r3
 2119 001e 43F00403 		orr	r3, r3, #4
 2120 0022 DBB2     		uxtb	r3, r3
 2121 0024 1370     		strb	r3, [r2]
1222:.\Generated_Source\PSoC5/CyLib.c ****                              CY_CLK_XTAL32_CFG_LP_DEFAULT;
1223:.\Generated_Source\PSoC5/CyLib.c ****     CY_CLK_XTAL32_CR_REG &= ((uint8)(~(CY_CLK_XTAL32_CR_EN | CY_CLK_XTAL32_CR_LPM)));
 2122              		.loc 1 1223 0
 2123 0026 094A     		ldr	r2, .L157+12
 2124 0028 084B     		ldr	r3, .L157+12
 2125 002a 1B78     		ldrb	r3, [r3]
 2126 002c DBB2     		uxtb	r3, r3
 2127 002e 23F00303 		bic	r3, r3, #3
 2128 0032 DBB2     		uxtb	r3, r3
 2129 0034 1370     		strb	r3, [r2]
1224:.\Generated_Source\PSoC5/CyLib.c **** 
1225:.\Generated_Source\PSoC5/CyLib.c ****     #if(CY_PSOC3)
1226:.\Generated_Source\PSoC5/CyLib.c ****         CY_CLK_XTAL32_CR_REG &= ((uint8)(~CY_CLK_XTAL32_CR_PDBEN));
ARM GAS  C:\Users\Rolando\AppData\Local\Temp\ccmqTZg9.s 			page 60


1227:.\Generated_Source\PSoC5/CyLib.c ****     #endif  /* (CY_PSOC3) */
1228:.\Generated_Source\PSoC5/CyLib.c **** }
 2130              		.loc 1 1228 0
 2131 0036 BD46     		mov	sp, r7
 2132              		.cfi_def_cfa_register 13
 2133              		@ sp needed
 2134 0038 5DF8047B 		ldr	r7, [sp], #4
 2135              		.cfi_restore 7
 2136              		.cfi_def_cfa_offset 0
 2137 003c 7047     		bx	lr
 2138              	.L158:
 2139 003e 00BF     		.align	2
 2140              	.L157:
 2141 0040 0A430040 		.word	1073758986
 2142 0044 98460040 		.word	1073759896
 2143 0048 09430040 		.word	1073758985
 2144 004c 08430040 		.word	1073758984
 2145              		.cfi_endproc
 2146              	.LFE26:
 2147              		.size	CyXTAL_32KHZ_Stop, .-CyXTAL_32KHZ_Stop
 2148              		.section	.text.CyXTAL_32KHZ_ReadStatus,"ax",%progbits
 2149              		.align	2
 2150              		.global	CyXTAL_32KHZ_ReadStatus
 2151              		.thumb
 2152              		.thumb_func
 2153              		.type	CyXTAL_32KHZ_ReadStatus, %function
 2154              	CyXTAL_32KHZ_ReadStatus:
 2155              	.LFB27:
1229:.\Generated_Source\PSoC5/CyLib.c **** 
1230:.\Generated_Source\PSoC5/CyLib.c **** 
1231:.\Generated_Source\PSoC5/CyLib.c **** /*******************************************************************************
1232:.\Generated_Source\PSoC5/CyLib.c **** * Function Name: CyXTAL_32KHZ_ReadStatus
1233:.\Generated_Source\PSoC5/CyLib.c **** ********************************************************************************
1234:.\Generated_Source\PSoC5/CyLib.c **** *
1235:.\Generated_Source\PSoC5/CyLib.c **** * Summary:
1236:.\Generated_Source\PSoC5/CyLib.c **** *  Returns status of the 32 KHz oscillator.
1237:.\Generated_Source\PSoC5/CyLib.c **** *
1238:.\Generated_Source\PSoC5/CyLib.c **** * Parameters:
1239:.\Generated_Source\PSoC5/CyLib.c **** *  None
1240:.\Generated_Source\PSoC5/CyLib.c **** *
1241:.\Generated_Source\PSoC5/CyLib.c **** * Return:
1242:.\Generated_Source\PSoC5/CyLib.c **** *  Value     Define                    Source
1243:.\Generated_Source\PSoC5/CyLib.c **** *  20        CY_XTAL32K_ANA_STAT       Analog measurement
1244:.\Generated_Source\PSoC5/CyLib.c **** *                                       1: Stable
1245:.\Generated_Source\PSoC5/CyLib.c **** *                                       0: Not stable
1246:.\Generated_Source\PSoC5/CyLib.c **** *
1247:.\Generated_Source\PSoC5/CyLib.c **** *******************************************************************************/
1248:.\Generated_Source\PSoC5/CyLib.c **** uint8 CyXTAL_32KHZ_ReadStatus(void) 
1249:.\Generated_Source\PSoC5/CyLib.c **** {
 2156              		.loc 1 1249 0
 2157              		.cfi_startproc
 2158              		@ args = 0, pretend = 0, frame = 0
 2159              		@ frame_needed = 1, uses_anonymous_args = 0
 2160              		@ link register save eliminated.
 2161 0000 80B4     		push	{r7}
 2162              		.cfi_def_cfa_offset 4
 2163              		.cfi_offset 7, -4
ARM GAS  C:\Users\Rolando\AppData\Local\Temp\ccmqTZg9.s 			page 61


 2164 0002 00AF     		add	r7, sp, #0
 2165              		.cfi_def_cfa_register 7
1250:.\Generated_Source\PSoC5/CyLib.c ****     return(CY_CLK_XTAL32_CR_REG & CY_XTAL32K_ANA_STAT);
 2166              		.loc 1 1250 0
 2167 0004 054B     		ldr	r3, .L161
 2168 0006 1B78     		ldrb	r3, [r3]
 2169 0008 DBB2     		uxtb	r3, r3
 2170 000a 03F02003 		and	r3, r3, #32
 2171 000e DBB2     		uxtb	r3, r3
1251:.\Generated_Source\PSoC5/CyLib.c **** }
 2172              		.loc 1 1251 0
 2173 0010 1846     		mov	r0, r3
 2174 0012 BD46     		mov	sp, r7
 2175              		.cfi_def_cfa_register 13
 2176              		@ sp needed
 2177 0014 5DF8047B 		ldr	r7, [sp], #4
 2178              		.cfi_restore 7
 2179              		.cfi_def_cfa_offset 0
 2180 0018 7047     		bx	lr
 2181              	.L162:
 2182 001a 00BF     		.align	2
 2183              	.L161:
 2184 001c 08430040 		.word	1073758984
 2185              		.cfi_endproc
 2186              	.LFE27:
 2187              		.size	CyXTAL_32KHZ_ReadStatus, .-CyXTAL_32KHZ_ReadStatus
 2188              		.section	.text.CyXTAL_32KHZ_SetPowerMode,"ax",%progbits
 2189              		.align	2
 2190              		.global	CyXTAL_32KHZ_SetPowerMode
 2191              		.thumb
 2192              		.thumb_func
 2193              		.type	CyXTAL_32KHZ_SetPowerMode, %function
 2194              	CyXTAL_32KHZ_SetPowerMode:
 2195              	.LFB28:
1252:.\Generated_Source\PSoC5/CyLib.c **** 
1253:.\Generated_Source\PSoC5/CyLib.c **** 
1254:.\Generated_Source\PSoC5/CyLib.c **** /*******************************************************************************
1255:.\Generated_Source\PSoC5/CyLib.c **** * Function Name: CyXTAL_32KHZ_SetPowerMode
1256:.\Generated_Source\PSoC5/CyLib.c **** ********************************************************************************
1257:.\Generated_Source\PSoC5/CyLib.c **** *
1258:.\Generated_Source\PSoC5/CyLib.c **** * Summary:
1259:.\Generated_Source\PSoC5/CyLib.c **** *  Sets the power mode for the 32 KHz oscillator used during sleep mode.
1260:.\Generated_Source\PSoC5/CyLib.c **** *  Allows for lower power during sleep when there are fewer sources of noise.
1261:.\Generated_Source\PSoC5/CyLib.c **** *  During active mode the oscillator is always run in high power mode.
1262:.\Generated_Source\PSoC5/CyLib.c **** *
1263:.\Generated_Source\PSoC5/CyLib.c **** * Parameters:
1264:.\Generated_Source\PSoC5/CyLib.c **** *  uint8 mode
1265:.\Generated_Source\PSoC5/CyLib.c **** *       0: High power mode
1266:.\Generated_Source\PSoC5/CyLib.c **** *       1: Low power mode during sleep
1267:.\Generated_Source\PSoC5/CyLib.c **** *
1268:.\Generated_Source\PSoC5/CyLib.c **** * Return:
1269:.\Generated_Source\PSoC5/CyLib.c **** *  Previous power mode.
1270:.\Generated_Source\PSoC5/CyLib.c **** *
1271:.\Generated_Source\PSoC5/CyLib.c **** *******************************************************************************/
1272:.\Generated_Source\PSoC5/CyLib.c **** uint8 CyXTAL_32KHZ_SetPowerMode(uint8 mode) 
1273:.\Generated_Source\PSoC5/CyLib.c **** {
 2196              		.loc 1 1273 0
ARM GAS  C:\Users\Rolando\AppData\Local\Temp\ccmqTZg9.s 			page 62


 2197              		.cfi_startproc
 2198              		@ args = 0, pretend = 0, frame = 16
 2199              		@ frame_needed = 1, uses_anonymous_args = 0
 2200 0000 80B5     		push	{r7, lr}
 2201              		.cfi_def_cfa_offset 8
 2202              		.cfi_offset 7, -8
 2203              		.cfi_offset 14, -4
 2204 0002 84B0     		sub	sp, sp, #16
 2205              		.cfi_def_cfa_offset 24
 2206 0004 00AF     		add	r7, sp, #0
 2207              		.cfi_def_cfa_register 7
 2208 0006 0346     		mov	r3, r0
 2209 0008 FB71     		strb	r3, [r7, #7]
1274:.\Generated_Source\PSoC5/CyLib.c ****     uint8 state = (0u != (CY_CLK_XTAL32_CR_REG & CY_CLK_XTAL32_CR_LPM)) ? 1u : 0u;
 2210              		.loc 1 1274 0
 2211 000a 264B     		ldr	r3, .L169
 2212 000c 1B78     		ldrb	r3, [r3]
 2213 000e DBB2     		uxtb	r3, r3
 2214 0010 03F00203 		and	r3, r3, #2
 2215 0014 002B     		cmp	r3, #0
 2216 0016 01D0     		beq	.L164
 2217              		.loc 1 1274 0 is_stmt 0 discriminator 1
 2218 0018 0123     		movs	r3, #1
 2219 001a 00E0     		b	.L165
 2220              	.L164:
 2221              		.loc 1 1274 0 discriminator 2
 2222 001c 0023     		movs	r3, #0
 2223              	.L165:
 2224              		.loc 1 1274 0 discriminator 4
 2225 001e FB73     		strb	r3, [r7, #15]
1275:.\Generated_Source\PSoC5/CyLib.c **** 
1276:.\Generated_Source\PSoC5/CyLib.c ****     CY_CLK_XTAL32_TST_REG = CY_CLK_XTAL32_TST_DEFAULT;
 2226              		.loc 1 1276 0 is_stmt 1 discriminator 4
 2227 0020 214B     		ldr	r3, .L169+4
 2228 0022 F322     		movs	r2, #243
 2229 0024 1A70     		strb	r2, [r3]
1277:.\Generated_Source\PSoC5/CyLib.c **** 
1278:.\Generated_Source\PSoC5/CyLib.c ****     if(1u == mode)
 2230              		.loc 1 1278 0 discriminator 4
 2231 0026 FB79     		ldrb	r3, [r7, #7]	@ zero_extendqisi2
 2232 0028 012B     		cmp	r3, #1
 2233 002a 1CD1     		bne	.L166
1279:.\Generated_Source\PSoC5/CyLib.c ****     {
1280:.\Generated_Source\PSoC5/CyLib.c ****         /* Low power mode during Sleep */
1281:.\Generated_Source\PSoC5/CyLib.c ****         CY_CLK_XTAL32_TR_REG  = CY_CLK_XTAL32_TR_LOW_POWER;
 2234              		.loc 1 1281 0
 2235 002c 1F4B     		ldr	r3, .L169+8
 2236 002e 0122     		movs	r2, #1
 2237 0030 1A70     		strb	r2, [r3]
1282:.\Generated_Source\PSoC5/CyLib.c ****         CyDelayUs(10u);
 2238              		.loc 1 1282 0
 2239 0032 0A20     		movs	r0, #10
 2240 0034 FFF7FEFF 		bl	CyDelayUs
1283:.\Generated_Source\PSoC5/CyLib.c ****         CY_CLK_XTAL32_CFG_REG = (CY_CLK_XTAL32_CFG_REG & ((uint8)(~CY_CLK_XTAL32_CFG_LP_MASK))) |
 2241              		.loc 1 1283 0
 2242 0038 1D4A     		ldr	r2, .L169+12
 2243 003a 1D4B     		ldr	r3, .L169+12
ARM GAS  C:\Users\Rolando\AppData\Local\Temp\ccmqTZg9.s 			page 63


 2244 003c 1B78     		ldrb	r3, [r3]
 2245 003e DBB2     		uxtb	r3, r3
 2246 0040 23F00C03 		bic	r3, r3, #12
 2247 0044 DBB2     		uxtb	r3, r3
 2248 0046 43F00803 		orr	r3, r3, #8
 2249 004a DBB2     		uxtb	r3, r3
 2250 004c 1370     		strb	r3, [r2]
1284:.\Generated_Source\PSoC5/CyLib.c ****                                 CY_CLK_XTAL32_CFG_LP_LOWPOWER;
1285:.\Generated_Source\PSoC5/CyLib.c ****         CyDelayUs(20u);
 2251              		.loc 1 1285 0
 2252 004e 1420     		movs	r0, #20
 2253 0050 FFF7FEFF 		bl	CyDelayUs
1286:.\Generated_Source\PSoC5/CyLib.c ****         CY_CLK_XTAL32_CR_REG |= CY_CLK_XTAL32_CR_LPM;
 2254              		.loc 1 1286 0
 2255 0054 134A     		ldr	r2, .L169
 2256 0056 134B     		ldr	r3, .L169
 2257 0058 1B78     		ldrb	r3, [r3]
 2258 005a DBB2     		uxtb	r3, r3
 2259 005c 43F00203 		orr	r3, r3, #2
 2260 0060 DBB2     		uxtb	r3, r3
 2261 0062 1370     		strb	r3, [r2]
 2262 0064 18E0     		b	.L167
 2263              	.L166:
1287:.\Generated_Source\PSoC5/CyLib.c ****     }
1288:.\Generated_Source\PSoC5/CyLib.c ****     else
1289:.\Generated_Source\PSoC5/CyLib.c ****     {
1290:.\Generated_Source\PSoC5/CyLib.c ****         /* High power mode */
1291:.\Generated_Source\PSoC5/CyLib.c ****         CY_CLK_XTAL32_TR_REG  = CY_CLK_XTAL32_TR_HIGH_POWER;
 2264              		.loc 1 1291 0
 2265 0066 114B     		ldr	r3, .L169+8
 2266 0068 0622     		movs	r2, #6
 2267 006a 1A70     		strb	r2, [r3]
1292:.\Generated_Source\PSoC5/CyLib.c ****         CyDelayUs(10u);
 2268              		.loc 1 1292 0
 2269 006c 0A20     		movs	r0, #10
 2270 006e FFF7FEFF 		bl	CyDelayUs
1293:.\Generated_Source\PSoC5/CyLib.c ****         CY_CLK_XTAL32_CFG_REG = (CY_CLK_XTAL32_CFG_REG & ((uint8)(~CY_CLK_XTAL32_CFG_LP_MASK))) |
 2271              		.loc 1 1293 0
 2272 0072 0F4A     		ldr	r2, .L169+12
 2273 0074 0E4B     		ldr	r3, .L169+12
 2274 0076 1B78     		ldrb	r3, [r3]
 2275 0078 DBB2     		uxtb	r3, r3
 2276 007a 23F00C03 		bic	r3, r3, #12
 2277 007e DBB2     		uxtb	r3, r3
 2278 0080 43F00403 		orr	r3, r3, #4
 2279 0084 DBB2     		uxtb	r3, r3
 2280 0086 1370     		strb	r3, [r2]
1294:.\Generated_Source\PSoC5/CyLib.c ****                                 CY_CLK_XTAL32_CFG_LP_DEFAULT;
1295:.\Generated_Source\PSoC5/CyLib.c ****         CY_CLK_XTAL32_CR_REG &= ((uint8)(~CY_CLK_XTAL32_CR_LPM));
 2281              		.loc 1 1295 0
 2282 0088 064A     		ldr	r2, .L169
 2283 008a 064B     		ldr	r3, .L169
 2284 008c 1B78     		ldrb	r3, [r3]
 2285 008e DBB2     		uxtb	r3, r3
 2286 0090 23F00203 		bic	r3, r3, #2
 2287 0094 DBB2     		uxtb	r3, r3
 2288 0096 1370     		strb	r3, [r2]
ARM GAS  C:\Users\Rolando\AppData\Local\Temp\ccmqTZg9.s 			page 64


 2289              	.L167:
1296:.\Generated_Source\PSoC5/CyLib.c ****     }
1297:.\Generated_Source\PSoC5/CyLib.c **** 
1298:.\Generated_Source\PSoC5/CyLib.c ****     return(state);
 2290              		.loc 1 1298 0
 2291 0098 FB7B     		ldrb	r3, [r7, #15]	@ zero_extendqisi2
1299:.\Generated_Source\PSoC5/CyLib.c **** }
 2292              		.loc 1 1299 0
 2293 009a 1846     		mov	r0, r3
 2294 009c 1037     		adds	r7, r7, #16
 2295              		.cfi_def_cfa_offset 8
 2296 009e BD46     		mov	sp, r7
 2297              		.cfi_def_cfa_register 13
 2298              		@ sp needed
 2299 00a0 80BD     		pop	{r7, pc}
 2300              	.L170:
 2301 00a2 00BF     		.align	2
 2302              	.L169:
 2303 00a4 08430040 		.word	1073758984
 2304 00a8 0A430040 		.word	1073758986
 2305 00ac 98460040 		.word	1073759896
 2306 00b0 09430040 		.word	1073758985
 2307              		.cfi_endproc
 2308              	.LFE28:
 2309              		.size	CyXTAL_32KHZ_SetPowerMode, .-CyXTAL_32KHZ_SetPowerMode
 2310              		.section	.text.CyXTAL_Start,"ax",%progbits
 2311              		.align	2
 2312              		.global	CyXTAL_Start
 2313              		.thumb
 2314              		.thumb_func
 2315              		.type	CyXTAL_Start, %function
 2316              	CyXTAL_Start:
 2317              	.LFB29:
1300:.\Generated_Source\PSoC5/CyLib.c **** 
1301:.\Generated_Source\PSoC5/CyLib.c **** 
1302:.\Generated_Source\PSoC5/CyLib.c **** /*******************************************************************************
1303:.\Generated_Source\PSoC5/CyLib.c **** * Function Name: CyXTAL_Start
1304:.\Generated_Source\PSoC5/CyLib.c **** ********************************************************************************
1305:.\Generated_Source\PSoC5/CyLib.c **** *
1306:.\Generated_Source\PSoC5/CyLib.c **** * Summary:
1307:.\Generated_Source\PSoC5/CyLib.c **** *  Enables the megahertz crystal.
1308:.\Generated_Source\PSoC5/CyLib.c **** *
1309:.\Generated_Source\PSoC5/CyLib.c **** *  PSoC 3:
1310:.\Generated_Source\PSoC5/CyLib.c **** *  Waits until the XERR bit is low (no error) for a millisecond or until the
1311:.\Generated_Source\PSoC5/CyLib.c **** *  number of milliseconds specified by the wait parameter has expired.
1312:.\Generated_Source\PSoC5/CyLib.c **** *
1313:.\Generated_Source\PSoC5/CyLib.c **** * Parameters:
1314:.\Generated_Source\PSoC5/CyLib.c **** *   wait: Valid range [0-255].
1315:.\Generated_Source\PSoC5/CyLib.c **** *   This is the timeout value in milliseconds.
1316:.\Generated_Source\PSoC5/CyLib.c **** *   The appropriate value is crystal specific.
1317:.\Generated_Source\PSoC5/CyLib.c **** *
1318:.\Generated_Source\PSoC5/CyLib.c **** * Return:
1319:.\Generated_Source\PSoC5/CyLib.c **** *   CYRET_SUCCESS - Completed successfully
1320:.\Generated_Source\PSoC5/CyLib.c **** *   CYRET_TIMEOUT - Timeout occurred without detecting a low value on XERR.
1321:.\Generated_Source\PSoC5/CyLib.c **** *
1322:.\Generated_Source\PSoC5/CyLib.c **** * Side Effects and Restrictions:
1323:.\Generated_Source\PSoC5/CyLib.c **** *  If wait is enabled (non-zero wait). Uses the Fast Timewheel to time the wait.
ARM GAS  C:\Users\Rolando\AppData\Local\Temp\ccmqTZg9.s 			page 65


1324:.\Generated_Source\PSoC5/CyLib.c **** *  Any other use of the Fast Timewheel (FTW) will be stopped during the period
1325:.\Generated_Source\PSoC5/CyLib.c **** *  of this function and then restored.
1326:.\Generated_Source\PSoC5/CyLib.c **** *
1327:.\Generated_Source\PSoC5/CyLib.c **** *  Uses the 100KHz ILO.  If not enabled, this function will enable the 100KHz
1328:.\Generated_Source\PSoC5/CyLib.c **** *  ILO for the period of this function. No changes to the setup of the ILO,
1329:.\Generated_Source\PSoC5/CyLib.c **** *  Fast Timewheel, Central Timewheel or Once Per Second interrupt may be made
1330:.\Generated_Source\PSoC5/CyLib.c **** *  by interrupt routines during the period of this function.
1331:.\Generated_Source\PSoC5/CyLib.c **** *
1332:.\Generated_Source\PSoC5/CyLib.c **** *  The current operation of the ILO, Central Timewheel and Once Per Second
1333:.\Generated_Source\PSoC5/CyLib.c **** *  interrupt are maintained during the operation of this function provided the
1334:.\Generated_Source\PSoC5/CyLib.c **** *  reading of the Power Manager Interrupt Status Register is only done using the
1335:.\Generated_Source\PSoC5/CyLib.c **** *  CyPmReadStatus() function.
1336:.\Generated_Source\PSoC5/CyLib.c **** *
1337:.\Generated_Source\PSoC5/CyLib.c **** *******************************************************************************/
1338:.\Generated_Source\PSoC5/CyLib.c **** cystatus CyXTAL_Start(uint8 wait) 
1339:.\Generated_Source\PSoC5/CyLib.c **** {
 2318              		.loc 1 1339 0
 2319              		.cfi_startproc
 2320              		@ args = 0, pretend = 0, frame = 24
 2321              		@ frame_needed = 1, uses_anonymous_args = 0
 2322 0000 80B5     		push	{r7, lr}
 2323              		.cfi_def_cfa_offset 8
 2324              		.cfi_offset 7, -8
 2325              		.cfi_offset 14, -4
 2326 0002 86B0     		sub	sp, sp, #24
 2327              		.cfi_def_cfa_offset 32
 2328 0004 00AF     		add	r7, sp, #0
 2329              		.cfi_def_cfa_register 7
 2330 0006 0346     		mov	r3, r0
 2331 0008 FB71     		strb	r3, [r7, #7]
1340:.\Generated_Source\PSoC5/CyLib.c ****     cystatus status = CYRET_SUCCESS;
 2332              		.loc 1 1340 0
 2333 000a 0023     		movs	r3, #0
 2334 000c 7B61     		str	r3, [r7, #20]
1341:.\Generated_Source\PSoC5/CyLib.c ****     volatile uint8  timeout = wait;
 2335              		.loc 1 1341 0
 2336 000e FB79     		ldrb	r3, [r7, #7]
 2337 0010 3B74     		strb	r3, [r7, #16]
1342:.\Generated_Source\PSoC5/CyLib.c ****     volatile uint8 count;
1343:.\Generated_Source\PSoC5/CyLib.c ****     uint8 iloEnableState;
1344:.\Generated_Source\PSoC5/CyLib.c ****     uint8 pmTwCfg0Tmp;
1345:.\Generated_Source\PSoC5/CyLib.c ****     uint8 pmTwCfg2Tmp;
1346:.\Generated_Source\PSoC5/CyLib.c **** 
1347:.\Generated_Source\PSoC5/CyLib.c **** 
1348:.\Generated_Source\PSoC5/CyLib.c ****     /* Enables the MHz crystal oscillator circuit  */
1349:.\Generated_Source\PSoC5/CyLib.c ****     CY_CLK_XMHZ_CSR_REG |= CY_CLK_XMHZ_CSR_ENABLE;
 2338              		.loc 1 1349 0
 2339 0012 2B4A     		ldr	r2, .L182
 2340 0014 2A4B     		ldr	r3, .L182
 2341 0016 1B78     		ldrb	r3, [r3]
 2342 0018 DBB2     		uxtb	r3, r3
 2343 001a 43F00103 		orr	r3, r3, #1
 2344 001e DBB2     		uxtb	r3, r3
 2345 0020 1370     		strb	r3, [r2]
1350:.\Generated_Source\PSoC5/CyLib.c **** 
1351:.\Generated_Source\PSoC5/CyLib.c **** 
1352:.\Generated_Source\PSoC5/CyLib.c ****     if(wait > 0u)
ARM GAS  C:\Users\Rolando\AppData\Local\Temp\ccmqTZg9.s 			page 66


 2346              		.loc 1 1352 0
 2347 0022 FB79     		ldrb	r3, [r7, #7]	@ zero_extendqisi2
 2348 0024 002B     		cmp	r3, #0
 2349 0026 46D0     		beq	.L172
1353:.\Generated_Source\PSoC5/CyLib.c ****     {
1354:.\Generated_Source\PSoC5/CyLib.c ****         /* Save 100 KHz ILO, FTW interval, enable and interrupt enable */
1355:.\Generated_Source\PSoC5/CyLib.c ****         iloEnableState = CY_LIB_SLOWCLK_ILO_CR0_REG;
 2350              		.loc 1 1355 0
 2351 0028 264B     		ldr	r3, .L182+4
 2352 002a 1B78     		ldrb	r3, [r3]
 2353 002c FB74     		strb	r3, [r7, #19]
1356:.\Generated_Source\PSoC5/CyLib.c ****         pmTwCfg0Tmp = CY_LIB_PM_TW_CFG0_REG;
 2354              		.loc 1 1356 0
 2355 002e 264B     		ldr	r3, .L182+8
 2356 0030 1B78     		ldrb	r3, [r3]
 2357 0032 BB74     		strb	r3, [r7, #18]
1357:.\Generated_Source\PSoC5/CyLib.c ****         pmTwCfg2Tmp = CY_LIB_PM_TW_CFG2_REG;
 2358              		.loc 1 1357 0
 2359 0034 254B     		ldr	r3, .L182+12
 2360 0036 1B78     		ldrb	r3, [r3]
 2361 0038 7B74     		strb	r3, [r7, #17]
1358:.\Generated_Source\PSoC5/CyLib.c **** 
1359:.\Generated_Source\PSoC5/CyLib.c ****         /* Set 250 us interval */
1360:.\Generated_Source\PSoC5/CyLib.c ****         CyPmFtwSetInterval(CY_CLK_XMHZ_FTW_INTERVAL);
 2362              		.loc 1 1360 0
 2363 003a 1820     		movs	r0, #24
 2364 003c FFF7FEFF 		bl	CyPmFtwSetInterval
1361:.\Generated_Source\PSoC5/CyLib.c ****         status = CYRET_TIMEOUT;
 2365              		.loc 1 1361 0
 2366 0040 1023     		movs	r3, #16
 2367 0042 7B61     		str	r3, [r7, #20]
1362:.\Generated_Source\PSoC5/CyLib.c **** 
1363:.\Generated_Source\PSoC5/CyLib.c **** 
1364:.\Generated_Source\PSoC5/CyLib.c ****         for( ; timeout > 0u; timeout--)
 2368              		.loc 1 1364 0
 2369 0044 26E0     		b	.L173
 2370              	.L179:
1365:.\Generated_Source\PSoC5/CyLib.c ****         {
1366:.\Generated_Source\PSoC5/CyLib.c ****             /* Read XERR bit to clear it */
1367:.\Generated_Source\PSoC5/CyLib.c ****             (void) CY_CLK_XMHZ_CSR_REG;
 2371              		.loc 1 1367 0
 2372 0046 1E4B     		ldr	r3, .L182
 2373 0048 1B78     		ldrb	r3, [r3]
1368:.\Generated_Source\PSoC5/CyLib.c **** 
1369:.\Generated_Source\PSoC5/CyLib.c ****             /* Wait for a millisecond - 4 x 250 us */
1370:.\Generated_Source\PSoC5/CyLib.c ****             for(count = 4u; count > 0u; count--)
 2374              		.loc 1 1370 0
 2375 004a 0423     		movs	r3, #4
 2376 004c FB73     		strb	r3, [r7, #15]
 2377 004e 0EE0     		b	.L174
 2378              	.L176:
1371:.\Generated_Source\PSoC5/CyLib.c ****             {
1372:.\Generated_Source\PSoC5/CyLib.c ****                 while(0u == (CY_PM_FTW_INT & CyPmReadStatus(CY_PM_FTW_INT)))
 2379              		.loc 1 1372 0
 2380 0050 00BF     		nop
 2381              	.L175:
 2382              		.loc 1 1372 0 is_stmt 0 discriminator 1
ARM GAS  C:\Users\Rolando\AppData\Local\Temp\ccmqTZg9.s 			page 67


 2383 0052 0120     		movs	r0, #1
 2384 0054 FFF7FEFF 		bl	CyPmReadStatus
 2385 0058 0346     		mov	r3, r0
 2386 005a 03F00103 		and	r3, r3, #1
 2387 005e DBB2     		uxtb	r3, r3
 2388 0060 002B     		cmp	r3, #0
 2389 0062 F6D0     		beq	.L175
1370:.\Generated_Source\PSoC5/CyLib.c ****             {
 2390              		.loc 1 1370 0 is_stmt 1 discriminator 2
 2391 0064 FB7B     		ldrb	r3, [r7, #15]
 2392 0066 DBB2     		uxtb	r3, r3
 2393 0068 013B     		subs	r3, r3, #1
 2394 006a DBB2     		uxtb	r3, r3
 2395 006c FB73     		strb	r3, [r7, #15]
 2396              	.L174:
1370:.\Generated_Source\PSoC5/CyLib.c ****             {
 2397              		.loc 1 1370 0 is_stmt 0 discriminator 1
 2398 006e FB7B     		ldrb	r3, [r7, #15]
 2399 0070 DBB2     		uxtb	r3, r3
 2400 0072 002B     		cmp	r3, #0
 2401 0074 ECD1     		bne	.L176
1373:.\Generated_Source\PSoC5/CyLib.c ****                 {
1374:.\Generated_Source\PSoC5/CyLib.c ****                     /* Wait for the FTW interrupt event */
1375:.\Generated_Source\PSoC5/CyLib.c ****                 }
1376:.\Generated_Source\PSoC5/CyLib.c ****             }
1377:.\Generated_Source\PSoC5/CyLib.c **** 
1378:.\Generated_Source\PSoC5/CyLib.c **** 
1379:.\Generated_Source\PSoC5/CyLib.c ****             /*******************************************************************
1380:.\Generated_Source\PSoC5/CyLib.c ****             * High output indicates oscillator failure.
1381:.\Generated_Source\PSoC5/CyLib.c ****             * Only can be used after start-up interval (1 ms) is completed.
1382:.\Generated_Source\PSoC5/CyLib.c ****             *******************************************************************/
1383:.\Generated_Source\PSoC5/CyLib.c ****             if(0u == (CY_CLK_XMHZ_CSR_REG & CY_CLK_XMHZ_CSR_XERR))
 2402              		.loc 1 1383 0 is_stmt 1
 2403 0076 124B     		ldr	r3, .L182
 2404 0078 1B78     		ldrb	r3, [r3]
 2405 007a DBB2     		uxtb	r3, r3
 2406 007c DBB2     		uxtb	r3, r3
 2407 007e 5BB2     		sxtb	r3, r3
 2408 0080 002B     		cmp	r3, #0
 2409 0082 02DB     		blt	.L177
1384:.\Generated_Source\PSoC5/CyLib.c ****             {
1385:.\Generated_Source\PSoC5/CyLib.c ****                 status = CYRET_SUCCESS;
 2410              		.loc 1 1385 0
 2411 0084 0023     		movs	r3, #0
 2412 0086 7B61     		str	r3, [r7, #20]
1386:.\Generated_Source\PSoC5/CyLib.c ****                 break;
 2413              		.loc 1 1386 0
 2414 0088 08E0     		b	.L178
 2415              	.L177:
1364:.\Generated_Source\PSoC5/CyLib.c ****         {
 2416              		.loc 1 1364 0
 2417 008a 3B7C     		ldrb	r3, [r7, #16]
 2418 008c DBB2     		uxtb	r3, r3
 2419 008e 013B     		subs	r3, r3, #1
 2420 0090 DBB2     		uxtb	r3, r3
 2421 0092 3B74     		strb	r3, [r7, #16]
 2422              	.L173:
ARM GAS  C:\Users\Rolando\AppData\Local\Temp\ccmqTZg9.s 			page 68


1364:.\Generated_Source\PSoC5/CyLib.c ****         {
 2423              		.loc 1 1364 0 is_stmt 0 discriminator 1
 2424 0094 3B7C     		ldrb	r3, [r7, #16]
 2425 0096 DBB2     		uxtb	r3, r3
 2426 0098 002B     		cmp	r3, #0
 2427 009a D4D1     		bne	.L179
 2428              	.L178:
1387:.\Generated_Source\PSoC5/CyLib.c ****             }
1388:.\Generated_Source\PSoC5/CyLib.c ****         }
1389:.\Generated_Source\PSoC5/CyLib.c **** 
1390:.\Generated_Source\PSoC5/CyLib.c **** 
1391:.\Generated_Source\PSoC5/CyLib.c ****         /* Restore 100 KHz ILO, FTW interval, enable and interrupt enable */
1392:.\Generated_Source\PSoC5/CyLib.c ****         if(0u == (iloEnableState & CY_LIB_SLOWCLK_ILO_CR0_EN_100KHZ))
 2429              		.loc 1 1392 0 is_stmt 1
 2430 009c FB7C     		ldrb	r3, [r7, #19]	@ zero_extendqisi2
 2431 009e 03F00403 		and	r3, r3, #4
 2432 00a2 002B     		cmp	r3, #0
 2433 00a4 01D1     		bne	.L180
1393:.\Generated_Source\PSoC5/CyLib.c ****         {
1394:.\Generated_Source\PSoC5/CyLib.c ****             CyILO_Stop100K();
 2434              		.loc 1 1394 0
 2435 00a6 FFF7FEFF 		bl	CyILO_Stop100K
 2436              	.L180:
1395:.\Generated_Source\PSoC5/CyLib.c ****         }
1396:.\Generated_Source\PSoC5/CyLib.c ****         CY_LIB_PM_TW_CFG0_REG = pmTwCfg0Tmp;
 2437              		.loc 1 1396 0
 2438 00aa 074A     		ldr	r2, .L182+8
 2439 00ac BB7C     		ldrb	r3, [r7, #18]
 2440 00ae 1370     		strb	r3, [r2]
1397:.\Generated_Source\PSoC5/CyLib.c ****         CY_LIB_PM_TW_CFG2_REG = pmTwCfg2Tmp;
 2441              		.loc 1 1397 0
 2442 00b0 064A     		ldr	r2, .L182+12
 2443 00b2 7B7C     		ldrb	r3, [r7, #17]
 2444 00b4 1370     		strb	r3, [r2]
 2445              	.L172:
1398:.\Generated_Source\PSoC5/CyLib.c ****     }
1399:.\Generated_Source\PSoC5/CyLib.c **** 
1400:.\Generated_Source\PSoC5/CyLib.c ****     return(status);
 2446              		.loc 1 1400 0
 2447 00b6 7B69     		ldr	r3, [r7, #20]
1401:.\Generated_Source\PSoC5/CyLib.c **** }
 2448              		.loc 1 1401 0
 2449 00b8 1846     		mov	r0, r3
 2450 00ba 1837     		adds	r7, r7, #24
 2451              		.cfi_def_cfa_offset 8
 2452 00bc BD46     		mov	sp, r7
 2453              		.cfi_def_cfa_register 13
 2454              		@ sp needed
 2455 00be 80BD     		pop	{r7, pc}
 2456              	.L183:
 2457              		.align	2
 2458              	.L182:
 2459 00c0 10420040 		.word	1073758736
 2460 00c4 00430040 		.word	1073758976
 2461 00c8 80430040 		.word	1073759104
 2462 00cc 82430040 		.word	1073759106
 2463              		.cfi_endproc
ARM GAS  C:\Users\Rolando\AppData\Local\Temp\ccmqTZg9.s 			page 69


 2464              	.LFE29:
 2465              		.size	CyXTAL_Start, .-CyXTAL_Start
 2466              		.section	.text.CyXTAL_Stop,"ax",%progbits
 2467              		.align	2
 2468              		.global	CyXTAL_Stop
 2469              		.thumb
 2470              		.thumb_func
 2471              		.type	CyXTAL_Stop, %function
 2472              	CyXTAL_Stop:
 2473              	.LFB30:
1402:.\Generated_Source\PSoC5/CyLib.c **** 
1403:.\Generated_Source\PSoC5/CyLib.c **** 
1404:.\Generated_Source\PSoC5/CyLib.c **** /*******************************************************************************
1405:.\Generated_Source\PSoC5/CyLib.c **** * Function Name: CyXTAL_Stop
1406:.\Generated_Source\PSoC5/CyLib.c **** ********************************************************************************
1407:.\Generated_Source\PSoC5/CyLib.c **** *
1408:.\Generated_Source\PSoC5/CyLib.c **** * Summary:
1409:.\Generated_Source\PSoC5/CyLib.c **** *  Disables the megahertz crystal oscillator.
1410:.\Generated_Source\PSoC5/CyLib.c **** *
1411:.\Generated_Source\PSoC5/CyLib.c **** * Parameters:
1412:.\Generated_Source\PSoC5/CyLib.c **** *  None
1413:.\Generated_Source\PSoC5/CyLib.c **** *
1414:.\Generated_Source\PSoC5/CyLib.c **** * Return:
1415:.\Generated_Source\PSoC5/CyLib.c **** *  None
1416:.\Generated_Source\PSoC5/CyLib.c **** *
1417:.\Generated_Source\PSoC5/CyLib.c **** *******************************************************************************/
1418:.\Generated_Source\PSoC5/CyLib.c **** void CyXTAL_Stop(void) 
1419:.\Generated_Source\PSoC5/CyLib.c **** {
 2474              		.loc 1 1419 0
 2475              		.cfi_startproc
 2476              		@ args = 0, pretend = 0, frame = 0
 2477              		@ frame_needed = 1, uses_anonymous_args = 0
 2478              		@ link register save eliminated.
 2479 0000 80B4     		push	{r7}
 2480              		.cfi_def_cfa_offset 4
 2481              		.cfi_offset 7, -4
 2482 0002 00AF     		add	r7, sp, #0
 2483              		.cfi_def_cfa_register 7
1420:.\Generated_Source\PSoC5/CyLib.c ****     /* Disable the the oscillator. */
1421:.\Generated_Source\PSoC5/CyLib.c ****     FASTCLK_XMHZ_CSR &= ((uint8)(~XMHZ_CONTROL_ENABLE));
 2484              		.loc 1 1421 0
 2485 0004 054A     		ldr	r2, .L185
 2486 0006 054B     		ldr	r3, .L185
 2487 0008 1B78     		ldrb	r3, [r3]
 2488 000a DBB2     		uxtb	r3, r3
 2489 000c 23F00103 		bic	r3, r3, #1
 2490 0010 DBB2     		uxtb	r3, r3
 2491 0012 1370     		strb	r3, [r2]
1422:.\Generated_Source\PSoC5/CyLib.c **** }
 2492              		.loc 1 1422 0
 2493 0014 BD46     		mov	sp, r7
 2494              		.cfi_def_cfa_register 13
 2495              		@ sp needed
 2496 0016 5DF8047B 		ldr	r7, [sp], #4
 2497              		.cfi_restore 7
 2498              		.cfi_def_cfa_offset 0
 2499 001a 7047     		bx	lr
ARM GAS  C:\Users\Rolando\AppData\Local\Temp\ccmqTZg9.s 			page 70


 2500              	.L186:
 2501              		.align	2
 2502              	.L185:
 2503 001c 10420040 		.word	1073758736
 2504              		.cfi_endproc
 2505              	.LFE30:
 2506              		.size	CyXTAL_Stop, .-CyXTAL_Stop
 2507              		.section	.text.CyXTAL_EnableErrStatus,"ax",%progbits
 2508              		.align	2
 2509              		.global	CyXTAL_EnableErrStatus
 2510              		.thumb
 2511              		.thumb_func
 2512              		.type	CyXTAL_EnableErrStatus, %function
 2513              	CyXTAL_EnableErrStatus:
 2514              	.LFB31:
1423:.\Generated_Source\PSoC5/CyLib.c **** 
1424:.\Generated_Source\PSoC5/CyLib.c **** 
1425:.\Generated_Source\PSoC5/CyLib.c **** /*******************************************************************************
1426:.\Generated_Source\PSoC5/CyLib.c **** * Function Name: CyXTAL_EnableErrStatus
1427:.\Generated_Source\PSoC5/CyLib.c **** ********************************************************************************
1428:.\Generated_Source\PSoC5/CyLib.c **** *
1429:.\Generated_Source\PSoC5/CyLib.c **** * Summary:
1430:.\Generated_Source\PSoC5/CyLib.c **** *  Enables the generation of the XERR status bit for the megahertz crystal.
1431:.\Generated_Source\PSoC5/CyLib.c **** *  This function is not available for PSoC5.
1432:.\Generated_Source\PSoC5/CyLib.c **** *
1433:.\Generated_Source\PSoC5/CyLib.c **** * Parameters:
1434:.\Generated_Source\PSoC5/CyLib.c **** *  None
1435:.\Generated_Source\PSoC5/CyLib.c **** *
1436:.\Generated_Source\PSoC5/CyLib.c **** * Return:
1437:.\Generated_Source\PSoC5/CyLib.c **** *  None
1438:.\Generated_Source\PSoC5/CyLib.c **** *
1439:.\Generated_Source\PSoC5/CyLib.c **** *******************************************************************************/
1440:.\Generated_Source\PSoC5/CyLib.c **** void CyXTAL_EnableErrStatus(void) 
1441:.\Generated_Source\PSoC5/CyLib.c **** {
 2515              		.loc 1 1441 0
 2516              		.cfi_startproc
 2517              		@ args = 0, pretend = 0, frame = 0
 2518              		@ frame_needed = 1, uses_anonymous_args = 0
 2519              		@ link register save eliminated.
 2520 0000 80B4     		push	{r7}
 2521              		.cfi_def_cfa_offset 4
 2522              		.cfi_offset 7, -4
 2523 0002 00AF     		add	r7, sp, #0
 2524              		.cfi_def_cfa_register 7
1442:.\Generated_Source\PSoC5/CyLib.c ****     /* If oscillator has insufficient amplitude, XERR bit will be high. */
1443:.\Generated_Source\PSoC5/CyLib.c ****     CY_CLK_XMHZ_CSR_REG &= ((uint8)(~CY_CLK_XMHZ_CSR_XFB));
 2525              		.loc 1 1443 0
 2526 0004 054A     		ldr	r2, .L188
 2527 0006 054B     		ldr	r3, .L188
 2528 0008 1B78     		ldrb	r3, [r3]
 2529 000a DBB2     		uxtb	r3, r3
 2530 000c 23F00403 		bic	r3, r3, #4
 2531 0010 DBB2     		uxtb	r3, r3
 2532 0012 1370     		strb	r3, [r2]
1444:.\Generated_Source\PSoC5/CyLib.c **** }
 2533              		.loc 1 1444 0
 2534 0014 BD46     		mov	sp, r7
ARM GAS  C:\Users\Rolando\AppData\Local\Temp\ccmqTZg9.s 			page 71


 2535              		.cfi_def_cfa_register 13
 2536              		@ sp needed
 2537 0016 5DF8047B 		ldr	r7, [sp], #4
 2538              		.cfi_restore 7
 2539              		.cfi_def_cfa_offset 0
 2540 001a 7047     		bx	lr
 2541              	.L189:
 2542              		.align	2
 2543              	.L188:
 2544 001c 10420040 		.word	1073758736
 2545              		.cfi_endproc
 2546              	.LFE31:
 2547              		.size	CyXTAL_EnableErrStatus, .-CyXTAL_EnableErrStatus
 2548              		.section	.text.CyXTAL_DisableErrStatus,"ax",%progbits
 2549              		.align	2
 2550              		.global	CyXTAL_DisableErrStatus
 2551              		.thumb
 2552              		.thumb_func
 2553              		.type	CyXTAL_DisableErrStatus, %function
 2554              	CyXTAL_DisableErrStatus:
 2555              	.LFB32:
1445:.\Generated_Source\PSoC5/CyLib.c **** 
1446:.\Generated_Source\PSoC5/CyLib.c **** 
1447:.\Generated_Source\PSoC5/CyLib.c **** /*******************************************************************************
1448:.\Generated_Source\PSoC5/CyLib.c **** * Function Name: CyXTAL_DisableErrStatus
1449:.\Generated_Source\PSoC5/CyLib.c **** ********************************************************************************
1450:.\Generated_Source\PSoC5/CyLib.c **** *
1451:.\Generated_Source\PSoC5/CyLib.c **** * Summary:
1452:.\Generated_Source\PSoC5/CyLib.c **** *  Disables the generation of the XERR status bit for the megahertz crystal.
1453:.\Generated_Source\PSoC5/CyLib.c **** *  This function is not available for PSoC5.
1454:.\Generated_Source\PSoC5/CyLib.c **** *
1455:.\Generated_Source\PSoC5/CyLib.c **** * Parameters:
1456:.\Generated_Source\PSoC5/CyLib.c **** *  None
1457:.\Generated_Source\PSoC5/CyLib.c **** *
1458:.\Generated_Source\PSoC5/CyLib.c **** * Return:
1459:.\Generated_Source\PSoC5/CyLib.c **** *  None
1460:.\Generated_Source\PSoC5/CyLib.c **** *
1461:.\Generated_Source\PSoC5/CyLib.c **** *******************************************************************************/
1462:.\Generated_Source\PSoC5/CyLib.c **** void CyXTAL_DisableErrStatus(void) 
1463:.\Generated_Source\PSoC5/CyLib.c **** {
 2556              		.loc 1 1463 0
 2557              		.cfi_startproc
 2558              		@ args = 0, pretend = 0, frame = 0
 2559              		@ frame_needed = 1, uses_anonymous_args = 0
 2560              		@ link register save eliminated.
 2561 0000 80B4     		push	{r7}
 2562              		.cfi_def_cfa_offset 4
 2563              		.cfi_offset 7, -4
 2564 0002 00AF     		add	r7, sp, #0
 2565              		.cfi_def_cfa_register 7
1464:.\Generated_Source\PSoC5/CyLib.c ****     /* If oscillator has insufficient amplitude, XERR bit will be high. */
1465:.\Generated_Source\PSoC5/CyLib.c ****     CY_CLK_XMHZ_CSR_REG |= CY_CLK_XMHZ_CSR_XFB;
 2566              		.loc 1 1465 0
 2567 0004 054A     		ldr	r2, .L191
 2568 0006 054B     		ldr	r3, .L191
 2569 0008 1B78     		ldrb	r3, [r3]
 2570 000a DBB2     		uxtb	r3, r3
ARM GAS  C:\Users\Rolando\AppData\Local\Temp\ccmqTZg9.s 			page 72


 2571 000c 43F00403 		orr	r3, r3, #4
 2572 0010 DBB2     		uxtb	r3, r3
 2573 0012 1370     		strb	r3, [r2]
1466:.\Generated_Source\PSoC5/CyLib.c **** }
 2574              		.loc 1 1466 0
 2575 0014 BD46     		mov	sp, r7
 2576              		.cfi_def_cfa_register 13
 2577              		@ sp needed
 2578 0016 5DF8047B 		ldr	r7, [sp], #4
 2579              		.cfi_restore 7
 2580              		.cfi_def_cfa_offset 0
 2581 001a 7047     		bx	lr
 2582              	.L192:
 2583              		.align	2
 2584              	.L191:
 2585 001c 10420040 		.word	1073758736
 2586              		.cfi_endproc
 2587              	.LFE32:
 2588              		.size	CyXTAL_DisableErrStatus, .-CyXTAL_DisableErrStatus
 2589              		.section	.text.CyXTAL_ReadStatus,"ax",%progbits
 2590              		.align	2
 2591              		.global	CyXTAL_ReadStatus
 2592              		.thumb
 2593              		.thumb_func
 2594              		.type	CyXTAL_ReadStatus, %function
 2595              	CyXTAL_ReadStatus:
 2596              	.LFB33:
1467:.\Generated_Source\PSoC5/CyLib.c **** 
1468:.\Generated_Source\PSoC5/CyLib.c **** 
1469:.\Generated_Source\PSoC5/CyLib.c **** /*******************************************************************************
1470:.\Generated_Source\PSoC5/CyLib.c **** * Function Name: CyXTAL_ReadStatus
1471:.\Generated_Source\PSoC5/CyLib.c **** ********************************************************************************
1472:.\Generated_Source\PSoC5/CyLib.c **** *
1473:.\Generated_Source\PSoC5/CyLib.c **** * Summary:
1474:.\Generated_Source\PSoC5/CyLib.c **** *  Reads the XERR status bit for the megahertz crystal. This status bit is a
1475:.\Generated_Source\PSoC5/CyLib.c **** *  sticky clear on read value. This function is not available for PSoC5.
1476:.\Generated_Source\PSoC5/CyLib.c **** *
1477:.\Generated_Source\PSoC5/CyLib.c **** * Parameters:
1478:.\Generated_Source\PSoC5/CyLib.c **** *  None
1479:.\Generated_Source\PSoC5/CyLib.c **** *
1480:.\Generated_Source\PSoC5/CyLib.c **** * Return:
1481:.\Generated_Source\PSoC5/CyLib.c **** *   Status
1482:.\Generated_Source\PSoC5/CyLib.c **** *    0: No error
1483:.\Generated_Source\PSoC5/CyLib.c **** *    1: Error
1484:.\Generated_Source\PSoC5/CyLib.c **** *
1485:.\Generated_Source\PSoC5/CyLib.c **** *******************************************************************************/
1486:.\Generated_Source\PSoC5/CyLib.c **** uint8 CyXTAL_ReadStatus(void) 
1487:.\Generated_Source\PSoC5/CyLib.c **** {
 2597              		.loc 1 1487 0
 2598              		.cfi_startproc
 2599              		@ args = 0, pretend = 0, frame = 0
 2600              		@ frame_needed = 1, uses_anonymous_args = 0
 2601              		@ link register save eliminated.
 2602 0000 80B4     		push	{r7}
 2603              		.cfi_def_cfa_offset 4
 2604              		.cfi_offset 7, -4
 2605 0002 00AF     		add	r7, sp, #0
ARM GAS  C:\Users\Rolando\AppData\Local\Temp\ccmqTZg9.s 			page 73


 2606              		.cfi_def_cfa_register 7
1488:.\Generated_Source\PSoC5/CyLib.c ****     /***************************************************************************
1489:.\Generated_Source\PSoC5/CyLib.c ****     * High output indicates oscillator failure. Only use this after start-up
1490:.\Generated_Source\PSoC5/CyLib.c ****     * interval is completed. This can be used for status and failure recovery.
1491:.\Generated_Source\PSoC5/CyLib.c ****     ***************************************************************************/
1492:.\Generated_Source\PSoC5/CyLib.c ****     return((0u != (CY_CLK_XMHZ_CSR_REG & CY_CLK_XMHZ_CSR_XERR)) ? 1u : 0u);
 2607              		.loc 1 1492 0
 2608 0004 074B     		ldr	r3, .L197
 2609 0006 1B78     		ldrb	r3, [r3]
 2610 0008 DBB2     		uxtb	r3, r3
 2611 000a DBB2     		uxtb	r3, r3
 2612 000c 5BB2     		sxtb	r3, r3
 2613 000e 002B     		cmp	r3, #0
 2614 0010 01DA     		bge	.L194
 2615              		.loc 1 1492 0 is_stmt 0 discriminator 1
 2616 0012 0123     		movs	r3, #1
 2617 0014 00E0     		b	.L195
 2618              	.L194:
 2619              		.loc 1 1492 0 discriminator 2
 2620 0016 0023     		movs	r3, #0
 2621              	.L195:
1493:.\Generated_Source\PSoC5/CyLib.c **** }
 2622              		.loc 1 1493 0 is_stmt 1 discriminator 4
 2623 0018 1846     		mov	r0, r3
 2624 001a BD46     		mov	sp, r7
 2625              		.cfi_def_cfa_register 13
 2626              		@ sp needed
 2627 001c 5DF8047B 		ldr	r7, [sp], #4
 2628              		.cfi_restore 7
 2629              		.cfi_def_cfa_offset 0
 2630 0020 7047     		bx	lr
 2631              	.L198:
 2632 0022 00BF     		.align	2
 2633              	.L197:
 2634 0024 10420040 		.word	1073758736
 2635              		.cfi_endproc
 2636              	.LFE33:
 2637              		.size	CyXTAL_ReadStatus, .-CyXTAL_ReadStatus
 2638              		.section	.text.CyXTAL_EnableFaultRecovery,"ax",%progbits
 2639              		.align	2
 2640              		.global	CyXTAL_EnableFaultRecovery
 2641              		.thumb
 2642              		.thumb_func
 2643              		.type	CyXTAL_EnableFaultRecovery, %function
 2644              	CyXTAL_EnableFaultRecovery:
 2645              	.LFB34:
1494:.\Generated_Source\PSoC5/CyLib.c **** 
1495:.\Generated_Source\PSoC5/CyLib.c **** 
1496:.\Generated_Source\PSoC5/CyLib.c **** /*******************************************************************************
1497:.\Generated_Source\PSoC5/CyLib.c **** * Function Name: CyXTAL_EnableFaultRecovery
1498:.\Generated_Source\PSoC5/CyLib.c **** ********************************************************************************
1499:.\Generated_Source\PSoC5/CyLib.c **** *
1500:.\Generated_Source\PSoC5/CyLib.c **** * Summary:
1501:.\Generated_Source\PSoC5/CyLib.c **** *  Enables the fault recovery circuit which will switch to the IMO in the case
1502:.\Generated_Source\PSoC5/CyLib.c **** *  of a fault in the megahertz crystal circuit. The crystal must be up and
1503:.\Generated_Source\PSoC5/CyLib.c **** *  running with the XERR bit at 0, before calling this function to prevent
1504:.\Generated_Source\PSoC5/CyLib.c **** *  immediate fault switchover. This function is not available for PSoC5.
ARM GAS  C:\Users\Rolando\AppData\Local\Temp\ccmqTZg9.s 			page 74


1505:.\Generated_Source\PSoC5/CyLib.c **** *
1506:.\Generated_Source\PSoC5/CyLib.c **** * Parameters:
1507:.\Generated_Source\PSoC5/CyLib.c **** *  None
1508:.\Generated_Source\PSoC5/CyLib.c **** *
1509:.\Generated_Source\PSoC5/CyLib.c **** * Return:
1510:.\Generated_Source\PSoC5/CyLib.c **** *  None
1511:.\Generated_Source\PSoC5/CyLib.c **** *
1512:.\Generated_Source\PSoC5/CyLib.c **** *******************************************************************************/
1513:.\Generated_Source\PSoC5/CyLib.c **** void CyXTAL_EnableFaultRecovery(void) 
1514:.\Generated_Source\PSoC5/CyLib.c **** {
 2646              		.loc 1 1514 0
 2647              		.cfi_startproc
 2648              		@ args = 0, pretend = 0, frame = 0
 2649              		@ frame_needed = 1, uses_anonymous_args = 0
 2650              		@ link register save eliminated.
 2651 0000 80B4     		push	{r7}
 2652              		.cfi_def_cfa_offset 4
 2653              		.cfi_offset 7, -4
 2654 0002 00AF     		add	r7, sp, #0
 2655              		.cfi_def_cfa_register 7
1515:.\Generated_Source\PSoC5/CyLib.c ****     CY_CLK_XMHZ_CSR_REG |= CY_CLK_XMHZ_CSR_XPROT;
 2656              		.loc 1 1515 0
 2657 0004 054A     		ldr	r2, .L200
 2658 0006 054B     		ldr	r3, .L200
 2659 0008 1B78     		ldrb	r3, [r3]
 2660 000a DBB2     		uxtb	r3, r3
 2661 000c 43F04003 		orr	r3, r3, #64
 2662 0010 DBB2     		uxtb	r3, r3
 2663 0012 1370     		strb	r3, [r2]
1516:.\Generated_Source\PSoC5/CyLib.c **** }
 2664              		.loc 1 1516 0
 2665 0014 BD46     		mov	sp, r7
 2666              		.cfi_def_cfa_register 13
 2667              		@ sp needed
 2668 0016 5DF8047B 		ldr	r7, [sp], #4
 2669              		.cfi_restore 7
 2670              		.cfi_def_cfa_offset 0
 2671 001a 7047     		bx	lr
 2672              	.L201:
 2673              		.align	2
 2674              	.L200:
 2675 001c 10420040 		.word	1073758736
 2676              		.cfi_endproc
 2677              	.LFE34:
 2678              		.size	CyXTAL_EnableFaultRecovery, .-CyXTAL_EnableFaultRecovery
 2679              		.section	.text.CyXTAL_DisableFaultRecovery,"ax",%progbits
 2680              		.align	2
 2681              		.global	CyXTAL_DisableFaultRecovery
 2682              		.thumb
 2683              		.thumb_func
 2684              		.type	CyXTAL_DisableFaultRecovery, %function
 2685              	CyXTAL_DisableFaultRecovery:
 2686              	.LFB35:
1517:.\Generated_Source\PSoC5/CyLib.c **** 
1518:.\Generated_Source\PSoC5/CyLib.c **** 
1519:.\Generated_Source\PSoC5/CyLib.c **** /*******************************************************************************
1520:.\Generated_Source\PSoC5/CyLib.c **** * Function Name: CyXTAL_DisableFaultRecovery
ARM GAS  C:\Users\Rolando\AppData\Local\Temp\ccmqTZg9.s 			page 75


1521:.\Generated_Source\PSoC5/CyLib.c **** ********************************************************************************
1522:.\Generated_Source\PSoC5/CyLib.c **** *
1523:.\Generated_Source\PSoC5/CyLib.c **** * Summary:
1524:.\Generated_Source\PSoC5/CyLib.c **** *  Disables the fault recovery circuit which will switch to the IMO in the case
1525:.\Generated_Source\PSoC5/CyLib.c **** *  of a fault in the megahertz crystal circuit. This function is not available
1526:.\Generated_Source\PSoC5/CyLib.c **** *  for PSoC5.
1527:.\Generated_Source\PSoC5/CyLib.c **** *
1528:.\Generated_Source\PSoC5/CyLib.c **** * Parameters:
1529:.\Generated_Source\PSoC5/CyLib.c **** *  None
1530:.\Generated_Source\PSoC5/CyLib.c **** *
1531:.\Generated_Source\PSoC5/CyLib.c **** * Return:
1532:.\Generated_Source\PSoC5/CyLib.c **** *  None
1533:.\Generated_Source\PSoC5/CyLib.c **** *
1534:.\Generated_Source\PSoC5/CyLib.c **** *******************************************************************************/
1535:.\Generated_Source\PSoC5/CyLib.c **** void CyXTAL_DisableFaultRecovery(void) 
1536:.\Generated_Source\PSoC5/CyLib.c **** {
 2687              		.loc 1 1536 0
 2688              		.cfi_startproc
 2689              		@ args = 0, pretend = 0, frame = 0
 2690              		@ frame_needed = 1, uses_anonymous_args = 0
 2691              		@ link register save eliminated.
 2692 0000 80B4     		push	{r7}
 2693              		.cfi_def_cfa_offset 4
 2694              		.cfi_offset 7, -4
 2695 0002 00AF     		add	r7, sp, #0
 2696              		.cfi_def_cfa_register 7
1537:.\Generated_Source\PSoC5/CyLib.c ****     CY_CLK_XMHZ_CSR_REG &= ((uint8)(~CY_CLK_XMHZ_CSR_XPROT));
 2697              		.loc 1 1537 0
 2698 0004 054A     		ldr	r2, .L203
 2699 0006 054B     		ldr	r3, .L203
 2700 0008 1B78     		ldrb	r3, [r3]
 2701 000a DBB2     		uxtb	r3, r3
 2702 000c 23F04003 		bic	r3, r3, #64
 2703 0010 DBB2     		uxtb	r3, r3
 2704 0012 1370     		strb	r3, [r2]
1538:.\Generated_Source\PSoC5/CyLib.c **** }
 2705              		.loc 1 1538 0
 2706 0014 BD46     		mov	sp, r7
 2707              		.cfi_def_cfa_register 13
 2708              		@ sp needed
 2709 0016 5DF8047B 		ldr	r7, [sp], #4
 2710              		.cfi_restore 7
 2711              		.cfi_def_cfa_offset 0
 2712 001a 7047     		bx	lr
 2713              	.L204:
 2714              		.align	2
 2715              	.L203:
 2716 001c 10420040 		.word	1073758736
 2717              		.cfi_endproc
 2718              	.LFE35:
 2719              		.size	CyXTAL_DisableFaultRecovery, .-CyXTAL_DisableFaultRecovery
 2720              		.section	.text.CyXTAL_SetStartup,"ax",%progbits
 2721              		.align	2
 2722              		.global	CyXTAL_SetStartup
 2723              		.thumb
 2724              		.thumb_func
 2725              		.type	CyXTAL_SetStartup, %function
ARM GAS  C:\Users\Rolando\AppData\Local\Temp\ccmqTZg9.s 			page 76


 2726              	CyXTAL_SetStartup:
 2727              	.LFB36:
1539:.\Generated_Source\PSoC5/CyLib.c **** 
1540:.\Generated_Source\PSoC5/CyLib.c **** 
1541:.\Generated_Source\PSoC5/CyLib.c **** /*******************************************************************************
1542:.\Generated_Source\PSoC5/CyLib.c **** * Function Name: CyXTAL_SetStartup
1543:.\Generated_Source\PSoC5/CyLib.c **** ********************************************************************************
1544:.\Generated_Source\PSoC5/CyLib.c **** *
1545:.\Generated_Source\PSoC5/CyLib.c **** * Summary:
1546:.\Generated_Source\PSoC5/CyLib.c **** *  Sets the startup settings for the crystal. Logic model outputs a frequency
1547:.\Generated_Source\PSoC5/CyLib.c **** *  (setting + 4) MHz when enabled.
1548:.\Generated_Source\PSoC5/CyLib.c **** *
1549:.\Generated_Source\PSoC5/CyLib.c **** *  This is artificial as the actual frequency is determined by an attached
1550:.\Generated_Source\PSoC5/CyLib.c **** *  external crystal.
1551:.\Generated_Source\PSoC5/CyLib.c **** *
1552:.\Generated_Source\PSoC5/CyLib.c **** * Parameters:
1553:.\Generated_Source\PSoC5/CyLib.c **** *  setting: Valid range [0-31].
1554:.\Generated_Source\PSoC5/CyLib.c **** *   Value is dependent on the frequency and quality of the crystal being used.
1555:.\Generated_Source\PSoC5/CyLib.c **** *   Refer to the device TRM and datasheet for more information.
1556:.\Generated_Source\PSoC5/CyLib.c **** *
1557:.\Generated_Source\PSoC5/CyLib.c **** * Return:
1558:.\Generated_Source\PSoC5/CyLib.c **** *  None
1559:.\Generated_Source\PSoC5/CyLib.c **** *
1560:.\Generated_Source\PSoC5/CyLib.c **** *******************************************************************************/
1561:.\Generated_Source\PSoC5/CyLib.c **** void CyXTAL_SetStartup(uint8 setting) 
1562:.\Generated_Source\PSoC5/CyLib.c **** {
 2728              		.loc 1 1562 0
 2729              		.cfi_startproc
 2730              		@ args = 0, pretend = 0, frame = 8
 2731              		@ frame_needed = 1, uses_anonymous_args = 0
 2732              		@ link register save eliminated.
 2733 0000 80B4     		push	{r7}
 2734              		.cfi_def_cfa_offset 4
 2735              		.cfi_offset 7, -4
 2736 0002 83B0     		sub	sp, sp, #12
 2737              		.cfi_def_cfa_offset 16
 2738 0004 00AF     		add	r7, sp, #0
 2739              		.cfi_def_cfa_register 7
 2740 0006 0346     		mov	r3, r0
 2741 0008 FB71     		strb	r3, [r7, #7]
1563:.\Generated_Source\PSoC5/CyLib.c ****     CY_CLK_XMHZ_CFG0_REG = (CY_CLK_XMHZ_CFG0_REG & ((uint8)(~CY_CLK_XMHZ_CFG0_XCFG_MASK))) |
 2742              		.loc 1 1563 0
 2743 000a 0949     		ldr	r1, .L206
 2744 000c 084B     		ldr	r3, .L206
 2745 000e 1B78     		ldrb	r3, [r3]
 2746 0010 DBB2     		uxtb	r3, r3
 2747 0012 23F01F03 		bic	r3, r3, #31
 2748 0016 DAB2     		uxtb	r2, r3
 2749 0018 FB79     		ldrb	r3, [r7, #7]
 2750 001a 03F01F03 		and	r3, r3, #31
 2751 001e DBB2     		uxtb	r3, r3
 2752 0020 1343     		orrs	r3, r3, r2
 2753 0022 DBB2     		uxtb	r3, r3
 2754 0024 0B70     		strb	r3, [r1]
1564:.\Generated_Source\PSoC5/CyLib.c ****                            (setting & CY_CLK_XMHZ_CFG0_XCFG_MASK);
1565:.\Generated_Source\PSoC5/CyLib.c **** }
 2755              		.loc 1 1565 0
ARM GAS  C:\Users\Rolando\AppData\Local\Temp\ccmqTZg9.s 			page 77


 2756 0026 0C37     		adds	r7, r7, #12
 2757              		.cfi_def_cfa_offset 4
 2758 0028 BD46     		mov	sp, r7
 2759              		.cfi_def_cfa_register 13
 2760              		@ sp needed
 2761 002a 5DF8047B 		ldr	r7, [sp], #4
 2762              		.cfi_restore 7
 2763              		.cfi_def_cfa_offset 0
 2764 002e 7047     		bx	lr
 2765              	.L207:
 2766              		.align	2
 2767              	.L206:
 2768 0030 12420040 		.word	1073758738
 2769              		.cfi_endproc
 2770              	.LFE36:
 2771              		.size	CyXTAL_SetStartup, .-CyXTAL_SetStartup
 2772              		.section	.text.CyXTAL_SetFbVoltage,"ax",%progbits
 2773              		.align	2
 2774              		.global	CyXTAL_SetFbVoltage
 2775              		.thumb
 2776              		.thumb_func
 2777              		.type	CyXTAL_SetFbVoltage, %function
 2778              	CyXTAL_SetFbVoltage:
 2779              	.LFB37:
1566:.\Generated_Source\PSoC5/CyLib.c **** 
1567:.\Generated_Source\PSoC5/CyLib.c **** 
1568:.\Generated_Source\PSoC5/CyLib.c **** 
1569:.\Generated_Source\PSoC5/CyLib.c **** /*******************************************************************************
1570:.\Generated_Source\PSoC5/CyLib.c **** * Function Name: CyXTAL_SetFbVoltage
1571:.\Generated_Source\PSoC5/CyLib.c **** ********************************************************************************
1572:.\Generated_Source\PSoC5/CyLib.c **** *
1573:.\Generated_Source\PSoC5/CyLib.c **** * Summary:
1574:.\Generated_Source\PSoC5/CyLib.c **** *  Sets the feedback reference voltage to use for the crystal circuit.
1575:.\Generated_Source\PSoC5/CyLib.c **** *  This function is only available for PSoC3 and PSoC 5LP.
1576:.\Generated_Source\PSoC5/CyLib.c **** *
1577:.\Generated_Source\PSoC5/CyLib.c **** * Parameters:
1578:.\Generated_Source\PSoC5/CyLib.c **** *  setting: Valid range [0-15].
1579:.\Generated_Source\PSoC5/CyLib.c **** *  Refer to the device TRM and datasheet for more information.
1580:.\Generated_Source\PSoC5/CyLib.c **** *
1581:.\Generated_Source\PSoC5/CyLib.c **** * Return:
1582:.\Generated_Source\PSoC5/CyLib.c **** *  None
1583:.\Generated_Source\PSoC5/CyLib.c **** *
1584:.\Generated_Source\PSoC5/CyLib.c **** *******************************************************************************/
1585:.\Generated_Source\PSoC5/CyLib.c **** void CyXTAL_SetFbVoltage(uint8 setting) 
1586:.\Generated_Source\PSoC5/CyLib.c **** {
 2780              		.loc 1 1586 0
 2781              		.cfi_startproc
 2782              		@ args = 0, pretend = 0, frame = 8
 2783              		@ frame_needed = 1, uses_anonymous_args = 0
 2784              		@ link register save eliminated.
 2785 0000 80B4     		push	{r7}
 2786              		.cfi_def_cfa_offset 4
 2787              		.cfi_offset 7, -4
 2788 0002 83B0     		sub	sp, sp, #12
 2789              		.cfi_def_cfa_offset 16
 2790 0004 00AF     		add	r7, sp, #0
 2791              		.cfi_def_cfa_register 7
ARM GAS  C:\Users\Rolando\AppData\Local\Temp\ccmqTZg9.s 			page 78


 2792 0006 0346     		mov	r3, r0
 2793 0008 FB71     		strb	r3, [r7, #7]
1587:.\Generated_Source\PSoC5/CyLib.c ****     CY_CLK_XMHZ_CFG1_REG = ((CY_CLK_XMHZ_CFG1_REG & ((uint8)(~CY_CLK_XMHZ_CFG1_VREF_FB_MASK))) |
 2794              		.loc 1 1587 0
 2795 000a 0949     		ldr	r1, .L209
 2796 000c 084B     		ldr	r3, .L209
 2797 000e 1B78     		ldrb	r3, [r3]
 2798 0010 DBB2     		uxtb	r3, r3
 2799 0012 23F00F03 		bic	r3, r3, #15
 2800 0016 DAB2     		uxtb	r2, r3
 2801 0018 FB79     		ldrb	r3, [r7, #7]
 2802 001a 03F00F03 		and	r3, r3, #15
 2803 001e DBB2     		uxtb	r3, r3
 2804 0020 1343     		orrs	r3, r3, r2
 2805 0022 DBB2     		uxtb	r3, r3
 2806 0024 0B70     		strb	r3, [r1]
1588:.\Generated_Source\PSoC5/CyLib.c ****                             (setting & CY_CLK_XMHZ_CFG1_VREF_FB_MASK));
1589:.\Generated_Source\PSoC5/CyLib.c **** }
 2807              		.loc 1 1589 0
 2808 0026 0C37     		adds	r7, r7, #12
 2809              		.cfi_def_cfa_offset 4
 2810 0028 BD46     		mov	sp, r7
 2811              		.cfi_def_cfa_register 13
 2812              		@ sp needed
 2813 002a 5DF8047B 		ldr	r7, [sp], #4
 2814              		.cfi_restore 7
 2815              		.cfi_def_cfa_offset 0
 2816 002e 7047     		bx	lr
 2817              	.L210:
 2818              		.align	2
 2819              	.L209:
 2820 0030 13420040 		.word	1073758739
 2821              		.cfi_endproc
 2822              	.LFE37:
 2823              		.size	CyXTAL_SetFbVoltage, .-CyXTAL_SetFbVoltage
 2824              		.section	.text.CyXTAL_SetWdVoltage,"ax",%progbits
 2825              		.align	2
 2826              		.global	CyXTAL_SetWdVoltage
 2827              		.thumb
 2828              		.thumb_func
 2829              		.type	CyXTAL_SetWdVoltage, %function
 2830              	CyXTAL_SetWdVoltage:
 2831              	.LFB38:
1590:.\Generated_Source\PSoC5/CyLib.c **** 
1591:.\Generated_Source\PSoC5/CyLib.c **** 
1592:.\Generated_Source\PSoC5/CyLib.c **** /*******************************************************************************
1593:.\Generated_Source\PSoC5/CyLib.c **** * Function Name: CyXTAL_SetWdVoltage
1594:.\Generated_Source\PSoC5/CyLib.c **** ********************************************************************************
1595:.\Generated_Source\PSoC5/CyLib.c **** *
1596:.\Generated_Source\PSoC5/CyLib.c **** * Summary:
1597:.\Generated_Source\PSoC5/CyLib.c **** *  Sets the reference voltage used by the watchdog to detect a failure in the
1598:.\Generated_Source\PSoC5/CyLib.c **** *  crystal circuit. This function is only available for PSoC3 and PSoC 5LP.
1599:.\Generated_Source\PSoC5/CyLib.c **** *
1600:.\Generated_Source\PSoC5/CyLib.c **** * Parameters:
1601:.\Generated_Source\PSoC5/CyLib.c **** *  setting: Valid range [0-7].
1602:.\Generated_Source\PSoC5/CyLib.c **** *  Refer to the device TRM and datasheet for more information.
1603:.\Generated_Source\PSoC5/CyLib.c **** *
ARM GAS  C:\Users\Rolando\AppData\Local\Temp\ccmqTZg9.s 			page 79


1604:.\Generated_Source\PSoC5/CyLib.c **** * Return:
1605:.\Generated_Source\PSoC5/CyLib.c **** *  None
1606:.\Generated_Source\PSoC5/CyLib.c **** *
1607:.\Generated_Source\PSoC5/CyLib.c **** *******************************************************************************/
1608:.\Generated_Source\PSoC5/CyLib.c **** void CyXTAL_SetWdVoltage(uint8 setting) 
1609:.\Generated_Source\PSoC5/CyLib.c **** {
 2832              		.loc 1 1609 0
 2833              		.cfi_startproc
 2834              		@ args = 0, pretend = 0, frame = 8
 2835              		@ frame_needed = 1, uses_anonymous_args = 0
 2836              		@ link register save eliminated.
 2837 0000 80B4     		push	{r7}
 2838              		.cfi_def_cfa_offset 4
 2839              		.cfi_offset 7, -4
 2840 0002 83B0     		sub	sp, sp, #12
 2841              		.cfi_def_cfa_offset 16
 2842 0004 00AF     		add	r7, sp, #0
 2843              		.cfi_def_cfa_register 7
 2844 0006 0346     		mov	r3, r0
 2845 0008 FB71     		strb	r3, [r7, #7]
1610:.\Generated_Source\PSoC5/CyLib.c ****     CY_CLK_XMHZ_CFG1_REG = ((CY_CLK_XMHZ_CFG1_REG & ((uint8)(~CY_CLK_XMHZ_CFG1_VREF_WD_MASK))) |
 2846              		.loc 1 1610 0
 2847 000a 0A49     		ldr	r1, .L212
 2848 000c 094B     		ldr	r3, .L212
 2849 000e 1B78     		ldrb	r3, [r3]
 2850 0010 DBB2     		uxtb	r3, r3
 2851 0012 23F07003 		bic	r3, r3, #112
 2852 0016 DAB2     		uxtb	r2, r3
1611:.\Generated_Source\PSoC5/CyLib.c ****                             (((uint8)(setting << 4u)) & CY_CLK_XMHZ_CFG1_VREF_WD_MASK));
 2853              		.loc 1 1611 0
 2854 0018 FB79     		ldrb	r3, [r7, #7]
 2855 001a 1B01     		lsls	r3, r3, #4
 2856 001c DBB2     		uxtb	r3, r3
1610:.\Generated_Source\PSoC5/CyLib.c ****     CY_CLK_XMHZ_CFG1_REG = ((CY_CLK_XMHZ_CFG1_REG & ((uint8)(~CY_CLK_XMHZ_CFG1_VREF_WD_MASK))) |
 2857              		.loc 1 1610 0
 2858 001e 03F07003 		and	r3, r3, #112
 2859 0022 DBB2     		uxtb	r3, r3
 2860 0024 1343     		orrs	r3, r3, r2
 2861 0026 DBB2     		uxtb	r3, r3
 2862 0028 0B70     		strb	r3, [r1]
1612:.\Generated_Source\PSoC5/CyLib.c **** }
 2863              		.loc 1 1612 0
 2864 002a 0C37     		adds	r7, r7, #12
 2865              		.cfi_def_cfa_offset 4
 2866 002c BD46     		mov	sp, r7
 2867              		.cfi_def_cfa_register 13
 2868              		@ sp needed
 2869 002e 5DF8047B 		ldr	r7, [sp], #4
 2870              		.cfi_restore 7
 2871              		.cfi_def_cfa_offset 0
 2872 0032 7047     		bx	lr
 2873              	.L213:
 2874              		.align	2
 2875              	.L212:
 2876 0034 13420040 		.word	1073758739
 2877              		.cfi_endproc
 2878              	.LFE38:
ARM GAS  C:\Users\Rolando\AppData\Local\Temp\ccmqTZg9.s 			page 80


 2879              		.size	CyXTAL_SetWdVoltage, .-CyXTAL_SetWdVoltage
 2880              		.section	.text.CyHalt,"ax",%progbits
 2881              		.align	2
 2882              		.global	CyHalt
 2883              		.thumb
 2884              		.thumb_func
 2885              		.type	CyHalt, %function
 2886              	CyHalt:
 2887              	.LFB39:
1613:.\Generated_Source\PSoC5/CyLib.c **** 
1614:.\Generated_Source\PSoC5/CyLib.c **** 
1615:.\Generated_Source\PSoC5/CyLib.c **** /*******************************************************************************
1616:.\Generated_Source\PSoC5/CyLib.c **** * Function Name: CyHalt
1617:.\Generated_Source\PSoC5/CyLib.c **** ********************************************************************************
1618:.\Generated_Source\PSoC5/CyLib.c **** *
1619:.\Generated_Source\PSoC5/CyLib.c **** * Summary:
1620:.\Generated_Source\PSoC5/CyLib.c **** *  Halts the CPU.
1621:.\Generated_Source\PSoC5/CyLib.c **** *
1622:.\Generated_Source\PSoC5/CyLib.c **** * Parameters:
1623:.\Generated_Source\PSoC5/CyLib.c **** *  uint8 reason: Value to be used during debugging.
1624:.\Generated_Source\PSoC5/CyLib.c **** *
1625:.\Generated_Source\PSoC5/CyLib.c **** * Return:
1626:.\Generated_Source\PSoC5/CyLib.c **** *  None
1627:.\Generated_Source\PSoC5/CyLib.c **** *
1628:.\Generated_Source\PSoC5/CyLib.c **** *******************************************************************************/
1629:.\Generated_Source\PSoC5/CyLib.c **** void CyHalt(uint8 reason) CYREENTRANT
1630:.\Generated_Source\PSoC5/CyLib.c **** {
 2888              		.loc 1 1630 0
 2889              		.cfi_startproc
 2890              		@ args = 0, pretend = 0, frame = 8
 2891              		@ frame_needed = 1, uses_anonymous_args = 0
 2892              		@ link register save eliminated.
 2893 0000 80B4     		push	{r7}
 2894              		.cfi_def_cfa_offset 4
 2895              		.cfi_offset 7, -4
 2896 0002 83B0     		sub	sp, sp, #12
 2897              		.cfi_def_cfa_offset 16
 2898 0004 00AF     		add	r7, sp, #0
 2899              		.cfi_def_cfa_register 7
 2900 0006 0346     		mov	r3, r0
 2901 0008 FB71     		strb	r3, [r7, #7]
1631:.\Generated_Source\PSoC5/CyLib.c ****     if(0u != reason)
1632:.\Generated_Source\PSoC5/CyLib.c ****     {
1633:.\Generated_Source\PSoC5/CyLib.c ****         /* To remove unreferenced local variable warning */
1634:.\Generated_Source\PSoC5/CyLib.c ****     }
1635:.\Generated_Source\PSoC5/CyLib.c **** 
1636:.\Generated_Source\PSoC5/CyLib.c ****     #if defined (__ARMCC_VERSION)
1637:.\Generated_Source\PSoC5/CyLib.c ****         __breakpoint(0x0);
1638:.\Generated_Source\PSoC5/CyLib.c ****     #elif defined(__GNUC__) || defined (__ICCARM__)
1639:.\Generated_Source\PSoC5/CyLib.c ****         __asm("    bkpt    1");
 2902              		.loc 1 1639 0
 2903              	@ 1639 ".\Generated_Source\PSoC5\CyLib.c" 1
 2904 000a 01BE     		    bkpt    1
 2905              	@ 0 "" 2
1640:.\Generated_Source\PSoC5/CyLib.c ****     #elif defined(__C51__)
1641:.\Generated_Source\PSoC5/CyLib.c ****         CYDEV_HALT_CPU;
1642:.\Generated_Source\PSoC5/CyLib.c ****     #endif  /* (__ARMCC_VERSION) */
ARM GAS  C:\Users\Rolando\AppData\Local\Temp\ccmqTZg9.s 			page 81


1643:.\Generated_Source\PSoC5/CyLib.c **** }
 2906              		.loc 1 1643 0
 2907              		.thumb
 2908 000c 0C37     		adds	r7, r7, #12
 2909              		.cfi_def_cfa_offset 4
 2910 000e BD46     		mov	sp, r7
 2911              		.cfi_def_cfa_register 13
 2912              		@ sp needed
 2913 0010 5DF8047B 		ldr	r7, [sp], #4
 2914              		.cfi_restore 7
 2915              		.cfi_def_cfa_offset 0
 2916 0014 7047     		bx	lr
 2917              		.cfi_endproc
 2918              	.LFE39:
 2919              		.size	CyHalt, .-CyHalt
 2920 0016 00BF     		.section	.text.CySoftwareReset,"ax",%progbits
 2921              		.align	2
 2922              		.global	CySoftwareReset
 2923              		.thumb
 2924              		.thumb_func
 2925              		.type	CySoftwareReset, %function
 2926              	CySoftwareReset:
 2927              	.LFB40:
1644:.\Generated_Source\PSoC5/CyLib.c **** 
1645:.\Generated_Source\PSoC5/CyLib.c **** 
1646:.\Generated_Source\PSoC5/CyLib.c **** /*******************************************************************************
1647:.\Generated_Source\PSoC5/CyLib.c **** * Function Name: CySoftwareReset
1648:.\Generated_Source\PSoC5/CyLib.c **** ********************************************************************************
1649:.\Generated_Source\PSoC5/CyLib.c **** *
1650:.\Generated_Source\PSoC5/CyLib.c **** * Summary:
1651:.\Generated_Source\PSoC5/CyLib.c **** *  Forces a software reset of the device.
1652:.\Generated_Source\PSoC5/CyLib.c **** *
1653:.\Generated_Source\PSoC5/CyLib.c **** * Parameters:
1654:.\Generated_Source\PSoC5/CyLib.c **** *  None
1655:.\Generated_Source\PSoC5/CyLib.c **** *
1656:.\Generated_Source\PSoC5/CyLib.c **** * Return:
1657:.\Generated_Source\PSoC5/CyLib.c **** *  None
1658:.\Generated_Source\PSoC5/CyLib.c **** *
1659:.\Generated_Source\PSoC5/CyLib.c **** *******************************************************************************/
1660:.\Generated_Source\PSoC5/CyLib.c **** void CySoftwareReset(void) 
1661:.\Generated_Source\PSoC5/CyLib.c **** {
 2928              		.loc 1 1661 0
 2929              		.cfi_startproc
 2930              		@ args = 0, pretend = 0, frame = 0
 2931              		@ frame_needed = 1, uses_anonymous_args = 0
 2932              		@ link register save eliminated.
 2933 0000 80B4     		push	{r7}
 2934              		.cfi_def_cfa_offset 4
 2935              		.cfi_offset 7, -4
 2936 0002 00AF     		add	r7, sp, #0
 2937              		.cfi_def_cfa_register 7
1662:.\Generated_Source\PSoC5/CyLib.c ****     CY_LIB_RESET_CR2_REG |= CY_LIB_RESET_CR2_RESET;
 2938              		.loc 1 1662 0
 2939 0004 054A     		ldr	r2, .L216
 2940 0006 054B     		ldr	r3, .L216
 2941 0008 1B78     		ldrb	r3, [r3]
 2942 000a DBB2     		uxtb	r3, r3
ARM GAS  C:\Users\Rolando\AppData\Local\Temp\ccmqTZg9.s 			page 82


 2943 000c 43F00103 		orr	r3, r3, #1
 2944 0010 DBB2     		uxtb	r3, r3
 2945 0012 1370     		strb	r3, [r2]
1663:.\Generated_Source\PSoC5/CyLib.c **** }
 2946              		.loc 1 1663 0
 2947 0014 BD46     		mov	sp, r7
 2948              		.cfi_def_cfa_register 13
 2949              		@ sp needed
 2950 0016 5DF8047B 		ldr	r7, [sp], #4
 2951              		.cfi_restore 7
 2952              		.cfi_def_cfa_offset 0
 2953 001a 7047     		bx	lr
 2954              	.L217:
 2955              		.align	2
 2956              	.L216:
 2957 001c F6460040 		.word	1073759990
 2958              		.cfi_endproc
 2959              	.LFE40:
 2960              		.size	CySoftwareReset, .-CySoftwareReset
 2961              		.section	.text.CyDelay,"ax",%progbits
 2962              		.align	2
 2963              		.global	CyDelay
 2964              		.thumb
 2965              		.thumb_func
 2966              		.type	CyDelay, %function
 2967              	CyDelay:
 2968              	.LFB41:
1664:.\Generated_Source\PSoC5/CyLib.c **** 
1665:.\Generated_Source\PSoC5/CyLib.c **** 
1666:.\Generated_Source\PSoC5/CyLib.c **** /*******************************************************************************
1667:.\Generated_Source\PSoC5/CyLib.c **** * Function Name: CyDelay
1668:.\Generated_Source\PSoC5/CyLib.c **** ********************************************************************************
1669:.\Generated_Source\PSoC5/CyLib.c **** *
1670:.\Generated_Source\PSoC5/CyLib.c **** * Summary:
1671:.\Generated_Source\PSoC5/CyLib.c **** *  Blocks for milliseconds.
1672:.\Generated_Source\PSoC5/CyLib.c **** *
1673:.\Generated_Source\PSoC5/CyLib.c **** *  Note:
1674:.\Generated_Source\PSoC5/CyLib.c **** *  CyDelay has been implemented with the instruction cache assumed enabled. When
1675:.\Generated_Source\PSoC5/CyLib.c **** *  instruction cache is disabled on PSoC5, CyDelay will be two times larger. For
1676:.\Generated_Source\PSoC5/CyLib.c **** *  example, with instruction cache disabled CyDelay(100) would result in about
1677:.\Generated_Source\PSoC5/CyLib.c **** *  200 ms delay instead of 100 ms.
1678:.\Generated_Source\PSoC5/CyLib.c **** *
1679:.\Generated_Source\PSoC5/CyLib.c **** * Parameters:
1680:.\Generated_Source\PSoC5/CyLib.c **** *  milliseconds: number of milliseconds to delay.
1681:.\Generated_Source\PSoC5/CyLib.c **** *
1682:.\Generated_Source\PSoC5/CyLib.c **** * Return:
1683:.\Generated_Source\PSoC5/CyLib.c **** *   None
1684:.\Generated_Source\PSoC5/CyLib.c **** *
1685:.\Generated_Source\PSoC5/CyLib.c **** *******************************************************************************/
1686:.\Generated_Source\PSoC5/CyLib.c **** void CyDelay(uint32 milliseconds) CYREENTRANT
1687:.\Generated_Source\PSoC5/CyLib.c **** {
 2969              		.loc 1 1687 0
 2970              		.cfi_startproc
 2971              		@ args = 0, pretend = 0, frame = 8
 2972              		@ frame_needed = 1, uses_anonymous_args = 0
 2973 0000 80B5     		push	{r7, lr}
 2974              		.cfi_def_cfa_offset 8
ARM GAS  C:\Users\Rolando\AppData\Local\Temp\ccmqTZg9.s 			page 83


 2975              		.cfi_offset 7, -8
 2976              		.cfi_offset 14, -4
 2977 0002 82B0     		sub	sp, sp, #8
 2978              		.cfi_def_cfa_offset 16
 2979 0004 00AF     		add	r7, sp, #0
 2980              		.cfi_def_cfa_register 7
 2981 0006 7860     		str	r0, [r7, #4]
1688:.\Generated_Source\PSoC5/CyLib.c ****     while (milliseconds > 32768u)
 2982              		.loc 1 1688 0
 2983 0008 08E0     		b	.L219
 2984              	.L220:
1689:.\Generated_Source\PSoC5/CyLib.c ****     {
1690:.\Generated_Source\PSoC5/CyLib.c ****         /***********************************************************************
1691:.\Generated_Source\PSoC5/CyLib.c ****         * This loop prevents overflow.At 100MHz, milliseconds * delay_freq_khz
1692:.\Generated_Source\PSoC5/CyLib.c ****         * overflows at about 42 seconds.
1693:.\Generated_Source\PSoC5/CyLib.c ****         ***********************************************************************/
1694:.\Generated_Source\PSoC5/CyLib.c ****         CyDelayCycles(cydelay_32k_ms);
 2985              		.loc 1 1694 0
 2986 000a 0C4B     		ldr	r3, .L221
 2987 000c 1B68     		ldr	r3, [r3]
 2988 000e 1846     		mov	r0, r3
 2989 0010 FFF7FEFF 		bl	CyDelayCycles
1695:.\Generated_Source\PSoC5/CyLib.c ****         milliseconds = ((uint32)(milliseconds - 32768u));
 2990              		.loc 1 1695 0
 2991 0014 7B68     		ldr	r3, [r7, #4]
 2992 0016 A3F50043 		sub	r3, r3, #32768
 2993 001a 7B60     		str	r3, [r7, #4]
 2994              	.L219:
1688:.\Generated_Source\PSoC5/CyLib.c ****     while (milliseconds > 32768u)
 2995              		.loc 1 1688 0
 2996 001c 7B68     		ldr	r3, [r7, #4]
 2997 001e B3F5004F 		cmp	r3, #32768
 2998 0022 F2D8     		bhi	.L220
1696:.\Generated_Source\PSoC5/CyLib.c ****     }
1697:.\Generated_Source\PSoC5/CyLib.c **** 
1698:.\Generated_Source\PSoC5/CyLib.c ****     CyDelayCycles(milliseconds * cydelay_freq_khz);
 2999              		.loc 1 1698 0
 3000 0024 064B     		ldr	r3, .L221+4
 3001 0026 1B68     		ldr	r3, [r3]
 3002 0028 7A68     		ldr	r2, [r7, #4]
 3003 002a 02FB03F3 		mul	r3, r2, r3
 3004 002e 1846     		mov	r0, r3
 3005 0030 FFF7FEFF 		bl	CyDelayCycles
1699:.\Generated_Source\PSoC5/CyLib.c **** }
 3006              		.loc 1 1699 0
 3007 0034 0837     		adds	r7, r7, #8
 3008              		.cfi_def_cfa_offset 8
 3009 0036 BD46     		mov	sp, r7
 3010              		.cfi_def_cfa_register 13
 3011              		@ sp needed
 3012 0038 80BD     		pop	{r7, pc}
 3013              	.L222:
 3014 003a 00BF     		.align	2
 3015              	.L221:
 3016 003c 00000000 		.word	cydelay_32k_ms
 3017 0040 00000000 		.word	cydelay_freq_khz
 3018              		.cfi_endproc
ARM GAS  C:\Users\Rolando\AppData\Local\Temp\ccmqTZg9.s 			page 84


 3019              	.LFE41:
 3020              		.size	CyDelay, .-CyDelay
 3021              		.section	.text.CyDelayUs,"ax",%progbits
 3022              		.align	2
 3023              		.global	CyDelayUs
 3024              		.thumb
 3025              		.thumb_func
 3026              		.type	CyDelayUs, %function
 3027              	CyDelayUs:
 3028              	.LFB42:
1700:.\Generated_Source\PSoC5/CyLib.c **** 
1701:.\Generated_Source\PSoC5/CyLib.c **** 
1702:.\Generated_Source\PSoC5/CyLib.c **** #if(!CY_PSOC3)
1703:.\Generated_Source\PSoC5/CyLib.c **** 
1704:.\Generated_Source\PSoC5/CyLib.c ****     /* For PSoC3 devices function is defined in CyBootAsmKeil.a51 file */
1705:.\Generated_Source\PSoC5/CyLib.c **** 
1706:.\Generated_Source\PSoC5/CyLib.c ****     /*******************************************************************************
1707:.\Generated_Source\PSoC5/CyLib.c ****     * Function Name: CyDelayUs
1708:.\Generated_Source\PSoC5/CyLib.c ****     ********************************************************************************
1709:.\Generated_Source\PSoC5/CyLib.c ****     *
1710:.\Generated_Source\PSoC5/CyLib.c ****     * Summary:
1711:.\Generated_Source\PSoC5/CyLib.c ****     *  Blocks for microseconds.
1712:.\Generated_Source\PSoC5/CyLib.c ****     *
1713:.\Generated_Source\PSoC5/CyLib.c ****     *  Note:
1714:.\Generated_Source\PSoC5/CyLib.c ****     *   CyDelay has been implemented with the instruction cache assumed enabled.
1715:.\Generated_Source\PSoC5/CyLib.c ****     *   When instruction cache is disabled on PSoC5, CyDelayUs will be two times
1716:.\Generated_Source\PSoC5/CyLib.c ****     *   larger. Ex: With instruction cache disabled CyDelayUs(100) would result
1717:.\Generated_Source\PSoC5/CyLib.c ****     *   in about 200us delay instead of 100us.
1718:.\Generated_Source\PSoC5/CyLib.c ****     *
1719:.\Generated_Source\PSoC5/CyLib.c ****     * Parameters:
1720:.\Generated_Source\PSoC5/CyLib.c ****     *  uint16 microseconds: number of microseconds to delay.
1721:.\Generated_Source\PSoC5/CyLib.c ****     *
1722:.\Generated_Source\PSoC5/CyLib.c ****     * Return:
1723:.\Generated_Source\PSoC5/CyLib.c ****     *  None
1724:.\Generated_Source\PSoC5/CyLib.c ****     *
1725:.\Generated_Source\PSoC5/CyLib.c ****     * Side Effects:
1726:.\Generated_Source\PSoC5/CyLib.c ****     *  CyDelayUS has been implemented with the instruction cache assumed enabled.
1727:.\Generated_Source\PSoC5/CyLib.c ****     *  When instruction cache is disabled on PSoC 5, CyDelayUs will be two times
1728:.\Generated_Source\PSoC5/CyLib.c ****     *  larger. For example, with instruction cache disabled CyDelayUs(100) would
1729:.\Generated_Source\PSoC5/CyLib.c ****     *  result in about 200 us delay instead of 100 us.
1730:.\Generated_Source\PSoC5/CyLib.c ****     *
1731:.\Generated_Source\PSoC5/CyLib.c ****     *  If the bus clock frequency is a small non-integer number, the actual delay
1732:.\Generated_Source\PSoC5/CyLib.c ****     *  can be up to twice as long as the nominal value. The actual delay cannot be
1733:.\Generated_Source\PSoC5/CyLib.c ****     *  shorter than the nominal one.
1734:.\Generated_Source\PSoC5/CyLib.c ****     *******************************************************************************/
1735:.\Generated_Source\PSoC5/CyLib.c ****     void CyDelayUs(uint16 microseconds) CYREENTRANT
1736:.\Generated_Source\PSoC5/CyLib.c ****     {
 3029              		.loc 1 1736 0
 3030              		.cfi_startproc
 3031              		@ args = 0, pretend = 0, frame = 8
 3032              		@ frame_needed = 1, uses_anonymous_args = 0
 3033 0000 80B5     		push	{r7, lr}
 3034              		.cfi_def_cfa_offset 8
 3035              		.cfi_offset 7, -8
 3036              		.cfi_offset 14, -4
 3037 0002 82B0     		sub	sp, sp, #8
 3038              		.cfi_def_cfa_offset 16
ARM GAS  C:\Users\Rolando\AppData\Local\Temp\ccmqTZg9.s 			page 85


 3039 0004 00AF     		add	r7, sp, #0
 3040              		.cfi_def_cfa_register 7
 3041 0006 0346     		mov	r3, r0
 3042 0008 FB80     		strh	r3, [r7, #6]	@ movhi
1737:.\Generated_Source\PSoC5/CyLib.c ****         CyDelayCycles((uint32)microseconds * cydelay_freq_mhz);
 3043              		.loc 1 1737 0
 3044 000a FB88     		ldrh	r3, [r7, #6]
 3045 000c 044A     		ldr	r2, .L224
 3046 000e 1278     		ldrb	r2, [r2]	@ zero_extendqisi2
 3047 0010 02FB03F3 		mul	r3, r2, r3
 3048 0014 1846     		mov	r0, r3
 3049 0016 FFF7FEFF 		bl	CyDelayCycles
1738:.\Generated_Source\PSoC5/CyLib.c ****     }
 3050              		.loc 1 1738 0
 3051 001a 0837     		adds	r7, r7, #8
 3052              		.cfi_def_cfa_offset 8
 3053 001c BD46     		mov	sp, r7
 3054              		.cfi_def_cfa_register 13
 3055              		@ sp needed
 3056 001e 80BD     		pop	{r7, pc}
 3057              	.L225:
 3058              		.align	2
 3059              	.L224:
 3060 0020 00000000 		.word	cydelay_freq_mhz
 3061              		.cfi_endproc
 3062              	.LFE42:
 3063              		.size	CyDelayUs, .-CyDelayUs
 3064              		.section	.text.CyDelayFreq,"ax",%progbits
 3065              		.align	2
 3066              		.global	CyDelayFreq
 3067              		.thumb
 3068              		.thumb_func
 3069              		.type	CyDelayFreq, %function
 3070              	CyDelayFreq:
 3071              	.LFB43:
1739:.\Generated_Source\PSoC5/CyLib.c **** 
1740:.\Generated_Source\PSoC5/CyLib.c **** #endif  /* (!CY_PSOC3) */
1741:.\Generated_Source\PSoC5/CyLib.c **** 
1742:.\Generated_Source\PSoC5/CyLib.c **** 
1743:.\Generated_Source\PSoC5/CyLib.c **** /*******************************************************************************
1744:.\Generated_Source\PSoC5/CyLib.c **** * Function Name: CyDelayFreq
1745:.\Generated_Source\PSoC5/CyLib.c **** ********************************************************************************
1746:.\Generated_Source\PSoC5/CyLib.c **** *
1747:.\Generated_Source\PSoC5/CyLib.c **** * Summary:
1748:.\Generated_Source\PSoC5/CyLib.c **** *  Sets clock frequency for CyDelay.
1749:.\Generated_Source\PSoC5/CyLib.c **** *
1750:.\Generated_Source\PSoC5/CyLib.c **** * Parameters:
1751:.\Generated_Source\PSoC5/CyLib.c **** *  freq: Frequency of bus clock in Hertz.
1752:.\Generated_Source\PSoC5/CyLib.c **** *
1753:.\Generated_Source\PSoC5/CyLib.c **** * Return:
1754:.\Generated_Source\PSoC5/CyLib.c **** *  None
1755:.\Generated_Source\PSoC5/CyLib.c **** *
1756:.\Generated_Source\PSoC5/CyLib.c **** *******************************************************************************/
1757:.\Generated_Source\PSoC5/CyLib.c **** void CyDelayFreq(uint32 freq) CYREENTRANT
1758:.\Generated_Source\PSoC5/CyLib.c **** {
 3072              		.loc 1 1758 0
 3073              		.cfi_startproc
ARM GAS  C:\Users\Rolando\AppData\Local\Temp\ccmqTZg9.s 			page 86


 3074              		@ args = 0, pretend = 0, frame = 8
 3075              		@ frame_needed = 1, uses_anonymous_args = 0
 3076              		@ link register save eliminated.
 3077 0000 80B4     		push	{r7}
 3078              		.cfi_def_cfa_offset 4
 3079              		.cfi_offset 7, -4
 3080 0002 83B0     		sub	sp, sp, #12
 3081              		.cfi_def_cfa_offset 16
 3082 0004 00AF     		add	r7, sp, #0
 3083              		.cfi_def_cfa_register 7
 3084 0006 7860     		str	r0, [r7, #4]
1759:.\Generated_Source\PSoC5/CyLib.c ****     if (freq != 0u)
 3085              		.loc 1 1759 0
 3086 0008 7B68     		ldr	r3, [r7, #4]
 3087 000a 002B     		cmp	r3, #0
 3088 000c 03D0     		beq	.L227
1760:.\Generated_Source\PSoC5/CyLib.c ****     {
1761:.\Generated_Source\PSoC5/CyLib.c ****         cydelay_freq_hz = freq;
 3089              		.loc 1 1761 0
 3090 000e 144A     		ldr	r2, .L229
 3091 0010 7B68     		ldr	r3, [r7, #4]
 3092 0012 1360     		str	r3, [r2]
 3093 0014 02E0     		b	.L228
 3094              	.L227:
1762:.\Generated_Source\PSoC5/CyLib.c ****     }
1763:.\Generated_Source\PSoC5/CyLib.c ****     else
1764:.\Generated_Source\PSoC5/CyLib.c ****     {
1765:.\Generated_Source\PSoC5/CyLib.c ****         cydelay_freq_hz = BCLK__BUS_CLK__HZ;
 3095              		.loc 1 1765 0
 3096 0016 124B     		ldr	r3, .L229
 3097 0018 124A     		ldr	r2, .L229+4
 3098 001a 1A60     		str	r2, [r3]
 3099              	.L228:
1766:.\Generated_Source\PSoC5/CyLib.c ****     }
1767:.\Generated_Source\PSoC5/CyLib.c **** 
1768:.\Generated_Source\PSoC5/CyLib.c ****     cydelay_freq_mhz = (uint8)((cydelay_freq_hz + 999999u) / 1000000u);
 3100              		.loc 1 1768 0
 3101 001c 104B     		ldr	r3, .L229
 3102 001e 1B68     		ldr	r3, [r3]
 3103 0020 03F57423 		add	r3, r3, #999424
 3104 0024 03F23F23 		addw	r3, r3, #575
 3105 0028 0F4A     		ldr	r2, .L229+8
 3106 002a A2FB0323 		umull	r2, r3, r2, r3
 3107 002e 9B0C     		lsrs	r3, r3, #18
 3108 0030 DAB2     		uxtb	r2, r3
 3109 0032 0E4B     		ldr	r3, .L229+12
 3110 0034 1A70     		strb	r2, [r3]
1769:.\Generated_Source\PSoC5/CyLib.c ****     cydelay_freq_khz = (cydelay_freq_hz + 999u) / 1000u;
 3111              		.loc 1 1769 0
 3112 0036 0A4B     		ldr	r3, .L229
 3113 0038 1B68     		ldr	r3, [r3]
 3114 003a 03F2E733 		addw	r3, r3, #999
 3115 003e 0C4A     		ldr	r2, .L229+16
 3116 0040 A2FB0323 		umull	r2, r3, r2, r3
 3117 0044 9B09     		lsrs	r3, r3, #6
 3118 0046 0B4A     		ldr	r2, .L229+20
 3119 0048 1360     		str	r3, [r2]
ARM GAS  C:\Users\Rolando\AppData\Local\Temp\ccmqTZg9.s 			page 87


1770:.\Generated_Source\PSoC5/CyLib.c ****     cydelay_32k_ms   = 32768u * cydelay_freq_khz;
 3120              		.loc 1 1770 0
 3121 004a 0A4B     		ldr	r3, .L229+20
 3122 004c 1B68     		ldr	r3, [r3]
 3123 004e DB03     		lsls	r3, r3, #15
 3124 0050 094A     		ldr	r2, .L229+24
 3125 0052 1360     		str	r3, [r2]
1771:.\Generated_Source\PSoC5/CyLib.c **** }
 3126              		.loc 1 1771 0
 3127 0054 0C37     		adds	r7, r7, #12
 3128              		.cfi_def_cfa_offset 4
 3129 0056 BD46     		mov	sp, r7
 3130              		.cfi_def_cfa_register 13
 3131              		@ sp needed
 3132 0058 5DF8047B 		ldr	r7, [sp], #4
 3133              		.cfi_restore 7
 3134              		.cfi_def_cfa_offset 0
 3135 005c 7047     		bx	lr
 3136              	.L230:
 3137 005e 00BF     		.align	2
 3138              	.L229:
 3139 0060 00000000 		.word	cydelay_freq_hz
 3140 0064 00512502 		.word	36000000
 3141 0068 83DE1B43 		.word	1125899907
 3142 006c 00000000 		.word	cydelay_freq_mhz
 3143 0070 D34D6210 		.word	274877907
 3144 0074 00000000 		.word	cydelay_freq_khz
 3145 0078 00000000 		.word	cydelay_32k_ms
 3146              		.cfi_endproc
 3147              	.LFE43:
 3148              		.size	CyDelayFreq, .-CyDelayFreq
 3149              		.section	.text.CyWdtStart,"ax",%progbits
 3150              		.align	2
 3151              		.global	CyWdtStart
 3152              		.thumb
 3153              		.thumb_func
 3154              		.type	CyWdtStart, %function
 3155              	CyWdtStart:
 3156              	.LFB44:
1772:.\Generated_Source\PSoC5/CyLib.c **** 
1773:.\Generated_Source\PSoC5/CyLib.c **** 
1774:.\Generated_Source\PSoC5/CyLib.c **** /*******************************************************************************
1775:.\Generated_Source\PSoC5/CyLib.c **** * Function Name: CyWdtStart
1776:.\Generated_Source\PSoC5/CyLib.c **** ********************************************************************************
1777:.\Generated_Source\PSoC5/CyLib.c **** *
1778:.\Generated_Source\PSoC5/CyLib.c **** * Summary:
1779:.\Generated_Source\PSoC5/CyLib.c **** *  Enables the watchdog timer.
1780:.\Generated_Source\PSoC5/CyLib.c **** *
1781:.\Generated_Source\PSoC5/CyLib.c **** *  The timer is configured for the specified count interval, the central
1782:.\Generated_Source\PSoC5/CyLib.c **** *  timewheel is cleared, the setting for low power mode is configured and the
1783:.\Generated_Source\PSoC5/CyLib.c **** *  watchdog timer is enabled.
1784:.\Generated_Source\PSoC5/CyLib.c **** *
1785:.\Generated_Source\PSoC5/CyLib.c **** *  Once enabled the watchdog cannot be disabled. The watchdog counts each time
1786:.\Generated_Source\PSoC5/CyLib.c **** *  the Central Time Wheel (CTW) reaches the period specified. The watchdog must
1787:.\Generated_Source\PSoC5/CyLib.c **** *  be cleared using the CyWdtClear() function before three ticks of the watchdog
1788:.\Generated_Source\PSoC5/CyLib.c **** *  timer occur. The CTW is free running, so this will occur after between 2 and
1789:.\Generated_Source\PSoC5/CyLib.c **** *  3 timer periods elapse.
ARM GAS  C:\Users\Rolando\AppData\Local\Temp\ccmqTZg9.s 			page 88


1790:.\Generated_Source\PSoC5/CyLib.c **** *
1791:.\Generated_Source\PSoC5/CyLib.c **** *  PSoC5: The watchdog timer should not be used during sleep modes. Since the
1792:.\Generated_Source\PSoC5/CyLib.c **** *  WDT cannot be disabled after it is enabled, the WDT timeout period can be
1793:.\Generated_Source\PSoC5/CyLib.c **** *  set to be greater than the sleep wakeup period, then feed the dog on each
1794:.\Generated_Source\PSoC5/CyLib.c **** *  wakeup from Sleep.
1795:.\Generated_Source\PSoC5/CyLib.c **** *
1796:.\Generated_Source\PSoC5/CyLib.c **** * Parameters:
1797:.\Generated_Source\PSoC5/CyLib.c **** *  ticks: One of the four available timer periods. Once WDT enabled, the
1798:.\Generated_Source\PSoC5/CyLib.c ****    interval cannot be changed.
1799:.\Generated_Source\PSoC5/CyLib.c **** *         CYWDT_2_TICKS     -     4 - 6     ms
1800:.\Generated_Source\PSoC5/CyLib.c **** *         CYWDT_16_TICKS    -    32 - 48    ms
1801:.\Generated_Source\PSoC5/CyLib.c **** *         CYWDT_128_TICKS   -   256 - 384   ms
1802:.\Generated_Source\PSoC5/CyLib.c **** *         CYWDT_1024_TICKS  - 2.048 - 3.072 s
1803:.\Generated_Source\PSoC5/CyLib.c **** *
1804:.\Generated_Source\PSoC5/CyLib.c **** *  lpMode: Low power mode configuration. This parameter is ignored for PSoC 5.
1805:.\Generated_Source\PSoC5/CyLib.c **** *          The WDT always acts as if CYWDT_LPMODE_NOCHANGE is passed.
1806:.\Generated_Source\PSoC5/CyLib.c **** *
1807:.\Generated_Source\PSoC5/CyLib.c **** *          CYWDT_LPMODE_NOCHANGE - No Change
1808:.\Generated_Source\PSoC5/CyLib.c **** *          CYWDT_LPMODE_MAXINTER - Switch to longest timer mode during low power
1809:.\Generated_Source\PSoC5/CyLib.c **** *                                 mode
1810:.\Generated_Source\PSoC5/CyLib.c **** *          CYWDT_LPMODE_DISABLED - Disable WDT during low power mode
1811:.\Generated_Source\PSoC5/CyLib.c **** *
1812:.\Generated_Source\PSoC5/CyLib.c **** * Return:
1813:.\Generated_Source\PSoC5/CyLib.c **** *  None
1814:.\Generated_Source\PSoC5/CyLib.c **** *
1815:.\Generated_Source\PSoC5/CyLib.c **** * Side Effects:
1816:.\Generated_Source\PSoC5/CyLib.c **** *  PSoC5: The ILO 1 KHz must be enabled for proper WDT operation. Stopping the
1817:.\Generated_Source\PSoC5/CyLib.c **** *  ILO 1 kHz could break the active WDT functionality.
1818:.\Generated_Source\PSoC5/CyLib.c **** *
1819:.\Generated_Source\PSoC5/CyLib.c **** *******************************************************************************/
1820:.\Generated_Source\PSoC5/CyLib.c **** void CyWdtStart(uint8 ticks, uint8 lpMode) 
1821:.\Generated_Source\PSoC5/CyLib.c **** {
 3157              		.loc 1 1821 0
 3158              		.cfi_startproc
 3159              		@ args = 0, pretend = 0, frame = 8
 3160              		@ frame_needed = 1, uses_anonymous_args = 0
 3161              		@ link register save eliminated.
 3162 0000 80B4     		push	{r7}
 3163              		.cfi_def_cfa_offset 4
 3164              		.cfi_offset 7, -4
 3165 0002 83B0     		sub	sp, sp, #12
 3166              		.cfi_def_cfa_offset 16
 3167 0004 00AF     		add	r7, sp, #0
 3168              		.cfi_def_cfa_register 7
 3169 0006 0346     		mov	r3, r0
 3170 0008 0A46     		mov	r2, r1
 3171 000a FB71     		strb	r3, [r7, #7]
 3172 000c 1346     		mov	r3, r2
 3173 000e BB71     		strb	r3, [r7, #6]
1822:.\Generated_Source\PSoC5/CyLib.c ****     /* Set WDT interval */
1823:.\Generated_Source\PSoC5/CyLib.c ****     CY_WDT_CFG_REG = (CY_WDT_CFG_REG & ((uint8)(~CY_WDT_CFG_INTERVAL_MASK))) | (ticks & CY_WDT_CFG_
 3174              		.loc 1 1823 0
 3175 0010 1D49     		ldr	r1, .L232
 3176 0012 1D4B     		ldr	r3, .L232
 3177 0014 1B78     		ldrb	r3, [r3]
 3178 0016 DBB2     		uxtb	r3, r3
 3179 0018 23F00303 		bic	r3, r3, #3
ARM GAS  C:\Users\Rolando\AppData\Local\Temp\ccmqTZg9.s 			page 89


 3180 001c DAB2     		uxtb	r2, r3
 3181 001e FB79     		ldrb	r3, [r7, #7]
 3182 0020 03F00303 		and	r3, r3, #3
 3183 0024 DBB2     		uxtb	r3, r3
 3184 0026 1343     		orrs	r3, r3, r2
 3185 0028 DBB2     		uxtb	r3, r3
 3186 002a 0B70     		strb	r3, [r1]
1824:.\Generated_Source\PSoC5/CyLib.c **** 
1825:.\Generated_Source\PSoC5/CyLib.c ****     /* Reset CTW to ensure that first watchdog period is full */
1826:.\Generated_Source\PSoC5/CyLib.c ****     CY_WDT_CFG_REG |= CY_WDT_CFG_CTW_RESET;
 3187              		.loc 1 1826 0
 3188 002c 164A     		ldr	r2, .L232
 3189 002e 164B     		ldr	r3, .L232
 3190 0030 1B78     		ldrb	r3, [r3]
 3191 0032 DBB2     		uxtb	r3, r3
 3192 0034 63F07F03 		orn	r3, r3, #127
 3193 0038 DBB2     		uxtb	r3, r3
 3194 003a 1370     		strb	r3, [r2]
1827:.\Generated_Source\PSoC5/CyLib.c ****     CY_WDT_CFG_REG &= ((uint8)(~CY_WDT_CFG_CTW_RESET));
 3195              		.loc 1 1827 0
 3196 003c 124A     		ldr	r2, .L232
 3197 003e 124B     		ldr	r3, .L232
 3198 0040 1B78     		ldrb	r3, [r3]
 3199 0042 DBB2     		uxtb	r3, r3
 3200 0044 03F07F03 		and	r3, r3, #127
 3201 0048 DBB2     		uxtb	r3, r3
 3202 004a 1370     		strb	r3, [r2]
1828:.\Generated_Source\PSoC5/CyLib.c **** 
1829:.\Generated_Source\PSoC5/CyLib.c ****     /* Setting the low power mode */
1830:.\Generated_Source\PSoC5/CyLib.c ****     CY_WDT_CFG_REG = (((uint8)(lpMode << CY_WDT_CFG_LPMODE_SHIFT)) & CY_WDT_CFG_LPMODE_MASK) |
 3203              		.loc 1 1830 0
 3204 004c 0E49     		ldr	r1, .L232
 3205 004e BB79     		ldrb	r3, [r7, #6]
 3206 0050 5B01     		lsls	r3, r3, #5
 3207 0052 DBB2     		uxtb	r3, r3
 3208 0054 03F06003 		and	r3, r3, #96
 3209 0058 DAB2     		uxtb	r2, r3
1831:.\Generated_Source\PSoC5/CyLib.c ****                        (CY_WDT_CFG_REG & ((uint8)(~CY_WDT_CFG_LPMODE_MASK)));
 3210              		.loc 1 1831 0
 3211 005a 0B4B     		ldr	r3, .L232
 3212 005c 1B78     		ldrb	r3, [r3]
 3213 005e DBB2     		uxtb	r3, r3
1830:.\Generated_Source\PSoC5/CyLib.c ****                        (CY_WDT_CFG_REG & ((uint8)(~CY_WDT_CFG_LPMODE_MASK)));
 3214              		.loc 1 1830 0
 3215 0060 23F06003 		bic	r3, r3, #96
 3216 0064 DBB2     		uxtb	r3, r3
 3217 0066 1343     		orrs	r3, r3, r2
 3218 0068 DBB2     		uxtb	r3, r3
 3219 006a 0B70     		strb	r3, [r1]
1832:.\Generated_Source\PSoC5/CyLib.c **** 
1833:.\Generated_Source\PSoC5/CyLib.c ****     /* Enables the watchdog reset */
1834:.\Generated_Source\PSoC5/CyLib.c ****     CY_WDT_CFG_REG |= CY_WDT_CFG_WDR_EN;
 3220              		.loc 1 1834 0
 3221 006c 064A     		ldr	r2, .L232
 3222 006e 064B     		ldr	r3, .L232
 3223 0070 1B78     		ldrb	r3, [r3]
 3224 0072 DBB2     		uxtb	r3, r3
ARM GAS  C:\Users\Rolando\AppData\Local\Temp\ccmqTZg9.s 			page 90


 3225 0074 43F01003 		orr	r3, r3, #16
 3226 0078 DBB2     		uxtb	r3, r3
 3227 007a 1370     		strb	r3, [r2]
1835:.\Generated_Source\PSoC5/CyLib.c **** }
 3228              		.loc 1 1835 0
 3229 007c 0C37     		adds	r7, r7, #12
 3230              		.cfi_def_cfa_offset 4
 3231 007e BD46     		mov	sp, r7
 3232              		.cfi_def_cfa_register 13
 3233              		@ sp needed
 3234 0080 5DF8047B 		ldr	r7, [sp], #4
 3235              		.cfi_restore 7
 3236              		.cfi_def_cfa_offset 0
 3237 0084 7047     		bx	lr
 3238              	.L233:
 3239 0086 00BF     		.align	2
 3240              	.L232:
 3241 0088 83430040 		.word	1073759107
 3242              		.cfi_endproc
 3243              	.LFE44:
 3244              		.size	CyWdtStart, .-CyWdtStart
 3245              		.section	.text.CyWdtClear,"ax",%progbits
 3246              		.align	2
 3247              		.global	CyWdtClear
 3248              		.thumb
 3249              		.thumb_func
 3250              		.type	CyWdtClear, %function
 3251              	CyWdtClear:
 3252              	.LFB45:
1836:.\Generated_Source\PSoC5/CyLib.c **** 
1837:.\Generated_Source\PSoC5/CyLib.c **** 
1838:.\Generated_Source\PSoC5/CyLib.c **** /*******************************************************************************
1839:.\Generated_Source\PSoC5/CyLib.c **** * Function Name: CyWdtClear
1840:.\Generated_Source\PSoC5/CyLib.c **** ********************************************************************************
1841:.\Generated_Source\PSoC5/CyLib.c **** *
1842:.\Generated_Source\PSoC5/CyLib.c **** * Summary:
1843:.\Generated_Source\PSoC5/CyLib.c **** *  Clears (feeds) the watchdog timer.
1844:.\Generated_Source\PSoC5/CyLib.c **** *
1845:.\Generated_Source\PSoC5/CyLib.c **** * Parameters:
1846:.\Generated_Source\PSoC5/CyLib.c **** *  None
1847:.\Generated_Source\PSoC5/CyLib.c **** *
1848:.\Generated_Source\PSoC5/CyLib.c **** * Return:
1849:.\Generated_Source\PSoC5/CyLib.c **** *  None
1850:.\Generated_Source\PSoC5/CyLib.c **** *
1851:.\Generated_Source\PSoC5/CyLib.c **** *******************************************************************************/
1852:.\Generated_Source\PSoC5/CyLib.c **** void CyWdtClear(void) 
1853:.\Generated_Source\PSoC5/CyLib.c **** {
 3253              		.loc 1 1853 0
 3254              		.cfi_startproc
 3255              		@ args = 0, pretend = 0, frame = 0
 3256              		@ frame_needed = 1, uses_anonymous_args = 0
 3257              		@ link register save eliminated.
 3258 0000 80B4     		push	{r7}
 3259              		.cfi_def_cfa_offset 4
 3260              		.cfi_offset 7, -4
 3261 0002 00AF     		add	r7, sp, #0
 3262              		.cfi_def_cfa_register 7
ARM GAS  C:\Users\Rolando\AppData\Local\Temp\ccmqTZg9.s 			page 91


1854:.\Generated_Source\PSoC5/CyLib.c ****     CY_WDT_CR_REG = CY_WDT_CR_FEED;
 3263              		.loc 1 1854 0
 3264 0004 034B     		ldr	r3, .L235
 3265 0006 0122     		movs	r2, #1
 3266 0008 1A70     		strb	r2, [r3]
1855:.\Generated_Source\PSoC5/CyLib.c **** }
 3267              		.loc 1 1855 0
 3268 000a BD46     		mov	sp, r7
 3269              		.cfi_def_cfa_register 13
 3270              		@ sp needed
 3271 000c 5DF8047B 		ldr	r7, [sp], #4
 3272              		.cfi_restore 7
 3273              		.cfi_def_cfa_offset 0
 3274 0010 7047     		bx	lr
 3275              	.L236:
 3276 0012 00BF     		.align	2
 3277              	.L235:
 3278 0014 84430040 		.word	1073759108
 3279              		.cfi_endproc
 3280              	.LFE45:
 3281              		.size	CyWdtClear, .-CyWdtClear
 3282              		.section	.text.CyVdLvDigitEnable,"ax",%progbits
 3283              		.align	2
 3284              		.global	CyVdLvDigitEnable
 3285              		.thumb
 3286              		.thumb_func
 3287              		.type	CyVdLvDigitEnable, %function
 3288              	CyVdLvDigitEnable:
 3289              	.LFB46:
1856:.\Generated_Source\PSoC5/CyLib.c **** 
1857:.\Generated_Source\PSoC5/CyLib.c **** 
1858:.\Generated_Source\PSoC5/CyLib.c **** 
1859:.\Generated_Source\PSoC5/CyLib.c **** /*******************************************************************************
1860:.\Generated_Source\PSoC5/CyLib.c **** * Function Name: CyVdLvDigitEnable
1861:.\Generated_Source\PSoC5/CyLib.c **** ********************************************************************************
1862:.\Generated_Source\PSoC5/CyLib.c **** *
1863:.\Generated_Source\PSoC5/CyLib.c **** * Summary:
1864:.\Generated_Source\PSoC5/CyLib.c **** *  Enables the digital low voltage monitors to generate interrupt on Vddd
1865:.\Generated_Source\PSoC5/CyLib.c **** *   archives specified threshold and optionally resets device.
1866:.\Generated_Source\PSoC5/CyLib.c **** *
1867:.\Generated_Source\PSoC5/CyLib.c **** * Parameters:
1868:.\Generated_Source\PSoC5/CyLib.c **** *  reset: Option to reset device at a specified Vddd threshold:
1869:.\Generated_Source\PSoC5/CyLib.c **** *           0 - Device is not reset.
1870:.\Generated_Source\PSoC5/CyLib.c **** *           1 - Device is reset.
1871:.\Generated_Source\PSoC5/CyLib.c **** *
1872:.\Generated_Source\PSoC5/CyLib.c **** *  threshold: Sets the trip level for the voltage monitor.
1873:.\Generated_Source\PSoC5/CyLib.c **** *  Values from 1.70 V to 5.45 V are accepted with the approximately 250 mV
1874:.\Generated_Source\PSoC5/CyLib.c **** *  interval.
1875:.\Generated_Source\PSoC5/CyLib.c **** *
1876:.\Generated_Source\PSoC5/CyLib.c **** * Return:
1877:.\Generated_Source\PSoC5/CyLib.c **** *  None
1878:.\Generated_Source\PSoC5/CyLib.c **** *
1879:.\Generated_Source\PSoC5/CyLib.c **** *******************************************************************************/
1880:.\Generated_Source\PSoC5/CyLib.c **** void CyVdLvDigitEnable(uint8 reset, uint8 threshold) 
1881:.\Generated_Source\PSoC5/CyLib.c **** {
 3290              		.loc 1 1881 0
 3291              		.cfi_startproc
ARM GAS  C:\Users\Rolando\AppData\Local\Temp\ccmqTZg9.s 			page 92


 3292              		@ args = 0, pretend = 0, frame = 8
 3293              		@ frame_needed = 1, uses_anonymous_args = 0
 3294 0000 80B5     		push	{r7, lr}
 3295              		.cfi_def_cfa_offset 8
 3296              		.cfi_offset 7, -8
 3297              		.cfi_offset 14, -4
 3298 0002 82B0     		sub	sp, sp, #8
 3299              		.cfi_def_cfa_offset 16
 3300 0004 00AF     		add	r7, sp, #0
 3301              		.cfi_def_cfa_register 7
 3302 0006 0346     		mov	r3, r0
 3303 0008 0A46     		mov	r2, r1
 3304 000a FB71     		strb	r3, [r7, #7]
 3305 000c 1346     		mov	r3, r2
 3306 000e BB71     		strb	r3, [r7, #6]
1882:.\Generated_Source\PSoC5/CyLib.c ****     *CY_INT_CLEAR_PTR = 0x01u;
 3307              		.loc 1 1882 0
 3308 0010 214B     		ldr	r3, .L240
 3309 0012 0122     		movs	r2, #1
 3310 0014 1A60     		str	r2, [r3]
1883:.\Generated_Source\PSoC5/CyLib.c **** 
1884:.\Generated_Source\PSoC5/CyLib.c ****     CY_VD_PRES_CONTROL_REG &= ((uint8)(~CY_VD_PRESD_EN));
 3311              		.loc 1 1884 0
 3312 0016 214A     		ldr	r2, .L240+4
 3313 0018 204B     		ldr	r3, .L240+4
 3314 001a 1B78     		ldrb	r3, [r3]
 3315 001c DBB2     		uxtb	r3, r3
 3316 001e 23F04003 		bic	r3, r3, #64
 3317 0022 DBB2     		uxtb	r3, r3
 3318 0024 1370     		strb	r3, [r2]
1885:.\Generated_Source\PSoC5/CyLib.c **** 
1886:.\Generated_Source\PSoC5/CyLib.c ****     CY_VD_LVI_TRIP_REG = (threshold & CY_VD_LVI_TRIP_LVID_MASK) |
 3319              		.loc 1 1886 0
 3320 0026 1E49     		ldr	r1, .L240+8
 3321 0028 BB79     		ldrb	r3, [r7, #6]
 3322 002a 03F00F03 		and	r3, r3, #15
 3323 002e DAB2     		uxtb	r2, r3
1887:.\Generated_Source\PSoC5/CyLib.c ****                             (CY_VD_LVI_TRIP_REG & ((uint8)(~CY_VD_LVI_TRIP_LVID_MASK)));
 3324              		.loc 1 1887 0
 3325 0030 1B4B     		ldr	r3, .L240+8
 3326 0032 1B78     		ldrb	r3, [r3]
 3327 0034 DBB2     		uxtb	r3, r3
1886:.\Generated_Source\PSoC5/CyLib.c ****                             (CY_VD_LVI_TRIP_REG & ((uint8)(~CY_VD_LVI_TRIP_LVID_MASK)));
 3328              		.loc 1 1886 0
 3329 0036 23F00F03 		bic	r3, r3, #15
 3330 003a DBB2     		uxtb	r3, r3
 3331 003c 1343     		orrs	r3, r3, r2
 3332 003e DBB2     		uxtb	r3, r3
 3333 0040 0B70     		strb	r3, [r1]
1888:.\Generated_Source\PSoC5/CyLib.c ****     CY_VD_LVI_HVI_CONTROL_REG |= CY_VD_LVID_EN;
 3334              		.loc 1 1888 0
 3335 0042 184A     		ldr	r2, .L240+12
 3336 0044 174B     		ldr	r3, .L240+12
 3337 0046 1B78     		ldrb	r3, [r3]
 3338 0048 DBB2     		uxtb	r3, r3
 3339 004a 43F00103 		orr	r3, r3, #1
 3340 004e DBB2     		uxtb	r3, r3
ARM GAS  C:\Users\Rolando\AppData\Local\Temp\ccmqTZg9.s 			page 93


 3341 0050 1370     		strb	r3, [r2]
1889:.\Generated_Source\PSoC5/CyLib.c **** 
1890:.\Generated_Source\PSoC5/CyLib.c ****     /* Timeout to eliminate glitches on the LVI/HVI when enabling */
1891:.\Generated_Source\PSoC5/CyLib.c ****     CyDelayUs(1u);
 3342              		.loc 1 1891 0
 3343 0052 0120     		movs	r0, #1
 3344 0054 FFF7FEFF 		bl	CyDelayUs
1892:.\Generated_Source\PSoC5/CyLib.c **** 
1893:.\Generated_Source\PSoC5/CyLib.c ****     (void)CY_VD_PERSISTENT_STATUS_REG;
 3345              		.loc 1 1893 0
 3346 0058 134B     		ldr	r3, .L240+16
 3347 005a 1B78     		ldrb	r3, [r3]
1894:.\Generated_Source\PSoC5/CyLib.c **** 
1895:.\Generated_Source\PSoC5/CyLib.c ****     if(0u != reset)
 3348              		.loc 1 1895 0
 3349 005c FB79     		ldrb	r3, [r7, #7]	@ zero_extendqisi2
 3350 005e 002B     		cmp	r3, #0
 3351 0060 08D0     		beq	.L238
1896:.\Generated_Source\PSoC5/CyLib.c ****     {
1897:.\Generated_Source\PSoC5/CyLib.c ****         CY_VD_PRES_CONTROL_REG |= CY_VD_PRESD_EN;
 3352              		.loc 1 1897 0
 3353 0062 0E4A     		ldr	r2, .L240+4
 3354 0064 0D4B     		ldr	r3, .L240+4
 3355 0066 1B78     		ldrb	r3, [r3]
 3356 0068 DBB2     		uxtb	r3, r3
 3357 006a 43F04003 		orr	r3, r3, #64
 3358 006e DBB2     		uxtb	r3, r3
 3359 0070 1370     		strb	r3, [r2]
 3360 0072 07E0     		b	.L239
 3361              	.L238:
1898:.\Generated_Source\PSoC5/CyLib.c ****     }
1899:.\Generated_Source\PSoC5/CyLib.c ****     else
1900:.\Generated_Source\PSoC5/CyLib.c ****     {
1901:.\Generated_Source\PSoC5/CyLib.c ****         CY_VD_PRES_CONTROL_REG &= ((uint8)(~CY_VD_PRESD_EN));
 3362              		.loc 1 1901 0
 3363 0074 094A     		ldr	r2, .L240+4
 3364 0076 094B     		ldr	r3, .L240+4
 3365 0078 1B78     		ldrb	r3, [r3]
 3366 007a DBB2     		uxtb	r3, r3
 3367 007c 23F04003 		bic	r3, r3, #64
 3368 0080 DBB2     		uxtb	r3, r3
 3369 0082 1370     		strb	r3, [r2]
 3370              	.L239:
1902:.\Generated_Source\PSoC5/CyLib.c ****     }
1903:.\Generated_Source\PSoC5/CyLib.c **** 
1904:.\Generated_Source\PSoC5/CyLib.c ****     *CY_INT_CLR_PEND_PTR = 0x01u;
 3371              		.loc 1 1904 0
 3372 0084 094B     		ldr	r3, .L240+20
 3373 0086 0122     		movs	r2, #1
 3374 0088 1A60     		str	r2, [r3]
1905:.\Generated_Source\PSoC5/CyLib.c ****     *CY_INT_ENABLE_PTR   = 0x01u;
 3375              		.loc 1 1905 0
 3376 008a 094B     		ldr	r3, .L240+24
 3377 008c 0122     		movs	r2, #1
 3378 008e 1A60     		str	r2, [r3]
1906:.\Generated_Source\PSoC5/CyLib.c **** }
 3379              		.loc 1 1906 0
ARM GAS  C:\Users\Rolando\AppData\Local\Temp\ccmqTZg9.s 			page 94


 3380 0090 0837     		adds	r7, r7, #8
 3381              		.cfi_def_cfa_offset 8
 3382 0092 BD46     		mov	sp, r7
 3383              		.cfi_def_cfa_register 13
 3384              		@ sp needed
 3385 0094 80BD     		pop	{r7, pc}
 3386              	.L241:
 3387 0096 00BF     		.align	2
 3388              	.L240:
 3389 0098 80E100E0 		.word	-536813184
 3390 009c F7460040 		.word	1073759991
 3391 00a0 F4460040 		.word	1073759988
 3392 00a4 F5460040 		.word	1073759989
 3393 00a8 FA460040 		.word	1073759994
 3394 00ac 80E200E0 		.word	-536812928
 3395 00b0 00E100E0 		.word	-536813312
 3396              		.cfi_endproc
 3397              	.LFE46:
 3398              		.size	CyVdLvDigitEnable, .-CyVdLvDigitEnable
 3399              		.section	.text.CyVdLvAnalogEnable,"ax",%progbits
 3400              		.align	2
 3401              		.global	CyVdLvAnalogEnable
 3402              		.thumb
 3403              		.thumb_func
 3404              		.type	CyVdLvAnalogEnable, %function
 3405              	CyVdLvAnalogEnable:
 3406              	.LFB47:
1907:.\Generated_Source\PSoC5/CyLib.c **** 
1908:.\Generated_Source\PSoC5/CyLib.c **** 
1909:.\Generated_Source\PSoC5/CyLib.c **** /*******************************************************************************
1910:.\Generated_Source\PSoC5/CyLib.c **** * Function Name: CyVdLvAnalogEnable
1911:.\Generated_Source\PSoC5/CyLib.c **** ********************************************************************************
1912:.\Generated_Source\PSoC5/CyLib.c **** *
1913:.\Generated_Source\PSoC5/CyLib.c **** * Summary:
1914:.\Generated_Source\PSoC5/CyLib.c **** *  Enables the analog low voltage monitors to generate interrupt on Vdda
1915:.\Generated_Source\PSoC5/CyLib.c **** *   archives specified threshold and optionally resets device.
1916:.\Generated_Source\PSoC5/CyLib.c **** *
1917:.\Generated_Source\PSoC5/CyLib.c **** * Parameters:
1918:.\Generated_Source\PSoC5/CyLib.c **** *  reset: Option to reset device at a specified Vdda threshold:
1919:.\Generated_Source\PSoC5/CyLib.c **** *           0 - Device is not reset.
1920:.\Generated_Source\PSoC5/CyLib.c **** *           1 - Device is reset.
1921:.\Generated_Source\PSoC5/CyLib.c **** *
1922:.\Generated_Source\PSoC5/CyLib.c **** *  threshold: Sets the trip level for the voltage monitor.
1923:.\Generated_Source\PSoC5/CyLib.c **** *  Values from 1.70 V to 5.45 V are accepted with the approximately 250 mV
1924:.\Generated_Source\PSoC5/CyLib.c **** *  interval.
1925:.\Generated_Source\PSoC5/CyLib.c **** *
1926:.\Generated_Source\PSoC5/CyLib.c **** * Return:
1927:.\Generated_Source\PSoC5/CyLib.c **** *  None
1928:.\Generated_Source\PSoC5/CyLib.c **** *
1929:.\Generated_Source\PSoC5/CyLib.c **** *******************************************************************************/
1930:.\Generated_Source\PSoC5/CyLib.c **** void CyVdLvAnalogEnable(uint8 reset, uint8 threshold) 
1931:.\Generated_Source\PSoC5/CyLib.c **** {
 3407              		.loc 1 1931 0
 3408              		.cfi_startproc
 3409              		@ args = 0, pretend = 0, frame = 8
 3410              		@ frame_needed = 1, uses_anonymous_args = 0
 3411 0000 80B5     		push	{r7, lr}
ARM GAS  C:\Users\Rolando\AppData\Local\Temp\ccmqTZg9.s 			page 95


 3412              		.cfi_def_cfa_offset 8
 3413              		.cfi_offset 7, -8
 3414              		.cfi_offset 14, -4
 3415 0002 82B0     		sub	sp, sp, #8
 3416              		.cfi_def_cfa_offset 16
 3417 0004 00AF     		add	r7, sp, #0
 3418              		.cfi_def_cfa_register 7
 3419 0006 0346     		mov	r3, r0
 3420 0008 0A46     		mov	r2, r1
 3421 000a FB71     		strb	r3, [r7, #7]
 3422 000c 1346     		mov	r3, r2
 3423 000e BB71     		strb	r3, [r7, #6]
1932:.\Generated_Source\PSoC5/CyLib.c ****     *CY_INT_CLEAR_PTR = 0x01u;
 3424              		.loc 1 1932 0
 3425 0010 204B     		ldr	r3, .L245
 3426 0012 0122     		movs	r2, #1
 3427 0014 1A60     		str	r2, [r3]
1933:.\Generated_Source\PSoC5/CyLib.c **** 
1934:.\Generated_Source\PSoC5/CyLib.c ****     CY_VD_PRES_CONTROL_REG &= ((uint8)(~CY_VD_PRESA_EN));
 3428              		.loc 1 1934 0
 3429 0016 204A     		ldr	r2, .L245+4
 3430 0018 1F4B     		ldr	r3, .L245+4
 3431 001a 1B78     		ldrb	r3, [r3]
 3432 001c DBB2     		uxtb	r3, r3
 3433 001e 03F07F03 		and	r3, r3, #127
 3434 0022 DBB2     		uxtb	r3, r3
 3435 0024 1370     		strb	r3, [r2]
1935:.\Generated_Source\PSoC5/CyLib.c **** 
1936:.\Generated_Source\PSoC5/CyLib.c ****     CY_VD_LVI_TRIP_REG = ((uint8)(threshold << 4u)) | (CY_VD_LVI_TRIP_REG & 0x0Fu);
 3436              		.loc 1 1936 0
 3437 0026 1D49     		ldr	r1, .L245+8
 3438 0028 BB79     		ldrb	r3, [r7, #6]
 3439 002a 1B01     		lsls	r3, r3, #4
 3440 002c DAB2     		uxtb	r2, r3
 3441 002e 1B4B     		ldr	r3, .L245+8
 3442 0030 1B78     		ldrb	r3, [r3]
 3443 0032 DBB2     		uxtb	r3, r3
 3444 0034 03F00F03 		and	r3, r3, #15
 3445 0038 DBB2     		uxtb	r3, r3
 3446 003a 1343     		orrs	r3, r3, r2
 3447 003c DBB2     		uxtb	r3, r3
 3448 003e 0B70     		strb	r3, [r1]
1937:.\Generated_Source\PSoC5/CyLib.c ****     CY_VD_LVI_HVI_CONTROL_REG |= CY_VD_LVIA_EN;
 3449              		.loc 1 1937 0
 3450 0040 174A     		ldr	r2, .L245+12
 3451 0042 174B     		ldr	r3, .L245+12
 3452 0044 1B78     		ldrb	r3, [r3]
 3453 0046 DBB2     		uxtb	r3, r3
 3454 0048 43F00203 		orr	r3, r3, #2
 3455 004c DBB2     		uxtb	r3, r3
 3456 004e 1370     		strb	r3, [r2]
1938:.\Generated_Source\PSoC5/CyLib.c **** 
1939:.\Generated_Source\PSoC5/CyLib.c ****     /* Timeout to eliminate glitches on the LVI/HVI when enabling */
1940:.\Generated_Source\PSoC5/CyLib.c ****     CyDelayUs(1u);
 3457              		.loc 1 1940 0
 3458 0050 0120     		movs	r0, #1
 3459 0052 FFF7FEFF 		bl	CyDelayUs
ARM GAS  C:\Users\Rolando\AppData\Local\Temp\ccmqTZg9.s 			page 96


1941:.\Generated_Source\PSoC5/CyLib.c **** 
1942:.\Generated_Source\PSoC5/CyLib.c ****     (void)CY_VD_PERSISTENT_STATUS_REG;
 3460              		.loc 1 1942 0
 3461 0056 134B     		ldr	r3, .L245+16
 3462 0058 1B78     		ldrb	r3, [r3]
1943:.\Generated_Source\PSoC5/CyLib.c **** 
1944:.\Generated_Source\PSoC5/CyLib.c ****     if(0u != reset)
 3463              		.loc 1 1944 0
 3464 005a FB79     		ldrb	r3, [r7, #7]	@ zero_extendqisi2
 3465 005c 002B     		cmp	r3, #0
 3466 005e 08D0     		beq	.L243
1945:.\Generated_Source\PSoC5/CyLib.c ****     {
1946:.\Generated_Source\PSoC5/CyLib.c ****         CY_VD_PRES_CONTROL_REG |= CY_VD_PRESA_EN;
 3467              		.loc 1 1946 0
 3468 0060 0D4A     		ldr	r2, .L245+4
 3469 0062 0D4B     		ldr	r3, .L245+4
 3470 0064 1B78     		ldrb	r3, [r3]
 3471 0066 DBB2     		uxtb	r3, r3
 3472 0068 63F07F03 		orn	r3, r3, #127
 3473 006c DBB2     		uxtb	r3, r3
 3474 006e 1370     		strb	r3, [r2]
 3475 0070 07E0     		b	.L244
 3476              	.L243:
1947:.\Generated_Source\PSoC5/CyLib.c ****     }
1948:.\Generated_Source\PSoC5/CyLib.c ****     else
1949:.\Generated_Source\PSoC5/CyLib.c ****     {
1950:.\Generated_Source\PSoC5/CyLib.c ****         CY_VD_PRES_CONTROL_REG &= ((uint8)(~CY_VD_PRESA_EN));
 3477              		.loc 1 1950 0
 3478 0072 094A     		ldr	r2, .L245+4
 3479 0074 084B     		ldr	r3, .L245+4
 3480 0076 1B78     		ldrb	r3, [r3]
 3481 0078 DBB2     		uxtb	r3, r3
 3482 007a 03F07F03 		and	r3, r3, #127
 3483 007e DBB2     		uxtb	r3, r3
 3484 0080 1370     		strb	r3, [r2]
 3485              	.L244:
1951:.\Generated_Source\PSoC5/CyLib.c ****     }
1952:.\Generated_Source\PSoC5/CyLib.c **** 
1953:.\Generated_Source\PSoC5/CyLib.c ****     *CY_INT_CLR_PEND_PTR = 0x01u;
 3486              		.loc 1 1953 0
 3487 0082 094B     		ldr	r3, .L245+20
 3488 0084 0122     		movs	r2, #1
 3489 0086 1A60     		str	r2, [r3]
1954:.\Generated_Source\PSoC5/CyLib.c ****     *CY_INT_ENABLE_PTR   = 0x01u;
 3490              		.loc 1 1954 0
 3491 0088 084B     		ldr	r3, .L245+24
 3492 008a 0122     		movs	r2, #1
 3493 008c 1A60     		str	r2, [r3]
1955:.\Generated_Source\PSoC5/CyLib.c **** }
 3494              		.loc 1 1955 0
 3495 008e 0837     		adds	r7, r7, #8
 3496              		.cfi_def_cfa_offset 8
 3497 0090 BD46     		mov	sp, r7
 3498              		.cfi_def_cfa_register 13
 3499              		@ sp needed
 3500 0092 80BD     		pop	{r7, pc}
 3501              	.L246:
ARM GAS  C:\Users\Rolando\AppData\Local\Temp\ccmqTZg9.s 			page 97


 3502              		.align	2
 3503              	.L245:
 3504 0094 80E100E0 		.word	-536813184
 3505 0098 F7460040 		.word	1073759991
 3506 009c F4460040 		.word	1073759988
 3507 00a0 F5460040 		.word	1073759989
 3508 00a4 FA460040 		.word	1073759994
 3509 00a8 80E200E0 		.word	-536812928
 3510 00ac 00E100E0 		.word	-536813312
 3511              		.cfi_endproc
 3512              	.LFE47:
 3513              		.size	CyVdLvAnalogEnable, .-CyVdLvAnalogEnable
 3514              		.section	.text.CyVdLvDigitDisable,"ax",%progbits
 3515              		.align	2
 3516              		.global	CyVdLvDigitDisable
 3517              		.thumb
 3518              		.thumb_func
 3519              		.type	CyVdLvDigitDisable, %function
 3520              	CyVdLvDigitDisable:
 3521              	.LFB48:
1956:.\Generated_Source\PSoC5/CyLib.c **** 
1957:.\Generated_Source\PSoC5/CyLib.c **** 
1958:.\Generated_Source\PSoC5/CyLib.c **** /*******************************************************************************
1959:.\Generated_Source\PSoC5/CyLib.c **** * Function Name: CyVdLvDigitDisable
1960:.\Generated_Source\PSoC5/CyLib.c **** ********************************************************************************
1961:.\Generated_Source\PSoC5/CyLib.c **** *
1962:.\Generated_Source\PSoC5/CyLib.c **** * Summary:
1963:.\Generated_Source\PSoC5/CyLib.c **** *  Disables the digital low voltage monitor (interrupt and device reset are
1964:.\Generated_Source\PSoC5/CyLib.c **** *  disabled).
1965:.\Generated_Source\PSoC5/CyLib.c **** *
1966:.\Generated_Source\PSoC5/CyLib.c **** * Parameters:
1967:.\Generated_Source\PSoC5/CyLib.c **** *  None
1968:.\Generated_Source\PSoC5/CyLib.c **** *
1969:.\Generated_Source\PSoC5/CyLib.c **** * Return:
1970:.\Generated_Source\PSoC5/CyLib.c **** *  None
1971:.\Generated_Source\PSoC5/CyLib.c **** *
1972:.\Generated_Source\PSoC5/CyLib.c **** *******************************************************************************/
1973:.\Generated_Source\PSoC5/CyLib.c **** void CyVdLvDigitDisable(void) 
1974:.\Generated_Source\PSoC5/CyLib.c **** {
 3522              		.loc 1 1974 0
 3523              		.cfi_startproc
 3524              		@ args = 0, pretend = 0, frame = 0
 3525              		@ frame_needed = 1, uses_anonymous_args = 0
 3526              		@ link register save eliminated.
 3527 0000 80B4     		push	{r7}
 3528              		.cfi_def_cfa_offset 4
 3529              		.cfi_offset 7, -4
 3530 0002 00AF     		add	r7, sp, #0
 3531              		.cfi_def_cfa_register 7
1975:.\Generated_Source\PSoC5/CyLib.c ****     CY_VD_LVI_HVI_CONTROL_REG &= ((uint8)(~CY_VD_LVID_EN));
 3532              		.loc 1 1975 0
 3533 0004 0D4A     		ldr	r2, .L249
 3534 0006 0D4B     		ldr	r3, .L249
 3535 0008 1B78     		ldrb	r3, [r3]
 3536 000a DBB2     		uxtb	r3, r3
 3537 000c 23F00103 		bic	r3, r3, #1
 3538 0010 DBB2     		uxtb	r3, r3
ARM GAS  C:\Users\Rolando\AppData\Local\Temp\ccmqTZg9.s 			page 98


 3539 0012 1370     		strb	r3, [r2]
1976:.\Generated_Source\PSoC5/CyLib.c **** 
1977:.\Generated_Source\PSoC5/CyLib.c ****     CY_VD_PRES_CONTROL_REG &= ((uint8)(~CY_VD_PRESD_EN));
 3540              		.loc 1 1977 0
 3541 0014 0A4A     		ldr	r2, .L249+4
 3542 0016 0A4B     		ldr	r3, .L249+4
 3543 0018 1B78     		ldrb	r3, [r3]
 3544 001a DBB2     		uxtb	r3, r3
 3545 001c 23F04003 		bic	r3, r3, #64
 3546 0020 DBB2     		uxtb	r3, r3
 3547 0022 1370     		strb	r3, [r2]
1978:.\Generated_Source\PSoC5/CyLib.c **** 
1979:.\Generated_Source\PSoC5/CyLib.c ****     while(0u != (CY_VD_PERSISTENT_STATUS_REG & 0x07u))
 3548              		.loc 1 1979 0
 3549 0024 00BF     		nop
 3550              	.L248:
 3551              		.loc 1 1979 0 is_stmt 0 discriminator 1
 3552 0026 074B     		ldr	r3, .L249+8
 3553 0028 1B78     		ldrb	r3, [r3]
 3554 002a DBB2     		uxtb	r3, r3
 3555 002c 03F00703 		and	r3, r3, #7
 3556 0030 002B     		cmp	r3, #0
 3557 0032 F8D1     		bne	.L248
1980:.\Generated_Source\PSoC5/CyLib.c ****     {
1981:.\Generated_Source\PSoC5/CyLib.c **** 
1982:.\Generated_Source\PSoC5/CyLib.c ****     }
1983:.\Generated_Source\PSoC5/CyLib.c **** }
 3558              		.loc 1 1983 0 is_stmt 1
 3559 0034 BD46     		mov	sp, r7
 3560              		.cfi_def_cfa_register 13
 3561              		@ sp needed
 3562 0036 5DF8047B 		ldr	r7, [sp], #4
 3563              		.cfi_restore 7
 3564              		.cfi_def_cfa_offset 0
 3565 003a 7047     		bx	lr
 3566              	.L250:
 3567              		.align	2
 3568              	.L249:
 3569 003c F5460040 		.word	1073759989
 3570 0040 F7460040 		.word	1073759991
 3571 0044 FA460040 		.word	1073759994
 3572              		.cfi_endproc
 3573              	.LFE48:
 3574              		.size	CyVdLvDigitDisable, .-CyVdLvDigitDisable
 3575              		.section	.text.CyVdLvAnalogDisable,"ax",%progbits
 3576              		.align	2
 3577              		.global	CyVdLvAnalogDisable
 3578              		.thumb
 3579              		.thumb_func
 3580              		.type	CyVdLvAnalogDisable, %function
 3581              	CyVdLvAnalogDisable:
 3582              	.LFB49:
1984:.\Generated_Source\PSoC5/CyLib.c **** 
1985:.\Generated_Source\PSoC5/CyLib.c **** 
1986:.\Generated_Source\PSoC5/CyLib.c **** /*******************************************************************************
1987:.\Generated_Source\PSoC5/CyLib.c **** * Function Name: CyVdLvAnalogDisable
1988:.\Generated_Source\PSoC5/CyLib.c **** ********************************************************************************
ARM GAS  C:\Users\Rolando\AppData\Local\Temp\ccmqTZg9.s 			page 99


1989:.\Generated_Source\PSoC5/CyLib.c **** *
1990:.\Generated_Source\PSoC5/CyLib.c **** * Summary:
1991:.\Generated_Source\PSoC5/CyLib.c **** *  Disables the analog low voltage monitor (interrupt and device reset are
1992:.\Generated_Source\PSoC5/CyLib.c **** *  disabled).
1993:.\Generated_Source\PSoC5/CyLib.c **** *
1994:.\Generated_Source\PSoC5/CyLib.c **** * Parameters:
1995:.\Generated_Source\PSoC5/CyLib.c **** *  None
1996:.\Generated_Source\PSoC5/CyLib.c **** *
1997:.\Generated_Source\PSoC5/CyLib.c **** * Return:
1998:.\Generated_Source\PSoC5/CyLib.c **** *  None
1999:.\Generated_Source\PSoC5/CyLib.c **** *
2000:.\Generated_Source\PSoC5/CyLib.c **** *******************************************************************************/
2001:.\Generated_Source\PSoC5/CyLib.c **** void CyVdLvAnalogDisable(void) 
2002:.\Generated_Source\PSoC5/CyLib.c **** {
 3583              		.loc 1 2002 0
 3584              		.cfi_startproc
 3585              		@ args = 0, pretend = 0, frame = 0
 3586              		@ frame_needed = 1, uses_anonymous_args = 0
 3587              		@ link register save eliminated.
 3588 0000 80B4     		push	{r7}
 3589              		.cfi_def_cfa_offset 4
 3590              		.cfi_offset 7, -4
 3591 0002 00AF     		add	r7, sp, #0
 3592              		.cfi_def_cfa_register 7
2003:.\Generated_Source\PSoC5/CyLib.c ****     CY_VD_LVI_HVI_CONTROL_REG &= ((uint8)(~CY_VD_LVIA_EN));
 3593              		.loc 1 2003 0
 3594 0004 0D4A     		ldr	r2, .L253
 3595 0006 0D4B     		ldr	r3, .L253
 3596 0008 1B78     		ldrb	r3, [r3]
 3597 000a DBB2     		uxtb	r3, r3
 3598 000c 23F00203 		bic	r3, r3, #2
 3599 0010 DBB2     		uxtb	r3, r3
 3600 0012 1370     		strb	r3, [r2]
2004:.\Generated_Source\PSoC5/CyLib.c **** 
2005:.\Generated_Source\PSoC5/CyLib.c ****     CY_VD_PRES_CONTROL_REG &= ((uint8)(~CY_VD_PRESA_EN));
 3601              		.loc 1 2005 0
 3602 0014 0A4A     		ldr	r2, .L253+4
 3603 0016 0A4B     		ldr	r3, .L253+4
 3604 0018 1B78     		ldrb	r3, [r3]
 3605 001a DBB2     		uxtb	r3, r3
 3606 001c 03F07F03 		and	r3, r3, #127
 3607 0020 DBB2     		uxtb	r3, r3
 3608 0022 1370     		strb	r3, [r2]
2006:.\Generated_Source\PSoC5/CyLib.c **** 
2007:.\Generated_Source\PSoC5/CyLib.c ****     while(0u != (CY_VD_PERSISTENT_STATUS_REG & 0x07u))
 3609              		.loc 1 2007 0
 3610 0024 00BF     		nop
 3611              	.L252:
 3612              		.loc 1 2007 0 is_stmt 0 discriminator 1
 3613 0026 074B     		ldr	r3, .L253+8
 3614 0028 1B78     		ldrb	r3, [r3]
 3615 002a DBB2     		uxtb	r3, r3
 3616 002c 03F00703 		and	r3, r3, #7
 3617 0030 002B     		cmp	r3, #0
 3618 0032 F8D1     		bne	.L252
2008:.\Generated_Source\PSoC5/CyLib.c ****     {
2009:.\Generated_Source\PSoC5/CyLib.c **** 
ARM GAS  C:\Users\Rolando\AppData\Local\Temp\ccmqTZg9.s 			page 100


2010:.\Generated_Source\PSoC5/CyLib.c ****     }
2011:.\Generated_Source\PSoC5/CyLib.c **** }
 3619              		.loc 1 2011 0 is_stmt 1
 3620 0034 BD46     		mov	sp, r7
 3621              		.cfi_def_cfa_register 13
 3622              		@ sp needed
 3623 0036 5DF8047B 		ldr	r7, [sp], #4
 3624              		.cfi_restore 7
 3625              		.cfi_def_cfa_offset 0
 3626 003a 7047     		bx	lr
 3627              	.L254:
 3628              		.align	2
 3629              	.L253:
 3630 003c F5460040 		.word	1073759989
 3631 0040 F7460040 		.word	1073759991
 3632 0044 FA460040 		.word	1073759994
 3633              		.cfi_endproc
 3634              	.LFE49:
 3635              		.size	CyVdLvAnalogDisable, .-CyVdLvAnalogDisable
 3636              		.section	.text.CyVdHvAnalogEnable,"ax",%progbits
 3637              		.align	2
 3638              		.global	CyVdHvAnalogEnable
 3639              		.thumb
 3640              		.thumb_func
 3641              		.type	CyVdHvAnalogEnable, %function
 3642              	CyVdHvAnalogEnable:
 3643              	.LFB50:
2012:.\Generated_Source\PSoC5/CyLib.c **** 
2013:.\Generated_Source\PSoC5/CyLib.c **** 
2014:.\Generated_Source\PSoC5/CyLib.c **** /*******************************************************************************
2015:.\Generated_Source\PSoC5/CyLib.c **** * Function Name: CyVdHvAnalogEnable
2016:.\Generated_Source\PSoC5/CyLib.c **** ********************************************************************************
2017:.\Generated_Source\PSoC5/CyLib.c **** *
2018:.\Generated_Source\PSoC5/CyLib.c **** * Summary:
2019:.\Generated_Source\PSoC5/CyLib.c **** *  Enables the analog high voltage monitors to generate interrupt on
2020:.\Generated_Source\PSoC5/CyLib.c **** *  Vdda archives 5.75 V threshold and optionally resets device.
2021:.\Generated_Source\PSoC5/CyLib.c **** *
2022:.\Generated_Source\PSoC5/CyLib.c **** * Parameters:
2023:.\Generated_Source\PSoC5/CyLib.c **** *  None
2024:.\Generated_Source\PSoC5/CyLib.c **** *
2025:.\Generated_Source\PSoC5/CyLib.c **** * Return:
2026:.\Generated_Source\PSoC5/CyLib.c **** *  None
2027:.\Generated_Source\PSoC5/CyLib.c **** *
2028:.\Generated_Source\PSoC5/CyLib.c **** *******************************************************************************/
2029:.\Generated_Source\PSoC5/CyLib.c **** void CyVdHvAnalogEnable(void) 
2030:.\Generated_Source\PSoC5/CyLib.c **** {
 3644              		.loc 1 2030 0
 3645              		.cfi_startproc
 3646              		@ args = 0, pretend = 0, frame = 0
 3647              		@ frame_needed = 1, uses_anonymous_args = 0
 3648 0000 80B5     		push	{r7, lr}
 3649              		.cfi_def_cfa_offset 8
 3650              		.cfi_offset 7, -8
 3651              		.cfi_offset 14, -4
 3652 0002 00AF     		add	r7, sp, #0
 3653              		.cfi_def_cfa_register 7
2031:.\Generated_Source\PSoC5/CyLib.c ****     *CY_INT_CLEAR_PTR = 0x01u;
ARM GAS  C:\Users\Rolando\AppData\Local\Temp\ccmqTZg9.s 			page 101


 3654              		.loc 1 2031 0
 3655 0004 0F4B     		ldr	r3, .L256
 3656 0006 0122     		movs	r2, #1
 3657 0008 1A60     		str	r2, [r3]
2032:.\Generated_Source\PSoC5/CyLib.c **** 
2033:.\Generated_Source\PSoC5/CyLib.c ****     CY_VD_PRES_CONTROL_REG &= ((uint8)(~CY_VD_PRESA_EN));
 3658              		.loc 1 2033 0
 3659 000a 0F4A     		ldr	r2, .L256+4
 3660 000c 0E4B     		ldr	r3, .L256+4
 3661 000e 1B78     		ldrb	r3, [r3]
 3662 0010 DBB2     		uxtb	r3, r3
 3663 0012 03F07F03 		and	r3, r3, #127
 3664 0016 DBB2     		uxtb	r3, r3
 3665 0018 1370     		strb	r3, [r2]
2034:.\Generated_Source\PSoC5/CyLib.c **** 
2035:.\Generated_Source\PSoC5/CyLib.c ****     CY_VD_LVI_HVI_CONTROL_REG |= CY_VD_HVIA_EN;
 3666              		.loc 1 2035 0
 3667 001a 0C4A     		ldr	r2, .L256+8
 3668 001c 0B4B     		ldr	r3, .L256+8
 3669 001e 1B78     		ldrb	r3, [r3]
 3670 0020 DBB2     		uxtb	r3, r3
 3671 0022 43F00403 		orr	r3, r3, #4
 3672 0026 DBB2     		uxtb	r3, r3
 3673 0028 1370     		strb	r3, [r2]
2036:.\Generated_Source\PSoC5/CyLib.c **** 
2037:.\Generated_Source\PSoC5/CyLib.c ****     /* Timeout to eliminate glitches on the LVI/HVI when enabling */
2038:.\Generated_Source\PSoC5/CyLib.c ****     CyDelayUs(1u);
 3674              		.loc 1 2038 0
 3675 002a 0120     		movs	r0, #1
 3676 002c FFF7FEFF 		bl	CyDelayUs
2039:.\Generated_Source\PSoC5/CyLib.c **** 
2040:.\Generated_Source\PSoC5/CyLib.c ****     (void) CY_VD_PERSISTENT_STATUS_REG;
 3677              		.loc 1 2040 0
 3678 0030 074B     		ldr	r3, .L256+12
 3679 0032 1B78     		ldrb	r3, [r3]
2041:.\Generated_Source\PSoC5/CyLib.c **** 
2042:.\Generated_Source\PSoC5/CyLib.c ****     *CY_INT_CLR_PEND_PTR = 0x01u;
 3680              		.loc 1 2042 0
 3681 0034 074B     		ldr	r3, .L256+16
 3682 0036 0122     		movs	r2, #1
 3683 0038 1A60     		str	r2, [r3]
2043:.\Generated_Source\PSoC5/CyLib.c ****     *CY_INT_ENABLE_PTR   = 0x01u;
 3684              		.loc 1 2043 0
 3685 003a 074B     		ldr	r3, .L256+20
 3686 003c 0122     		movs	r2, #1
 3687 003e 1A60     		str	r2, [r3]
2044:.\Generated_Source\PSoC5/CyLib.c **** }
 3688              		.loc 1 2044 0
 3689 0040 80BD     		pop	{r7, pc}
 3690              	.L257:
 3691 0042 00BF     		.align	2
 3692              	.L256:
 3693 0044 80E100E0 		.word	-536813184
 3694 0048 F7460040 		.word	1073759991
 3695 004c F5460040 		.word	1073759989
 3696 0050 FA460040 		.word	1073759994
 3697 0054 80E200E0 		.word	-536812928
ARM GAS  C:\Users\Rolando\AppData\Local\Temp\ccmqTZg9.s 			page 102


 3698 0058 00E100E0 		.word	-536813312
 3699              		.cfi_endproc
 3700              	.LFE50:
 3701              		.size	CyVdHvAnalogEnable, .-CyVdHvAnalogEnable
 3702              		.section	.text.CyVdHvAnalogDisable,"ax",%progbits
 3703              		.align	2
 3704              		.global	CyVdHvAnalogDisable
 3705              		.thumb
 3706              		.thumb_func
 3707              		.type	CyVdHvAnalogDisable, %function
 3708              	CyVdHvAnalogDisable:
 3709              	.LFB51:
2045:.\Generated_Source\PSoC5/CyLib.c **** 
2046:.\Generated_Source\PSoC5/CyLib.c **** 
2047:.\Generated_Source\PSoC5/CyLib.c **** /*******************************************************************************
2048:.\Generated_Source\PSoC5/CyLib.c **** * Function Name: CyVdHvAnalogDisable
2049:.\Generated_Source\PSoC5/CyLib.c **** ********************************************************************************
2050:.\Generated_Source\PSoC5/CyLib.c **** *
2051:.\Generated_Source\PSoC5/CyLib.c **** * Summary:
2052:.\Generated_Source\PSoC5/CyLib.c **** *  Disables the analog low voltage monitor
2053:.\Generated_Source\PSoC5/CyLib.c **** *  (interrupt and device reset are disabled).
2054:.\Generated_Source\PSoC5/CyLib.c **** *
2055:.\Generated_Source\PSoC5/CyLib.c **** * Parameters:
2056:.\Generated_Source\PSoC5/CyLib.c **** *  None
2057:.\Generated_Source\PSoC5/CyLib.c **** *
2058:.\Generated_Source\PSoC5/CyLib.c **** * Return:
2059:.\Generated_Source\PSoC5/CyLib.c **** *  None
2060:.\Generated_Source\PSoC5/CyLib.c **** *
2061:.\Generated_Source\PSoC5/CyLib.c **** *******************************************************************************/
2062:.\Generated_Source\PSoC5/CyLib.c **** void CyVdHvAnalogDisable(void) 
2063:.\Generated_Source\PSoC5/CyLib.c **** {
 3710              		.loc 1 2063 0
 3711              		.cfi_startproc
 3712              		@ args = 0, pretend = 0, frame = 0
 3713              		@ frame_needed = 1, uses_anonymous_args = 0
 3714              		@ link register save eliminated.
 3715 0000 80B4     		push	{r7}
 3716              		.cfi_def_cfa_offset 4
 3717              		.cfi_offset 7, -4
 3718 0002 00AF     		add	r7, sp, #0
 3719              		.cfi_def_cfa_register 7
2064:.\Generated_Source\PSoC5/CyLib.c ****     CY_VD_LVI_HVI_CONTROL_REG &= ((uint8)(~CY_VD_HVIA_EN));
 3720              		.loc 1 2064 0
 3721 0004 054A     		ldr	r2, .L259
 3722 0006 054B     		ldr	r3, .L259
 3723 0008 1B78     		ldrb	r3, [r3]
 3724 000a DBB2     		uxtb	r3, r3
 3725 000c 23F00403 		bic	r3, r3, #4
 3726 0010 DBB2     		uxtb	r3, r3
 3727 0012 1370     		strb	r3, [r2]
2065:.\Generated_Source\PSoC5/CyLib.c **** }
 3728              		.loc 1 2065 0
 3729 0014 BD46     		mov	sp, r7
 3730              		.cfi_def_cfa_register 13
 3731              		@ sp needed
 3732 0016 5DF8047B 		ldr	r7, [sp], #4
 3733              		.cfi_restore 7
ARM GAS  C:\Users\Rolando\AppData\Local\Temp\ccmqTZg9.s 			page 103


 3734              		.cfi_def_cfa_offset 0
 3735 001a 7047     		bx	lr
 3736              	.L260:
 3737              		.align	2
 3738              	.L259:
 3739 001c F5460040 		.word	1073759989
 3740              		.cfi_endproc
 3741              	.LFE51:
 3742              		.size	CyVdHvAnalogDisable, .-CyVdHvAnalogDisable
 3743              		.section	.text.CyVdStickyStatus,"ax",%progbits
 3744              		.align	2
 3745              		.global	CyVdStickyStatus
 3746              		.thumb
 3747              		.thumb_func
 3748              		.type	CyVdStickyStatus, %function
 3749              	CyVdStickyStatus:
 3750              	.LFB52:
2066:.\Generated_Source\PSoC5/CyLib.c **** 
2067:.\Generated_Source\PSoC5/CyLib.c **** 
2068:.\Generated_Source\PSoC5/CyLib.c **** /*******************************************************************************
2069:.\Generated_Source\PSoC5/CyLib.c **** * Function Name: CyVdStickyStatus
2070:.\Generated_Source\PSoC5/CyLib.c **** ********************************************************************************
2071:.\Generated_Source\PSoC5/CyLib.c **** *
2072:.\Generated_Source\PSoC5/CyLib.c **** * Summary:
2073:.\Generated_Source\PSoC5/CyLib.c **** *  Manages the Reset and Voltage Detection Status Register 0.
2074:.\Generated_Source\PSoC5/CyLib.c **** *  This register has the interrupt status for the HVIA, LVID and LVIA.
2075:.\Generated_Source\PSoC5/CyLib.c **** *  This hardware register clears on read.
2076:.\Generated_Source\PSoC5/CyLib.c **** *
2077:.\Generated_Source\PSoC5/CyLib.c **** * Parameters:
2078:.\Generated_Source\PSoC5/CyLib.c **** *  mask: Bits in the shadow register to clear.
2079:.\Generated_Source\PSoC5/CyLib.c **** *   Define                  Definition
2080:.\Generated_Source\PSoC5/CyLib.c **** *   CY_VD_LVID            Persistent status of digital LVI.
2081:.\Generated_Source\PSoC5/CyLib.c **** *   CY_VD_LVIA            Persistent status of analog LVI.
2082:.\Generated_Source\PSoC5/CyLib.c **** *   CY_VD_HVIA            Persistent status of analog HVI.
2083:.\Generated_Source\PSoC5/CyLib.c **** *
2084:.\Generated_Source\PSoC5/CyLib.c **** * Return:
2085:.\Generated_Source\PSoC5/CyLib.c **** *  Status.  Same enumerated bit values as used for the mask parameter.
2086:.\Generated_Source\PSoC5/CyLib.c **** *
2087:.\Generated_Source\PSoC5/CyLib.c **** *******************************************************************************/
2088:.\Generated_Source\PSoC5/CyLib.c **** uint8 CyVdStickyStatus(uint8 mask) 
2089:.\Generated_Source\PSoC5/CyLib.c **** {
 3751              		.loc 1 2089 0
 3752              		.cfi_startproc
 3753              		@ args = 0, pretend = 0, frame = 16
 3754              		@ frame_needed = 1, uses_anonymous_args = 0
 3755              		@ link register save eliminated.
 3756 0000 80B4     		push	{r7}
 3757              		.cfi_def_cfa_offset 4
 3758              		.cfi_offset 7, -4
 3759 0002 85B0     		sub	sp, sp, #20
 3760              		.cfi_def_cfa_offset 24
 3761 0004 00AF     		add	r7, sp, #0
 3762              		.cfi_def_cfa_register 7
 3763 0006 0346     		mov	r3, r0
 3764 0008 FB71     		strb	r3, [r7, #7]
2090:.\Generated_Source\PSoC5/CyLib.c ****     uint8 status;
2091:.\Generated_Source\PSoC5/CyLib.c **** 
ARM GAS  C:\Users\Rolando\AppData\Local\Temp\ccmqTZg9.s 			page 104


2092:.\Generated_Source\PSoC5/CyLib.c ****     status = CY_VD_PERSISTENT_STATUS_REG;
 3765              		.loc 1 2092 0
 3766 000a 0A4B     		ldr	r3, .L263
 3767 000c 1B78     		ldrb	r3, [r3]
 3768 000e FB73     		strb	r3, [r7, #15]
2093:.\Generated_Source\PSoC5/CyLib.c ****     CY_VD_PERSISTENT_STATUS_REG &= ((uint8)(~mask));
 3769              		.loc 1 2093 0
 3770 0010 0849     		ldr	r1, .L263
 3771 0012 084B     		ldr	r3, .L263
 3772 0014 1B78     		ldrb	r3, [r3]
 3773 0016 DAB2     		uxtb	r2, r3
 3774 0018 FB79     		ldrb	r3, [r7, #7]
 3775 001a DB43     		mvns	r3, r3
 3776 001c DBB2     		uxtb	r3, r3
 3777 001e 1340     		ands	r3, r3, r2
 3778 0020 DBB2     		uxtb	r3, r3
 3779 0022 0B70     		strb	r3, [r1]
2094:.\Generated_Source\PSoC5/CyLib.c **** 
2095:.\Generated_Source\PSoC5/CyLib.c ****     return(status);
 3780              		.loc 1 2095 0
 3781 0024 FB7B     		ldrb	r3, [r7, #15]	@ zero_extendqisi2
2096:.\Generated_Source\PSoC5/CyLib.c **** }
 3782              		.loc 1 2096 0
 3783 0026 1846     		mov	r0, r3
 3784 0028 1437     		adds	r7, r7, #20
 3785              		.cfi_def_cfa_offset 4
 3786 002a BD46     		mov	sp, r7
 3787              		.cfi_def_cfa_register 13
 3788              		@ sp needed
 3789 002c 5DF8047B 		ldr	r7, [sp], #4
 3790              		.cfi_restore 7
 3791              		.cfi_def_cfa_offset 0
 3792 0030 7047     		bx	lr
 3793              	.L264:
 3794 0032 00BF     		.align	2
 3795              	.L263:
 3796 0034 FA460040 		.word	1073759994
 3797              		.cfi_endproc
 3798              	.LFE52:
 3799              		.size	CyVdStickyStatus, .-CyVdStickyStatus
 3800              		.section	.text.CyVdRealTimeStatus,"ax",%progbits
 3801              		.align	2
 3802              		.global	CyVdRealTimeStatus
 3803              		.thumb
 3804              		.thumb_func
 3805              		.type	CyVdRealTimeStatus, %function
 3806              	CyVdRealTimeStatus:
 3807              	.LFB53:
2097:.\Generated_Source\PSoC5/CyLib.c **** 
2098:.\Generated_Source\PSoC5/CyLib.c **** 
2099:.\Generated_Source\PSoC5/CyLib.c **** /*******************************************************************************
2100:.\Generated_Source\PSoC5/CyLib.c **** * Function Name: CyVdRealTimeStatus
2101:.\Generated_Source\PSoC5/CyLib.c **** ********************************************************************************
2102:.\Generated_Source\PSoC5/CyLib.c **** *
2103:.\Generated_Source\PSoC5/CyLib.c **** * Summary:
2104:.\Generated_Source\PSoC5/CyLib.c **** *  Returns the real time voltage detection status.
2105:.\Generated_Source\PSoC5/CyLib.c **** *
ARM GAS  C:\Users\Rolando\AppData\Local\Temp\ccmqTZg9.s 			page 105


2106:.\Generated_Source\PSoC5/CyLib.c **** * Parameters:
2107:.\Generated_Source\PSoC5/CyLib.c **** *  None
2108:.\Generated_Source\PSoC5/CyLib.c **** *
2109:.\Generated_Source\PSoC5/CyLib.c **** * Return:
2110:.\Generated_Source\PSoC5/CyLib.c **** *  Status:
2111:.\Generated_Source\PSoC5/CyLib.c **** *   Define                  Definition
2112:.\Generated_Source\PSoC5/CyLib.c **** *   CY_VD_LVID            Persistent status of digital LVI.
2113:.\Generated_Source\PSoC5/CyLib.c **** *   CY_VD_LVIA            Persistent status of analog LVI.
2114:.\Generated_Source\PSoC5/CyLib.c **** *   CY_VD_HVIA            Persistent status of analog HVI.
2115:.\Generated_Source\PSoC5/CyLib.c **** *
2116:.\Generated_Source\PSoC5/CyLib.c **** *******************************************************************************/
2117:.\Generated_Source\PSoC5/CyLib.c **** uint8 CyVdRealTimeStatus(void) 
2118:.\Generated_Source\PSoC5/CyLib.c **** {
 3808              		.loc 1 2118 0
 3809              		.cfi_startproc
 3810              		@ args = 0, pretend = 0, frame = 8
 3811              		@ frame_needed = 1, uses_anonymous_args = 0
 3812 0000 80B5     		push	{r7, lr}
 3813              		.cfi_def_cfa_offset 8
 3814              		.cfi_offset 7, -8
 3815              		.cfi_offset 14, -4
 3816 0002 82B0     		sub	sp, sp, #8
 3817              		.cfi_def_cfa_offset 16
 3818 0004 00AF     		add	r7, sp, #0
 3819              		.cfi_def_cfa_register 7
2119:.\Generated_Source\PSoC5/CyLib.c ****     uint8 interruptState;
2120:.\Generated_Source\PSoC5/CyLib.c ****     uint8 vdFlagsState;
2121:.\Generated_Source\PSoC5/CyLib.c **** 
2122:.\Generated_Source\PSoC5/CyLib.c ****     interruptState = CyEnterCriticalSection();
 3820              		.loc 1 2122 0
 3821 0006 FFF7FEFF 		bl	CyEnterCriticalSection
 3822 000a 0346     		mov	r3, r0
 3823 000c FB71     		strb	r3, [r7, #7]
2123:.\Generated_Source\PSoC5/CyLib.c ****     vdFlagsState = CY_VD_RT_STATUS_REG;
 3824              		.loc 1 2123 0
 3825 000e 064B     		ldr	r3, .L267
 3826 0010 1B78     		ldrb	r3, [r3]
 3827 0012 BB71     		strb	r3, [r7, #6]
2124:.\Generated_Source\PSoC5/CyLib.c ****     CyExitCriticalSection(interruptState);
 3828              		.loc 1 2124 0
 3829 0014 FB79     		ldrb	r3, [r7, #7]	@ zero_extendqisi2
 3830 0016 1846     		mov	r0, r3
 3831 0018 FFF7FEFF 		bl	CyExitCriticalSection
2125:.\Generated_Source\PSoC5/CyLib.c **** 
2126:.\Generated_Source\PSoC5/CyLib.c ****     return(vdFlagsState);
 3832              		.loc 1 2126 0
 3833 001c BB79     		ldrb	r3, [r7, #6]	@ zero_extendqisi2
2127:.\Generated_Source\PSoC5/CyLib.c **** }
 3834              		.loc 1 2127 0
 3835 001e 1846     		mov	r0, r3
 3836 0020 0837     		adds	r7, r7, #8
 3837              		.cfi_def_cfa_offset 8
 3838 0022 BD46     		mov	sp, r7
 3839              		.cfi_def_cfa_register 13
 3840              		@ sp needed
 3841 0024 80BD     		pop	{r7, pc}
 3842              	.L268:
ARM GAS  C:\Users\Rolando\AppData\Local\Temp\ccmqTZg9.s 			page 106


 3843 0026 00BF     		.align	2
 3844              	.L267:
 3845 0028 FC460040 		.word	1073759996
 3846              		.cfi_endproc
 3847              	.LFE53:
 3848              		.size	CyVdRealTimeStatus, .-CyVdRealTimeStatus
 3849              		.section	.text.CyDisableInts,"ax",%progbits
 3850              		.align	2
 3851              		.global	CyDisableInts
 3852              		.thumb
 3853              		.thumb_func
 3854              		.type	CyDisableInts, %function
 3855              	CyDisableInts:
 3856              	.LFB54:
2128:.\Generated_Source\PSoC5/CyLib.c **** 
2129:.\Generated_Source\PSoC5/CyLib.c **** 
2130:.\Generated_Source\PSoC5/CyLib.c **** /*******************************************************************************
2131:.\Generated_Source\PSoC5/CyLib.c **** * Function Name: CyDisableInts
2132:.\Generated_Source\PSoC5/CyLib.c **** ********************************************************************************
2133:.\Generated_Source\PSoC5/CyLib.c **** *
2134:.\Generated_Source\PSoC5/CyLib.c **** * Summary:
2135:.\Generated_Source\PSoC5/CyLib.c **** *  Disables the interrupt enable for each interrupt.
2136:.\Generated_Source\PSoC5/CyLib.c **** *
2137:.\Generated_Source\PSoC5/CyLib.c **** * Parameters:
2138:.\Generated_Source\PSoC5/CyLib.c **** *  None
2139:.\Generated_Source\PSoC5/CyLib.c **** *
2140:.\Generated_Source\PSoC5/CyLib.c **** * Return:
2141:.\Generated_Source\PSoC5/CyLib.c **** *  32 bit mask of previously enabled interrupts.
2142:.\Generated_Source\PSoC5/CyLib.c **** *
2143:.\Generated_Source\PSoC5/CyLib.c **** *******************************************************************************/
2144:.\Generated_Source\PSoC5/CyLib.c **** uint32 CyDisableInts(void) 
2145:.\Generated_Source\PSoC5/CyLib.c **** {
 3857              		.loc 1 2145 0
 3858              		.cfi_startproc
 3859              		@ args = 0, pretend = 0, frame = 8
 3860              		@ frame_needed = 1, uses_anonymous_args = 0
 3861 0000 80B5     		push	{r7, lr}
 3862              		.cfi_def_cfa_offset 8
 3863              		.cfi_offset 7, -8
 3864              		.cfi_offset 14, -4
 3865 0002 82B0     		sub	sp, sp, #8
 3866              		.cfi_def_cfa_offset 16
 3867 0004 00AF     		add	r7, sp, #0
 3868              		.cfi_def_cfa_register 7
2146:.\Generated_Source\PSoC5/CyLib.c ****     uint32 intState;
2147:.\Generated_Source\PSoC5/CyLib.c ****     uint8 interruptState;
2148:.\Generated_Source\PSoC5/CyLib.c **** 
2149:.\Generated_Source\PSoC5/CyLib.c ****     interruptState = CyEnterCriticalSection();
 3869              		.loc 1 2149 0
 3870 0006 FFF7FEFF 		bl	CyEnterCriticalSection
 3871 000a 0346     		mov	r3, r0
 3872 000c FB71     		strb	r3, [r7, #7]
2150:.\Generated_Source\PSoC5/CyLib.c **** 
2151:.\Generated_Source\PSoC5/CyLib.c ****     #if(CY_PSOC3)
2152:.\Generated_Source\PSoC5/CyLib.c **** 
2153:.\Generated_Source\PSoC5/CyLib.c ****         /* Get the current interrupt state. */
2154:.\Generated_Source\PSoC5/CyLib.c ****         intState  = ((uint32) CY_GET_REG8(CY_INT_CLR_EN0_PTR));
ARM GAS  C:\Users\Rolando\AppData\Local\Temp\ccmqTZg9.s 			page 107


2155:.\Generated_Source\PSoC5/CyLib.c ****         intState |= ((uint32) (((uint32) CY_GET_REG8(CY_INT_CLR_EN1_PTR)) << 8u));
2156:.\Generated_Source\PSoC5/CyLib.c ****         intState |= ((uint32) (((uint32) CY_GET_REG8(CY_INT_CLR_EN2_PTR)) << 16u));
2157:.\Generated_Source\PSoC5/CyLib.c ****         intState |= ((uint32) (((uint32) CY_GET_REG8(CY_INT_CLR_EN3_PTR)) << 24u));
2158:.\Generated_Source\PSoC5/CyLib.c **** 
2159:.\Generated_Source\PSoC5/CyLib.c **** 
2160:.\Generated_Source\PSoC5/CyLib.c ****         /* Disable all of the interrupts. */
2161:.\Generated_Source\PSoC5/CyLib.c ****         CY_SET_REG8(CY_INT_CLR_EN0_PTR, 0xFFu);
2162:.\Generated_Source\PSoC5/CyLib.c ****         CY_SET_REG8(CY_INT_CLR_EN1_PTR, 0xFFu);
2163:.\Generated_Source\PSoC5/CyLib.c ****         CY_SET_REG8(CY_INT_CLR_EN2_PTR, 0xFFu);
2164:.\Generated_Source\PSoC5/CyLib.c ****         CY_SET_REG8(CY_INT_CLR_EN3_PTR, 0xFFu);
2165:.\Generated_Source\PSoC5/CyLib.c **** 
2166:.\Generated_Source\PSoC5/CyLib.c ****     #else
2167:.\Generated_Source\PSoC5/CyLib.c **** 
2168:.\Generated_Source\PSoC5/CyLib.c ****         /* Get the current interrupt state. */
2169:.\Generated_Source\PSoC5/CyLib.c ****         intState = CY_GET_REG32(CY_INT_CLEAR_PTR);
 3873              		.loc 1 2169 0
 3874 000e 084B     		ldr	r3, .L271
 3875 0010 1B68     		ldr	r3, [r3]
 3876 0012 3B60     		str	r3, [r7]
2170:.\Generated_Source\PSoC5/CyLib.c **** 
2171:.\Generated_Source\PSoC5/CyLib.c ****         /* Disable all of the interrupts. */
2172:.\Generated_Source\PSoC5/CyLib.c ****         CY_SET_REG32(CY_INT_CLEAR_PTR, 0xFFFFFFFFu);
 3877              		.loc 1 2172 0
 3878 0014 064B     		ldr	r3, .L271
 3879 0016 4FF0FF32 		mov	r2, #-1
 3880 001a 1A60     		str	r2, [r3]
2173:.\Generated_Source\PSoC5/CyLib.c **** 
2174:.\Generated_Source\PSoC5/CyLib.c ****     #endif /* (CY_PSOC3) */
2175:.\Generated_Source\PSoC5/CyLib.c **** 
2176:.\Generated_Source\PSoC5/CyLib.c ****     CyExitCriticalSection(interruptState);
 3881              		.loc 1 2176 0
 3882 001c FB79     		ldrb	r3, [r7, #7]	@ zero_extendqisi2
 3883 001e 1846     		mov	r0, r3
 3884 0020 FFF7FEFF 		bl	CyExitCriticalSection
2177:.\Generated_Source\PSoC5/CyLib.c **** 
2178:.\Generated_Source\PSoC5/CyLib.c ****     return (intState);
 3885              		.loc 1 2178 0
 3886 0024 3B68     		ldr	r3, [r7]
2179:.\Generated_Source\PSoC5/CyLib.c **** }
 3887              		.loc 1 2179 0
 3888 0026 1846     		mov	r0, r3
 3889 0028 0837     		adds	r7, r7, #8
 3890              		.cfi_def_cfa_offset 8
 3891 002a BD46     		mov	sp, r7
 3892              		.cfi_def_cfa_register 13
 3893              		@ sp needed
 3894 002c 80BD     		pop	{r7, pc}
 3895              	.L272:
 3896 002e 00BF     		.align	2
 3897              	.L271:
 3898 0030 80E100E0 		.word	-536813184
 3899              		.cfi_endproc
 3900              	.LFE54:
 3901              		.size	CyDisableInts, .-CyDisableInts
 3902              		.section	.text.CyEnableInts,"ax",%progbits
 3903              		.align	2
 3904              		.global	CyEnableInts
ARM GAS  C:\Users\Rolando\AppData\Local\Temp\ccmqTZg9.s 			page 108


 3905              		.thumb
 3906              		.thumb_func
 3907              		.type	CyEnableInts, %function
 3908              	CyEnableInts:
 3909              	.LFB55:
2180:.\Generated_Source\PSoC5/CyLib.c **** 
2181:.\Generated_Source\PSoC5/CyLib.c **** 
2182:.\Generated_Source\PSoC5/CyLib.c **** /*******************************************************************************
2183:.\Generated_Source\PSoC5/CyLib.c **** * Function Name: CyEnableInts
2184:.\Generated_Source\PSoC5/CyLib.c **** ********************************************************************************
2185:.\Generated_Source\PSoC5/CyLib.c **** *
2186:.\Generated_Source\PSoC5/CyLib.c **** * Summary:
2187:.\Generated_Source\PSoC5/CyLib.c **** *  Enables interrupts to a given state.
2188:.\Generated_Source\PSoC5/CyLib.c **** *
2189:.\Generated_Source\PSoC5/CyLib.c **** * Parameters:
2190:.\Generated_Source\PSoC5/CyLib.c **** *  uint32 mask: 32 bit mask of interrupts to enable.
2191:.\Generated_Source\PSoC5/CyLib.c **** *
2192:.\Generated_Source\PSoC5/CyLib.c **** * Return:
2193:.\Generated_Source\PSoC5/CyLib.c **** *  None
2194:.\Generated_Source\PSoC5/CyLib.c **** *
2195:.\Generated_Source\PSoC5/CyLib.c **** *******************************************************************************/
2196:.\Generated_Source\PSoC5/CyLib.c **** void CyEnableInts(uint32 mask) 
2197:.\Generated_Source\PSoC5/CyLib.c **** {
 3910              		.loc 1 2197 0
 3911              		.cfi_startproc
 3912              		@ args = 0, pretend = 0, frame = 16
 3913              		@ frame_needed = 1, uses_anonymous_args = 0
 3914 0000 80B5     		push	{r7, lr}
 3915              		.cfi_def_cfa_offset 8
 3916              		.cfi_offset 7, -8
 3917              		.cfi_offset 14, -4
 3918 0002 84B0     		sub	sp, sp, #16
 3919              		.cfi_def_cfa_offset 24
 3920 0004 00AF     		add	r7, sp, #0
 3921              		.cfi_def_cfa_register 7
 3922 0006 7860     		str	r0, [r7, #4]
2198:.\Generated_Source\PSoC5/CyLib.c **** 
2199:.\Generated_Source\PSoC5/CyLib.c ****     uint8 interruptState;
2200:.\Generated_Source\PSoC5/CyLib.c **** 
2201:.\Generated_Source\PSoC5/CyLib.c ****     interruptState = CyEnterCriticalSection();
 3923              		.loc 1 2201 0
 3924 0008 FFF7FEFF 		bl	CyEnterCriticalSection
 3925 000c 0346     		mov	r3, r0
 3926 000e FB73     		strb	r3, [r7, #15]
2202:.\Generated_Source\PSoC5/CyLib.c **** 
2203:.\Generated_Source\PSoC5/CyLib.c ****     #if(CY_PSOC3)
2204:.\Generated_Source\PSoC5/CyLib.c **** 
2205:.\Generated_Source\PSoC5/CyLib.c ****         /* Set interrupts as enabled. */
2206:.\Generated_Source\PSoC5/CyLib.c ****         CY_SET_REG8(CY_INT_SET_EN3_PTR, ((uint8) (mask >> 24u)));
2207:.\Generated_Source\PSoC5/CyLib.c ****         CY_SET_REG8(CY_INT_SET_EN2_PTR, ((uint8) (mask >> 16u)));
2208:.\Generated_Source\PSoC5/CyLib.c ****         CY_SET_REG8(CY_INT_SET_EN1_PTR, ((uint8) (mask >> 8u )));
2209:.\Generated_Source\PSoC5/CyLib.c ****         CY_SET_REG8(CY_INT_SET_EN0_PTR, ((uint8) (mask )));
2210:.\Generated_Source\PSoC5/CyLib.c **** 
2211:.\Generated_Source\PSoC5/CyLib.c ****     #else
2212:.\Generated_Source\PSoC5/CyLib.c **** 
2213:.\Generated_Source\PSoC5/CyLib.c ****         CY_SET_REG32(CY_INT_ENABLE_PTR, mask);
 3927              		.loc 1 2213 0
ARM GAS  C:\Users\Rolando\AppData\Local\Temp\ccmqTZg9.s 			page 109


 3928 0010 044A     		ldr	r2, .L274
 3929 0012 7B68     		ldr	r3, [r7, #4]
 3930 0014 1360     		str	r3, [r2]
2214:.\Generated_Source\PSoC5/CyLib.c **** 
2215:.\Generated_Source\PSoC5/CyLib.c ****     #endif /* (CY_PSOC3) */
2216:.\Generated_Source\PSoC5/CyLib.c **** 
2217:.\Generated_Source\PSoC5/CyLib.c ****     CyExitCriticalSection(interruptState);
 3931              		.loc 1 2217 0
 3932 0016 FB7B     		ldrb	r3, [r7, #15]	@ zero_extendqisi2
 3933 0018 1846     		mov	r0, r3
 3934 001a FFF7FEFF 		bl	CyExitCriticalSection
2218:.\Generated_Source\PSoC5/CyLib.c **** 
2219:.\Generated_Source\PSoC5/CyLib.c **** }
 3935              		.loc 1 2219 0
 3936 001e 1037     		adds	r7, r7, #16
 3937              		.cfi_def_cfa_offset 8
 3938 0020 BD46     		mov	sp, r7
 3939              		.cfi_def_cfa_register 13
 3940              		@ sp needed
 3941 0022 80BD     		pop	{r7, pc}
 3942              	.L275:
 3943              		.align	2
 3944              	.L274:
 3945 0024 00E100E0 		.word	-536813312
 3946              		.cfi_endproc
 3947              	.LFE55:
 3948              		.size	CyEnableInts, .-CyEnableInts
 3949              		.section	.text.CyFlushCache,"ax",%progbits
 3950              		.align	2
 3951              		.global	CyFlushCache
 3952              		.thumb
 3953              		.thumb_func
 3954              		.type	CyFlushCache, %function
 3955              	CyFlushCache:
 3956              	.LFB56:
2220:.\Generated_Source\PSoC5/CyLib.c **** 
2221:.\Generated_Source\PSoC5/CyLib.c **** #if(CY_PSOC5)
2222:.\Generated_Source\PSoC5/CyLib.c **** 
2223:.\Generated_Source\PSoC5/CyLib.c ****     /*******************************************************************************
2224:.\Generated_Source\PSoC5/CyLib.c ****     * Function Name: CyFlushCache
2225:.\Generated_Source\PSoC5/CyLib.c ****     ********************************************************************************
2226:.\Generated_Source\PSoC5/CyLib.c ****     * Summary:
2227:.\Generated_Source\PSoC5/CyLib.c ****     *  Flushes the PSoC 5/5LP cache by invalidating all entries.
2228:.\Generated_Source\PSoC5/CyLib.c ****     *
2229:.\Generated_Source\PSoC5/CyLib.c ****     * Parameters:
2230:.\Generated_Source\PSoC5/CyLib.c ****     *  None
2231:.\Generated_Source\PSoC5/CyLib.c ****     *
2232:.\Generated_Source\PSoC5/CyLib.c ****     * Return:
2233:.\Generated_Source\PSoC5/CyLib.c ****     *  None
2234:.\Generated_Source\PSoC5/CyLib.c ****     *
2235:.\Generated_Source\PSoC5/CyLib.c ****     *******************************************************************************/
2236:.\Generated_Source\PSoC5/CyLib.c ****     void CyFlushCache(void)
2237:.\Generated_Source\PSoC5/CyLib.c ****     {
 3957              		.loc 1 2237 0
 3958              		.cfi_startproc
 3959              		@ args = 0, pretend = 0, frame = 8
 3960              		@ frame_needed = 1, uses_anonymous_args = 0
ARM GAS  C:\Users\Rolando\AppData\Local\Temp\ccmqTZg9.s 			page 110


 3961 0000 80B5     		push	{r7, lr}
 3962              		.cfi_def_cfa_offset 8
 3963              		.cfi_offset 7, -8
 3964              		.cfi_offset 14, -4
 3965 0002 82B0     		sub	sp, sp, #8
 3966              		.cfi_def_cfa_offset 16
 3967 0004 00AF     		add	r7, sp, #0
 3968              		.cfi_def_cfa_register 7
2238:.\Generated_Source\PSoC5/CyLib.c ****         uint8 interruptState;
2239:.\Generated_Source\PSoC5/CyLib.c **** 
2240:.\Generated_Source\PSoC5/CyLib.c ****         /* Save current global interrupt enable and disable it */
2241:.\Generated_Source\PSoC5/CyLib.c ****         interruptState = CyEnterCriticalSection();
 3969              		.loc 1 2241 0
 3970 0006 FFF7FEFF 		bl	CyEnterCriticalSection
 3971 000a 0346     		mov	r3, r0
 3972 000c FB71     		strb	r3, [r7, #7]
2242:.\Generated_Source\PSoC5/CyLib.c **** 
2243:.\Generated_Source\PSoC5/CyLib.c ****         /* Fill instruction prefectch unit to insure data integrity */
2244:.\Generated_Source\PSoC5/CyLib.c ****         CY_NOP;
 3973              		.loc 1 2244 0
 3974              	@ 2244 ".\Generated_Source\PSoC5\CyLib.c" 1
 3975 000e 00BF     		NOP
 3976              	
 3977              	@ 0 "" 2
2245:.\Generated_Source\PSoC5/CyLib.c ****         CY_NOP;
 3978              		.loc 1 2245 0
 3979              	@ 2245 ".\Generated_Source\PSoC5\CyLib.c" 1
 3980 0010 00BF     		NOP
 3981              	
 3982              	@ 0 "" 2
2246:.\Generated_Source\PSoC5/CyLib.c ****         CY_NOP;
 3983              		.loc 1 2246 0
 3984              	@ 2246 ".\Generated_Source\PSoC5\CyLib.c" 1
 3985 0012 00BF     		NOP
 3986              	
 3987              	@ 0 "" 2
2247:.\Generated_Source\PSoC5/CyLib.c ****         CY_NOP;
 3988              		.loc 1 2247 0
 3989              	@ 2247 ".\Generated_Source\PSoC5\CyLib.c" 1
 3990 0014 00BF     		NOP
 3991              	
 3992              	@ 0 "" 2
2248:.\Generated_Source\PSoC5/CyLib.c ****         CY_NOP;
 3993              		.loc 1 2248 0
 3994              	@ 2248 ".\Generated_Source\PSoC5\CyLib.c" 1
 3995 0016 00BF     		NOP
 3996              	
 3997              	@ 0 "" 2
2249:.\Generated_Source\PSoC5/CyLib.c ****         CY_NOP;
 3998              		.loc 1 2249 0
 3999              	@ 2249 ".\Generated_Source\PSoC5\CyLib.c" 1
 4000 0018 00BF     		NOP
 4001              	
 4002              	@ 0 "" 2
2250:.\Generated_Source\PSoC5/CyLib.c ****         CY_NOP;
 4003              		.loc 1 2250 0
 4004              	@ 2250 ".\Generated_Source\PSoC5\CyLib.c" 1
ARM GAS  C:\Users\Rolando\AppData\Local\Temp\ccmqTZg9.s 			page 111


 4005 001a 00BF     		NOP
 4006              	
 4007              	@ 0 "" 2
2251:.\Generated_Source\PSoC5/CyLib.c ****         CY_NOP;
 4008              		.loc 1 2251 0
 4009              	@ 2251 ".\Generated_Source\PSoC5\CyLib.c" 1
 4010 001c 00BF     		NOP
 4011              	
 4012              	@ 0 "" 2
2252:.\Generated_Source\PSoC5/CyLib.c ****         CY_NOP;
 4013              		.loc 1 2252 0
 4014              	@ 2252 ".\Generated_Source\PSoC5\CyLib.c" 1
 4015 001e 00BF     		NOP
 4016              	
 4017              	@ 0 "" 2
2253:.\Generated_Source\PSoC5/CyLib.c ****         CY_NOP;
 4018              		.loc 1 2253 0
 4019              	@ 2253 ".\Generated_Source\PSoC5\CyLib.c" 1
 4020 0020 00BF     		NOP
 4021              	
 4022              	@ 0 "" 2
2254:.\Generated_Source\PSoC5/CyLib.c ****         CY_NOP;
 4023              		.loc 1 2254 0
 4024              	@ 2254 ".\Generated_Source\PSoC5\CyLib.c" 1
 4025 0022 00BF     		NOP
 4026              	
 4027              	@ 0 "" 2
2255:.\Generated_Source\PSoC5/CyLib.c ****         CY_NOP;
 4028              		.loc 1 2255 0
 4029              	@ 2255 ".\Generated_Source\PSoC5\CyLib.c" 1
 4030 0024 00BF     		NOP
 4031              	
 4032              	@ 0 "" 2
2256:.\Generated_Source\PSoC5/CyLib.c ****         CY_NOP;
 4033              		.loc 1 2256 0
 4034              	@ 2256 ".\Generated_Source\PSoC5\CyLib.c" 1
 4035 0026 00BF     		NOP
 4036              	
 4037              	@ 0 "" 2
2257:.\Generated_Source\PSoC5/CyLib.c ****         CY_NOP;
 4038              		.loc 1 2257 0
 4039              	@ 2257 ".\Generated_Source\PSoC5\CyLib.c" 1
 4040 0028 00BF     		NOP
 4041              	
 4042              	@ 0 "" 2
2258:.\Generated_Source\PSoC5/CyLib.c ****         CY_NOP;
 4043              		.loc 1 2258 0
 4044              	@ 2258 ".\Generated_Source\PSoC5\CyLib.c" 1
 4045 002a 00BF     		NOP
 4046              	
 4047              	@ 0 "" 2
2259:.\Generated_Source\PSoC5/CyLib.c ****         CY_NOP;
 4048              		.loc 1 2259 0
 4049              	@ 2259 ".\Generated_Source\PSoC5\CyLib.c" 1
 4050 002c 00BF     		NOP
 4051              	
 4052              	@ 0 "" 2
ARM GAS  C:\Users\Rolando\AppData\Local\Temp\ccmqTZg9.s 			page 112


2260:.\Generated_Source\PSoC5/CyLib.c **** 
2261:.\Generated_Source\PSoC5/CyLib.c ****         /* All entries in the cache are invalidated on the next clock cycle. */
2262:.\Generated_Source\PSoC5/CyLib.c ****         CY_CACHE_CONTROL_REG |= CY_CACHE_CONTROL_FLUSH;
 4053              		.loc 1 2262 0
 4054              		.thumb
 4055 002e 0F4A     		ldr	r2, .L277
 4056 0030 0E4B     		ldr	r3, .L277
 4057 0032 1B88     		ldrh	r3, [r3]	@ movhi
 4058 0034 9BB2     		uxth	r3, r3
 4059 0036 43F00403 		orr	r3, r3, #4
 4060 003a 9BB2     		uxth	r3, r3
 4061 003c 1380     		strh	r3, [r2]	@ movhi
2263:.\Generated_Source\PSoC5/CyLib.c **** 
2264:.\Generated_Source\PSoC5/CyLib.c **** 
2265:.\Generated_Source\PSoC5/CyLib.c ****         /***********************************************************************
2266:.\Generated_Source\PSoC5/CyLib.c ****         * The prefetch unit could/would be filled with the instructions that
2267:.\Generated_Source\PSoC5/CyLib.c ****         * succeed the flush. Since a flush is desired then theoretically those
2268:.\Generated_Source\PSoC5/CyLib.c ****         * instructions might be considered stale/invalid.
2269:.\Generated_Source\PSoC5/CyLib.c ****         ***********************************************************************/
2270:.\Generated_Source\PSoC5/CyLib.c ****         CY_NOP;
 4062              		.loc 1 2270 0
 4063              	@ 2270 ".\Generated_Source\PSoC5\CyLib.c" 1
 4064 003e 00BF     		NOP
 4065              	
 4066              	@ 0 "" 2
2271:.\Generated_Source\PSoC5/CyLib.c ****         CY_NOP;
 4067              		.loc 1 2271 0
 4068              	@ 2271 ".\Generated_Source\PSoC5\CyLib.c" 1
 4069 0040 00BF     		NOP
 4070              	
 4071              	@ 0 "" 2
2272:.\Generated_Source\PSoC5/CyLib.c ****         CY_NOP;
 4072              		.loc 1 2272 0
 4073              	@ 2272 ".\Generated_Source\PSoC5\CyLib.c" 1
 4074 0042 00BF     		NOP
 4075              	
 4076              	@ 0 "" 2
2273:.\Generated_Source\PSoC5/CyLib.c ****         CY_NOP;
 4077              		.loc 1 2273 0
 4078              	@ 2273 ".\Generated_Source\PSoC5\CyLib.c" 1
 4079 0044 00BF     		NOP
 4080              	
 4081              	@ 0 "" 2
2274:.\Generated_Source\PSoC5/CyLib.c ****         CY_NOP;
 4082              		.loc 1 2274 0
 4083              	@ 2274 ".\Generated_Source\PSoC5\CyLib.c" 1
 4084 0046 00BF     		NOP
 4085              	
 4086              	@ 0 "" 2
2275:.\Generated_Source\PSoC5/CyLib.c ****         CY_NOP;
 4087              		.loc 1 2275 0
 4088              	@ 2275 ".\Generated_Source\PSoC5\CyLib.c" 1
 4089 0048 00BF     		NOP
 4090              	
 4091              	@ 0 "" 2
2276:.\Generated_Source\PSoC5/CyLib.c ****         CY_NOP;
 4092              		.loc 1 2276 0
ARM GAS  C:\Users\Rolando\AppData\Local\Temp\ccmqTZg9.s 			page 113


 4093              	@ 2276 ".\Generated_Source\PSoC5\CyLib.c" 1
 4094 004a 00BF     		NOP
 4095              	
 4096              	@ 0 "" 2
2277:.\Generated_Source\PSoC5/CyLib.c ****         CY_NOP;
 4097              		.loc 1 2277 0
 4098              	@ 2277 ".\Generated_Source\PSoC5\CyLib.c" 1
 4099 004c 00BF     		NOP
 4100              	
 4101              	@ 0 "" 2
2278:.\Generated_Source\PSoC5/CyLib.c ****         CY_NOP;
 4102              		.loc 1 2278 0
 4103              	@ 2278 ".\Generated_Source\PSoC5\CyLib.c" 1
 4104 004e 00BF     		NOP
 4105              	
 4106              	@ 0 "" 2
2279:.\Generated_Source\PSoC5/CyLib.c ****         CY_NOP;
 4107              		.loc 1 2279 0
 4108              	@ 2279 ".\Generated_Source\PSoC5\CyLib.c" 1
 4109 0050 00BF     		NOP
 4110              	
 4111              	@ 0 "" 2
2280:.\Generated_Source\PSoC5/CyLib.c ****         CY_NOP;
 4112              		.loc 1 2280 0
 4113              	@ 2280 ".\Generated_Source\PSoC5\CyLib.c" 1
 4114 0052 00BF     		NOP
 4115              	
 4116              	@ 0 "" 2
2281:.\Generated_Source\PSoC5/CyLib.c ****         CY_NOP;
 4117              		.loc 1 2281 0
 4118              	@ 2281 ".\Generated_Source\PSoC5\CyLib.c" 1
 4119 0054 00BF     		NOP
 4120              	
 4121              	@ 0 "" 2
2282:.\Generated_Source\PSoC5/CyLib.c ****         CY_NOP;
 4122              		.loc 1 2282 0
 4123              	@ 2282 ".\Generated_Source\PSoC5\CyLib.c" 1
 4124 0056 00BF     		NOP
 4125              	
 4126              	@ 0 "" 2
2283:.\Generated_Source\PSoC5/CyLib.c ****         CY_NOP;
 4127              		.loc 1 2283 0
 4128              	@ 2283 ".\Generated_Source\PSoC5\CyLib.c" 1
 4129 0058 00BF     		NOP
 4130              	
 4131              	@ 0 "" 2
2284:.\Generated_Source\PSoC5/CyLib.c ****         CY_NOP;
 4132              		.loc 1 2284 0
 4133              	@ 2284 ".\Generated_Source\PSoC5\CyLib.c" 1
 4134 005a 00BF     		NOP
 4135              	
 4136              	@ 0 "" 2
2285:.\Generated_Source\PSoC5/CyLib.c ****         CY_NOP;
 4137              		.loc 1 2285 0
 4138              	@ 2285 ".\Generated_Source\PSoC5\CyLib.c" 1
 4139 005c 00BF     		NOP
 4140              	
ARM GAS  C:\Users\Rolando\AppData\Local\Temp\ccmqTZg9.s 			page 114


 4141              	@ 0 "" 2
2286:.\Generated_Source\PSoC5/CyLib.c **** 
2287:.\Generated_Source\PSoC5/CyLib.c ****         /* Restore global interrupt enable state */
2288:.\Generated_Source\PSoC5/CyLib.c ****         CyExitCriticalSection(interruptState);
 4142              		.loc 1 2288 0
 4143              		.thumb
 4144 005e FB79     		ldrb	r3, [r7, #7]	@ zero_extendqisi2
 4145 0060 1846     		mov	r0, r3
 4146 0062 FFF7FEFF 		bl	CyExitCriticalSection
2289:.\Generated_Source\PSoC5/CyLib.c ****     }
 4147              		.loc 1 2289 0
 4148 0066 0837     		adds	r7, r7, #8
 4149              		.cfi_def_cfa_offset 8
 4150 0068 BD46     		mov	sp, r7
 4151              		.cfi_def_cfa_register 13
 4152              		@ sp needed
 4153 006a 80BD     		pop	{r7, pc}
 4154              	.L278:
 4155              		.align	2
 4156              	.L277:
 4157 006c 00480040 		.word	1073760256
 4158              		.cfi_endproc
 4159              	.LFE56:
 4160              		.size	CyFlushCache, .-CyFlushCache
 4161              		.section	.text.CyIntSetSysVector,"ax",%progbits
 4162              		.align	2
 4163              		.global	CyIntSetSysVector
 4164              		.thumb
 4165              		.thumb_func
 4166              		.type	CyIntSetSysVector, %function
 4167              	CyIntSetSysVector:
 4168              	.LFB57:
2290:.\Generated_Source\PSoC5/CyLib.c **** 
2291:.\Generated_Source\PSoC5/CyLib.c **** 
2292:.\Generated_Source\PSoC5/CyLib.c ****     /*******************************************************************************
2293:.\Generated_Source\PSoC5/CyLib.c ****     * Function Name: CyIntSetSysVector
2294:.\Generated_Source\PSoC5/CyLib.c ****     ********************************************************************************
2295:.\Generated_Source\PSoC5/CyLib.c ****     * Summary:
2296:.\Generated_Source\PSoC5/CyLib.c ****     *  Sets the interrupt vector of the specified system interrupt number. System
2297:.\Generated_Source\PSoC5/CyLib.c ****     *  interrupts are present only for the ARM platform. These interrupts are for
2298:.\Generated_Source\PSoC5/CyLib.c ****     *  SysTick, PendSV and others.
2299:.\Generated_Source\PSoC5/CyLib.c ****     *
2300:.\Generated_Source\PSoC5/CyLib.c ****     * Parameters:
2301:.\Generated_Source\PSoC5/CyLib.c ****     *  number: Interrupt number, valid range [0-15].
2302:.\Generated_Source\PSoC5/CyLib.c ****        address: Pointer to an interrupt service routine.
2303:.\Generated_Source\PSoC5/CyLib.c ****     *
2304:.\Generated_Source\PSoC5/CyLib.c ****     * Return:
2305:.\Generated_Source\PSoC5/CyLib.c ****     *   The old ISR vector at this location.
2306:.\Generated_Source\PSoC5/CyLib.c ****     *
2307:.\Generated_Source\PSoC5/CyLib.c ****     *******************************************************************************/
2308:.\Generated_Source\PSoC5/CyLib.c ****     cyisraddress CyIntSetSysVector(uint8 number, cyisraddress address)
2309:.\Generated_Source\PSoC5/CyLib.c ****     {
 4169              		.loc 1 2309 0
 4170              		.cfi_startproc
 4171              		@ args = 0, pretend = 0, frame = 16
 4172              		@ frame_needed = 1, uses_anonymous_args = 0
 4173 0000 80B5     		push	{r7, lr}
ARM GAS  C:\Users\Rolando\AppData\Local\Temp\ccmqTZg9.s 			page 115


 4174              		.cfi_def_cfa_offset 8
 4175              		.cfi_offset 7, -8
 4176              		.cfi_offset 14, -4
 4177 0002 84B0     		sub	sp, sp, #16
 4178              		.cfi_def_cfa_offset 24
 4179 0004 00AF     		add	r7, sp, #0
 4180              		.cfi_def_cfa_register 7
 4181 0006 0346     		mov	r3, r0
 4182 0008 3960     		str	r1, [r7]
 4183 000a FB71     		strb	r3, [r7, #7]
2310:.\Generated_Source\PSoC5/CyLib.c ****         cyisraddress oldIsr;
2311:.\Generated_Source\PSoC5/CyLib.c ****         cyisraddress *ramVectorTable = *CY_INT_VECT_TABLE;
 4184              		.loc 1 2311 0
 4185 000c 0E4B     		ldr	r3, .L282
 4186 000e 1B68     		ldr	r3, [r3]
 4187 0010 FB60     		str	r3, [r7, #12]
2312:.\Generated_Source\PSoC5/CyLib.c **** 
2313:.\Generated_Source\PSoC5/CyLib.c ****         CYASSERT(number <= CY_INT_SYS_NUMBER_MAX);
 4188              		.loc 1 2313 0
 4189 0012 FB79     		ldrb	r3, [r7, #7]	@ zero_extendqisi2
 4190 0014 0F2B     		cmp	r3, #15
 4191 0016 02D9     		bls	.L280
 4192              		.loc 1 2313 0 is_stmt 0 discriminator 1
 4193 0018 0020     		movs	r0, #0
 4194 001a FFF7FEFF 		bl	CyHalt
 4195              	.L280:
2314:.\Generated_Source\PSoC5/CyLib.c **** 
2315:.\Generated_Source\PSoC5/CyLib.c ****         /* Save old Interrupt service routine. */
2316:.\Generated_Source\PSoC5/CyLib.c ****         oldIsr = ramVectorTable[number & CY_INT_SYS_NUMBER_MASK];
 4196              		.loc 1 2316 0 is_stmt 1
 4197 001e FB79     		ldrb	r3, [r7, #7]	@ zero_extendqisi2
 4198 0020 03F00F03 		and	r3, r3, #15
 4199 0024 9B00     		lsls	r3, r3, #2
 4200 0026 FA68     		ldr	r2, [r7, #12]
 4201 0028 1344     		add	r3, r3, r2
 4202 002a 1B68     		ldr	r3, [r3]
 4203 002c BB60     		str	r3, [r7, #8]
2317:.\Generated_Source\PSoC5/CyLib.c **** 
2318:.\Generated_Source\PSoC5/CyLib.c ****         /* Set new Interrupt service routine. */
2319:.\Generated_Source\PSoC5/CyLib.c ****         ramVectorTable[number & CY_INT_SYS_NUMBER_MASK] = address;
 4204              		.loc 1 2319 0
 4205 002e FB79     		ldrb	r3, [r7, #7]	@ zero_extendqisi2
 4206 0030 03F00F03 		and	r3, r3, #15
 4207 0034 9B00     		lsls	r3, r3, #2
 4208 0036 FA68     		ldr	r2, [r7, #12]
 4209 0038 1344     		add	r3, r3, r2
 4210 003a 3A68     		ldr	r2, [r7]
 4211 003c 1A60     		str	r2, [r3]
2320:.\Generated_Source\PSoC5/CyLib.c **** 
2321:.\Generated_Source\PSoC5/CyLib.c ****         return (oldIsr);
 4212              		.loc 1 2321 0
 4213 003e BB68     		ldr	r3, [r7, #8]
2322:.\Generated_Source\PSoC5/CyLib.c ****     }
 4214              		.loc 1 2322 0
 4215 0040 1846     		mov	r0, r3
 4216 0042 1037     		adds	r7, r7, #16
 4217              		.cfi_def_cfa_offset 8
ARM GAS  C:\Users\Rolando\AppData\Local\Temp\ccmqTZg9.s 			page 116


 4218 0044 BD46     		mov	sp, r7
 4219              		.cfi_def_cfa_register 13
 4220              		@ sp needed
 4221 0046 80BD     		pop	{r7, pc}
 4222              	.L283:
 4223              		.align	2
 4224              	.L282:
 4225 0048 08ED00E0 		.word	-536810232
 4226              		.cfi_endproc
 4227              	.LFE57:
 4228              		.size	CyIntSetSysVector, .-CyIntSetSysVector
 4229              		.section	.text.CyIntGetSysVector,"ax",%progbits
 4230              		.align	2
 4231              		.global	CyIntGetSysVector
 4232              		.thumb
 4233              		.thumb_func
 4234              		.type	CyIntGetSysVector, %function
 4235              	CyIntGetSysVector:
 4236              	.LFB58:
2323:.\Generated_Source\PSoC5/CyLib.c **** 
2324:.\Generated_Source\PSoC5/CyLib.c **** 
2325:.\Generated_Source\PSoC5/CyLib.c ****     /*******************************************************************************
2326:.\Generated_Source\PSoC5/CyLib.c ****     * Function Name: CyIntGetSysVector
2327:.\Generated_Source\PSoC5/CyLib.c ****     ********************************************************************************
2328:.\Generated_Source\PSoC5/CyLib.c ****     *
2329:.\Generated_Source\PSoC5/CyLib.c ****     * Summary:
2330:.\Generated_Source\PSoC5/CyLib.c ****     *  Gets the interrupt vector of the specified system interrupt number. System
2331:.\Generated_Source\PSoC5/CyLib.c ****     *  interrupts are present only for the ARM platform. These interrupts are for
2332:.\Generated_Source\PSoC5/CyLib.c ****     *  SysTick, PendSV and others.
2333:.\Generated_Source\PSoC5/CyLib.c ****     *
2334:.\Generated_Source\PSoC5/CyLib.c ****     * Parameters:
2335:.\Generated_Source\PSoC5/CyLib.c ****     *   number: The interrupt number, valid range [0-15].
2336:.\Generated_Source\PSoC5/CyLib.c ****     *
2337:.\Generated_Source\PSoC5/CyLib.c ****     * Return:
2338:.\Generated_Source\PSoC5/CyLib.c ****     *   Address of the ISR in the interrupt vector table.
2339:.\Generated_Source\PSoC5/CyLib.c ****     *
2340:.\Generated_Source\PSoC5/CyLib.c ****     *******************************************************************************/
2341:.\Generated_Source\PSoC5/CyLib.c ****     cyisraddress CyIntGetSysVector(uint8 number)
2342:.\Generated_Source\PSoC5/CyLib.c ****     {
 4237              		.loc 1 2342 0
 4238              		.cfi_startproc
 4239              		@ args = 0, pretend = 0, frame = 16
 4240              		@ frame_needed = 1, uses_anonymous_args = 0
 4241 0000 80B5     		push	{r7, lr}
 4242              		.cfi_def_cfa_offset 8
 4243              		.cfi_offset 7, -8
 4244              		.cfi_offset 14, -4
 4245 0002 84B0     		sub	sp, sp, #16
 4246              		.cfi_def_cfa_offset 24
 4247 0004 00AF     		add	r7, sp, #0
 4248              		.cfi_def_cfa_register 7
 4249 0006 0346     		mov	r3, r0
 4250 0008 FB71     		strb	r3, [r7, #7]
2343:.\Generated_Source\PSoC5/CyLib.c ****         cyisraddress *ramVectorTable = *CY_INT_VECT_TABLE;
 4251              		.loc 1 2343 0
 4252 000a 0A4B     		ldr	r3, .L287
 4253 000c 1B68     		ldr	r3, [r3]
ARM GAS  C:\Users\Rolando\AppData\Local\Temp\ccmqTZg9.s 			page 117


 4254 000e FB60     		str	r3, [r7, #12]
2344:.\Generated_Source\PSoC5/CyLib.c ****         CYASSERT(number <= CY_INT_SYS_NUMBER_MAX);
 4255              		.loc 1 2344 0
 4256 0010 FB79     		ldrb	r3, [r7, #7]	@ zero_extendqisi2
 4257 0012 0F2B     		cmp	r3, #15
 4258 0014 02D9     		bls	.L285
 4259              		.loc 1 2344 0 is_stmt 0 discriminator 1
 4260 0016 0020     		movs	r0, #0
 4261 0018 FFF7FEFF 		bl	CyHalt
 4262              	.L285:
2345:.\Generated_Source\PSoC5/CyLib.c **** 
2346:.\Generated_Source\PSoC5/CyLib.c ****         return ramVectorTable[number & CY_INT_SYS_NUMBER_MASK];
 4263              		.loc 1 2346 0 is_stmt 1
 4264 001c FB79     		ldrb	r3, [r7, #7]	@ zero_extendqisi2
 4265 001e 03F00F03 		and	r3, r3, #15
 4266 0022 9B00     		lsls	r3, r3, #2
 4267 0024 FA68     		ldr	r2, [r7, #12]
 4268 0026 1344     		add	r3, r3, r2
 4269 0028 1B68     		ldr	r3, [r3]
2347:.\Generated_Source\PSoC5/CyLib.c ****     }
 4270              		.loc 1 2347 0
 4271 002a 1846     		mov	r0, r3
 4272 002c 1037     		adds	r7, r7, #16
 4273              		.cfi_def_cfa_offset 8
 4274 002e BD46     		mov	sp, r7
 4275              		.cfi_def_cfa_register 13
 4276              		@ sp needed
 4277 0030 80BD     		pop	{r7, pc}
 4278              	.L288:
 4279 0032 00BF     		.align	2
 4280              	.L287:
 4281 0034 08ED00E0 		.word	-536810232
 4282              		.cfi_endproc
 4283              	.LFE58:
 4284              		.size	CyIntGetSysVector, .-CyIntGetSysVector
 4285              		.section	.text.CyIntSetVector,"ax",%progbits
 4286              		.align	2
 4287              		.global	CyIntSetVector
 4288              		.thumb
 4289              		.thumb_func
 4290              		.type	CyIntSetVector, %function
 4291              	CyIntSetVector:
 4292              	.LFB59:
2348:.\Generated_Source\PSoC5/CyLib.c **** 
2349:.\Generated_Source\PSoC5/CyLib.c **** 
2350:.\Generated_Source\PSoC5/CyLib.c ****     /*******************************************************************************
2351:.\Generated_Source\PSoC5/CyLib.c ****     * Function Name: CyIntSetVector
2352:.\Generated_Source\PSoC5/CyLib.c ****     ********************************************************************************
2353:.\Generated_Source\PSoC5/CyLib.c ****     *
2354:.\Generated_Source\PSoC5/CyLib.c ****     * Summary:
2355:.\Generated_Source\PSoC5/CyLib.c ****     *  Sets the interrupt vector of the specified interrupt number.
2356:.\Generated_Source\PSoC5/CyLib.c ****     *
2357:.\Generated_Source\PSoC5/CyLib.c ****     * Parameters:
2358:.\Generated_Source\PSoC5/CyLib.c ****     *  number: Valid range [0-31].  Interrupt number
2359:.\Generated_Source\PSoC5/CyLib.c ****     *  address: Pointer to an interrupt service routine
2360:.\Generated_Source\PSoC5/CyLib.c ****     *
2361:.\Generated_Source\PSoC5/CyLib.c ****     * Return:
ARM GAS  C:\Users\Rolando\AppData\Local\Temp\ccmqTZg9.s 			page 118


2362:.\Generated_Source\PSoC5/CyLib.c ****     *   Previous interrupt vector value.
2363:.\Generated_Source\PSoC5/CyLib.c ****     *
2364:.\Generated_Source\PSoC5/CyLib.c ****     *******************************************************************************/
2365:.\Generated_Source\PSoC5/CyLib.c ****     cyisraddress CyIntSetVector(uint8 number, cyisraddress address)
2366:.\Generated_Source\PSoC5/CyLib.c ****     {
 4293              		.loc 1 2366 0
 4294              		.cfi_startproc
 4295              		@ args = 0, pretend = 0, frame = 16
 4296              		@ frame_needed = 1, uses_anonymous_args = 0
 4297 0000 80B5     		push	{r7, lr}
 4298              		.cfi_def_cfa_offset 8
 4299              		.cfi_offset 7, -8
 4300              		.cfi_offset 14, -4
 4301 0002 84B0     		sub	sp, sp, #16
 4302              		.cfi_def_cfa_offset 24
 4303 0004 00AF     		add	r7, sp, #0
 4304              		.cfi_def_cfa_register 7
 4305 0006 0346     		mov	r3, r0
 4306 0008 3960     		str	r1, [r7]
 4307 000a FB71     		strb	r3, [r7, #7]
2367:.\Generated_Source\PSoC5/CyLib.c ****         cyisraddress oldIsr;
2368:.\Generated_Source\PSoC5/CyLib.c ****         cyisraddress *ramVectorTable = *CY_INT_VECT_TABLE;
 4308              		.loc 1 2368 0
 4309 000c 0F4B     		ldr	r3, .L292
 4310 000e 1B68     		ldr	r3, [r3]
 4311 0010 FB60     		str	r3, [r7, #12]
2369:.\Generated_Source\PSoC5/CyLib.c **** 
2370:.\Generated_Source\PSoC5/CyLib.c ****         CYASSERT(number <= CY_INT_NUMBER_MAX);
 4312              		.loc 1 2370 0
 4313 0012 FB79     		ldrb	r3, [r7, #7]	@ zero_extendqisi2
 4314 0014 1F2B     		cmp	r3, #31
 4315 0016 02D9     		bls	.L290
 4316              		.loc 1 2370 0 is_stmt 0 discriminator 1
 4317 0018 0020     		movs	r0, #0
 4318 001a FFF7FEFF 		bl	CyHalt
 4319              	.L290:
2371:.\Generated_Source\PSoC5/CyLib.c **** 
2372:.\Generated_Source\PSoC5/CyLib.c ****         /* Save old Interrupt service routine. */
2373:.\Generated_Source\PSoC5/CyLib.c ****         oldIsr = ramVectorTable[CY_INT_IRQ_BASE + (number & CY_INT_NUMBER_MASK)];
 4320              		.loc 1 2373 0 is_stmt 1
 4321 001e FB79     		ldrb	r3, [r7, #7]	@ zero_extendqisi2
 4322 0020 03F01F03 		and	r3, r3, #31
 4323 0024 1033     		adds	r3, r3, #16
 4324 0026 9B00     		lsls	r3, r3, #2
 4325 0028 FA68     		ldr	r2, [r7, #12]
 4326 002a 1344     		add	r3, r3, r2
 4327 002c 1B68     		ldr	r3, [r3]
 4328 002e BB60     		str	r3, [r7, #8]
2374:.\Generated_Source\PSoC5/CyLib.c **** 
2375:.\Generated_Source\PSoC5/CyLib.c ****         /* Set new Interrupt service routine. */
2376:.\Generated_Source\PSoC5/CyLib.c ****         ramVectorTable[CY_INT_IRQ_BASE + (number & CY_INT_NUMBER_MASK)] = address;
 4329              		.loc 1 2376 0
 4330 0030 FB79     		ldrb	r3, [r7, #7]	@ zero_extendqisi2
 4331 0032 03F01F03 		and	r3, r3, #31
 4332 0036 1033     		adds	r3, r3, #16
 4333 0038 9B00     		lsls	r3, r3, #2
 4334 003a FA68     		ldr	r2, [r7, #12]
ARM GAS  C:\Users\Rolando\AppData\Local\Temp\ccmqTZg9.s 			page 119


 4335 003c 1344     		add	r3, r3, r2
 4336 003e 3A68     		ldr	r2, [r7]
 4337 0040 1A60     		str	r2, [r3]
2377:.\Generated_Source\PSoC5/CyLib.c **** 
2378:.\Generated_Source\PSoC5/CyLib.c ****         return (oldIsr);
 4338              		.loc 1 2378 0
 4339 0042 BB68     		ldr	r3, [r7, #8]
2379:.\Generated_Source\PSoC5/CyLib.c ****     }
 4340              		.loc 1 2379 0
 4341 0044 1846     		mov	r0, r3
 4342 0046 1037     		adds	r7, r7, #16
 4343              		.cfi_def_cfa_offset 8
 4344 0048 BD46     		mov	sp, r7
 4345              		.cfi_def_cfa_register 13
 4346              		@ sp needed
 4347 004a 80BD     		pop	{r7, pc}
 4348              	.L293:
 4349              		.align	2
 4350              	.L292:
 4351 004c 08ED00E0 		.word	-536810232
 4352              		.cfi_endproc
 4353              	.LFE59:
 4354              		.size	CyIntSetVector, .-CyIntSetVector
 4355              		.section	.text.CyIntGetVector,"ax",%progbits
 4356              		.align	2
 4357              		.global	CyIntGetVector
 4358              		.thumb
 4359              		.thumb_func
 4360              		.type	CyIntGetVector, %function
 4361              	CyIntGetVector:
 4362              	.LFB60:
2380:.\Generated_Source\PSoC5/CyLib.c **** 
2381:.\Generated_Source\PSoC5/CyLib.c **** 
2382:.\Generated_Source\PSoC5/CyLib.c ****     /*******************************************************************************
2383:.\Generated_Source\PSoC5/CyLib.c ****     * Function Name: CyIntGetVector
2384:.\Generated_Source\PSoC5/CyLib.c ****     ********************************************************************************
2385:.\Generated_Source\PSoC5/CyLib.c ****     *
2386:.\Generated_Source\PSoC5/CyLib.c ****     * Summary:
2387:.\Generated_Source\PSoC5/CyLib.c ****     *  Gets the interrupt vector of the specified interrupt number.
2388:.\Generated_Source\PSoC5/CyLib.c ****     *
2389:.\Generated_Source\PSoC5/CyLib.c ****     * Parameters:
2390:.\Generated_Source\PSoC5/CyLib.c ****     *  number: Valid range [0-31].  Interrupt number
2391:.\Generated_Source\PSoC5/CyLib.c ****     *
2392:.\Generated_Source\PSoC5/CyLib.c ****     * Return:
2393:.\Generated_Source\PSoC5/CyLib.c ****     *  Address of the ISR in the interrupt vector table.
2394:.\Generated_Source\PSoC5/CyLib.c ****     *
2395:.\Generated_Source\PSoC5/CyLib.c ****     *******************************************************************************/
2396:.\Generated_Source\PSoC5/CyLib.c ****     cyisraddress CyIntGetVector(uint8 number)
2397:.\Generated_Source\PSoC5/CyLib.c ****     {
 4363              		.loc 1 2397 0
 4364              		.cfi_startproc
 4365              		@ args = 0, pretend = 0, frame = 16
 4366              		@ frame_needed = 1, uses_anonymous_args = 0
 4367 0000 80B5     		push	{r7, lr}
 4368              		.cfi_def_cfa_offset 8
 4369              		.cfi_offset 7, -8
 4370              		.cfi_offset 14, -4
ARM GAS  C:\Users\Rolando\AppData\Local\Temp\ccmqTZg9.s 			page 120


 4371 0002 84B0     		sub	sp, sp, #16
 4372              		.cfi_def_cfa_offset 24
 4373 0004 00AF     		add	r7, sp, #0
 4374              		.cfi_def_cfa_register 7
 4375 0006 0346     		mov	r3, r0
 4376 0008 FB71     		strb	r3, [r7, #7]
2398:.\Generated_Source\PSoC5/CyLib.c ****         cyisraddress *ramVectorTable = *CY_INT_VECT_TABLE;
 4377              		.loc 1 2398 0
 4378 000a 0A4B     		ldr	r3, .L297
 4379 000c 1B68     		ldr	r3, [r3]
 4380 000e FB60     		str	r3, [r7, #12]
2399:.\Generated_Source\PSoC5/CyLib.c ****         CYASSERT(number <= CY_INT_NUMBER_MAX);
 4381              		.loc 1 2399 0
 4382 0010 FB79     		ldrb	r3, [r7, #7]	@ zero_extendqisi2
 4383 0012 1F2B     		cmp	r3, #31
 4384 0014 02D9     		bls	.L295
 4385              		.loc 1 2399 0 is_stmt 0 discriminator 1
 4386 0016 0020     		movs	r0, #0
 4387 0018 FFF7FEFF 		bl	CyHalt
 4388              	.L295:
2400:.\Generated_Source\PSoC5/CyLib.c **** 
2401:.\Generated_Source\PSoC5/CyLib.c ****         return (ramVectorTable[CY_INT_IRQ_BASE + (number & CY_INT_NUMBER_MASK)]);
 4389              		.loc 1 2401 0 is_stmt 1
 4390 001c FB79     		ldrb	r3, [r7, #7]	@ zero_extendqisi2
 4391 001e 03F01F03 		and	r3, r3, #31
 4392 0022 1033     		adds	r3, r3, #16
 4393 0024 9B00     		lsls	r3, r3, #2
 4394 0026 FA68     		ldr	r2, [r7, #12]
 4395 0028 1344     		add	r3, r3, r2
 4396 002a 1B68     		ldr	r3, [r3]
2402:.\Generated_Source\PSoC5/CyLib.c ****     }
 4397              		.loc 1 2402 0
 4398 002c 1846     		mov	r0, r3
 4399 002e 1037     		adds	r7, r7, #16
 4400              		.cfi_def_cfa_offset 8
 4401 0030 BD46     		mov	sp, r7
 4402              		.cfi_def_cfa_register 13
 4403              		@ sp needed
 4404 0032 80BD     		pop	{r7, pc}
 4405              	.L298:
 4406              		.align	2
 4407              	.L297:
 4408 0034 08ED00E0 		.word	-536810232
 4409              		.cfi_endproc
 4410              	.LFE60:
 4411              		.size	CyIntGetVector, .-CyIntGetVector
 4412              		.section	.text.CyIntSetPriority,"ax",%progbits
 4413              		.align	2
 4414              		.global	CyIntSetPriority
 4415              		.thumb
 4416              		.thumb_func
 4417              		.type	CyIntSetPriority, %function
 4418              	CyIntSetPriority:
 4419              	.LFB61:
2403:.\Generated_Source\PSoC5/CyLib.c **** 
2404:.\Generated_Source\PSoC5/CyLib.c **** 
2405:.\Generated_Source\PSoC5/CyLib.c ****     /*******************************************************************************
ARM GAS  C:\Users\Rolando\AppData\Local\Temp\ccmqTZg9.s 			page 121


2406:.\Generated_Source\PSoC5/CyLib.c ****     * Function Name: CyIntSetPriority
2407:.\Generated_Source\PSoC5/CyLib.c ****     ********************************************************************************
2408:.\Generated_Source\PSoC5/CyLib.c ****     *
2409:.\Generated_Source\PSoC5/CyLib.c ****     * Summary:
2410:.\Generated_Source\PSoC5/CyLib.c ****     *  Sets the Priority of the Interrupt.
2411:.\Generated_Source\PSoC5/CyLib.c ****     *
2412:.\Generated_Source\PSoC5/CyLib.c ****     * Parameters:
2413:.\Generated_Source\PSoC5/CyLib.c ****     *  priority: Priority of the interrupt. 0 - 7, 0 being the highest.
2414:.\Generated_Source\PSoC5/CyLib.c ****     *  number: The number of the interrupt, 0 - 31.
2415:.\Generated_Source\PSoC5/CyLib.c ****     *
2416:.\Generated_Source\PSoC5/CyLib.c ****     * Return:
2417:.\Generated_Source\PSoC5/CyLib.c ****     *  None
2418:.\Generated_Source\PSoC5/CyLib.c ****     *
2419:.\Generated_Source\PSoC5/CyLib.c ****     *******************************************************************************/
2420:.\Generated_Source\PSoC5/CyLib.c ****     void CyIntSetPriority(uint8 number, uint8 priority)
2421:.\Generated_Source\PSoC5/CyLib.c ****     {
 4420              		.loc 1 2421 0
 4421              		.cfi_startproc
 4422              		@ args = 0, pretend = 0, frame = 8
 4423              		@ frame_needed = 1, uses_anonymous_args = 0
 4424 0000 80B5     		push	{r7, lr}
 4425              		.cfi_def_cfa_offset 8
 4426              		.cfi_offset 7, -8
 4427              		.cfi_offset 14, -4
 4428 0002 82B0     		sub	sp, sp, #8
 4429              		.cfi_def_cfa_offset 16
 4430 0004 00AF     		add	r7, sp, #0
 4431              		.cfi_def_cfa_register 7
 4432 0006 0346     		mov	r3, r0
 4433 0008 0A46     		mov	r2, r1
 4434 000a FB71     		strb	r3, [r7, #7]
 4435 000c 1346     		mov	r3, r2
 4436 000e BB71     		strb	r3, [r7, #6]
2422:.\Generated_Source\PSoC5/CyLib.c ****         CYASSERT(priority <= CY_INT_PRIORITY_MAX);
 4437              		.loc 1 2422 0
 4438 0010 BB79     		ldrb	r3, [r7, #6]	@ zero_extendqisi2
 4439 0012 072B     		cmp	r3, #7
 4440 0014 02D9     		bls	.L300
 4441              		.loc 1 2422 0 is_stmt 0 discriminator 1
 4442 0016 0020     		movs	r0, #0
 4443 0018 FFF7FEFF 		bl	CyHalt
 4444              	.L300:
2423:.\Generated_Source\PSoC5/CyLib.c ****         CYASSERT(number <= CY_INT_NUMBER_MAX);
 4445              		.loc 1 2423 0 is_stmt 1
 4446 001c FB79     		ldrb	r3, [r7, #7]	@ zero_extendqisi2
 4447 001e 1F2B     		cmp	r3, #31
 4448 0020 02D9     		bls	.L301
 4449              		.loc 1 2423 0 is_stmt 0 discriminator 1
 4450 0022 0020     		movs	r0, #0
 4451 0024 FFF7FEFF 		bl	CyHalt
 4452              	.L301:
2424:.\Generated_Source\PSoC5/CyLib.c ****         CY_INT_PRIORITY_PTR[number & CY_INT_NUMBER_MASK] = (priority & CY_INT_PRIORITY_MASK)<< 5;
 4453              		.loc 1 2424 0 is_stmt 1
 4454 0028 FB79     		ldrb	r3, [r7, #7]	@ zero_extendqisi2
 4455 002a 03F01F03 		and	r3, r3, #31
 4456 002e 03F16043 		add	r3, r3, #-536870912
 4457 0032 03F56443 		add	r3, r3, #58368
ARM GAS  C:\Users\Rolando\AppData\Local\Temp\ccmqTZg9.s 			page 122


 4458 0036 BA79     		ldrb	r2, [r7, #6]
 4459 0038 5201     		lsls	r2, r2, #5
 4460 003a D2B2     		uxtb	r2, r2
 4461 003c 1A70     		strb	r2, [r3]
2425:.\Generated_Source\PSoC5/CyLib.c ****     }
 4462              		.loc 1 2425 0
 4463 003e 0837     		adds	r7, r7, #8
 4464              		.cfi_def_cfa_offset 8
 4465 0040 BD46     		mov	sp, r7
 4466              		.cfi_def_cfa_register 13
 4467              		@ sp needed
 4468 0042 80BD     		pop	{r7, pc}
 4469              		.cfi_endproc
 4470              	.LFE61:
 4471              		.size	CyIntSetPriority, .-CyIntSetPriority
 4472              		.section	.text.CyIntGetPriority,"ax",%progbits
 4473              		.align	2
 4474              		.global	CyIntGetPriority
 4475              		.thumb
 4476              		.thumb_func
 4477              		.type	CyIntGetPriority, %function
 4478              	CyIntGetPriority:
 4479              	.LFB62:
2426:.\Generated_Source\PSoC5/CyLib.c **** 
2427:.\Generated_Source\PSoC5/CyLib.c **** 
2428:.\Generated_Source\PSoC5/CyLib.c ****     /*******************************************************************************
2429:.\Generated_Source\PSoC5/CyLib.c ****     * Function Name: CyIntGetPriority
2430:.\Generated_Source\PSoC5/CyLib.c ****     ********************************************************************************
2431:.\Generated_Source\PSoC5/CyLib.c ****     *
2432:.\Generated_Source\PSoC5/CyLib.c ****     * Summary:
2433:.\Generated_Source\PSoC5/CyLib.c ****     *  Gets the Priority of the Interrupt.
2434:.\Generated_Source\PSoC5/CyLib.c ****     *
2435:.\Generated_Source\PSoC5/CyLib.c ****     * Parameters:
2436:.\Generated_Source\PSoC5/CyLib.c ****     *  number: The number of the interrupt, 0 - 31.
2437:.\Generated_Source\PSoC5/CyLib.c ****     *
2438:.\Generated_Source\PSoC5/CyLib.c ****     * Return:
2439:.\Generated_Source\PSoC5/CyLib.c ****     *  Priority of the interrupt. 0 - 7, 0 being the highest.
2440:.\Generated_Source\PSoC5/CyLib.c ****     *
2441:.\Generated_Source\PSoC5/CyLib.c ****     *******************************************************************************/
2442:.\Generated_Source\PSoC5/CyLib.c ****     uint8 CyIntGetPriority(uint8 number)
2443:.\Generated_Source\PSoC5/CyLib.c ****     {
 4480              		.loc 1 2443 0
 4481              		.cfi_startproc
 4482              		@ args = 0, pretend = 0, frame = 16
 4483              		@ frame_needed = 1, uses_anonymous_args = 0
 4484 0000 80B5     		push	{r7, lr}
 4485              		.cfi_def_cfa_offset 8
 4486              		.cfi_offset 7, -8
 4487              		.cfi_offset 14, -4
 4488 0002 84B0     		sub	sp, sp, #16
 4489              		.cfi_def_cfa_offset 24
 4490 0004 00AF     		add	r7, sp, #0
 4491              		.cfi_def_cfa_register 7
 4492 0006 0346     		mov	r3, r0
 4493 0008 FB71     		strb	r3, [r7, #7]
2444:.\Generated_Source\PSoC5/CyLib.c ****         uint8 priority;
2445:.\Generated_Source\PSoC5/CyLib.c **** 
ARM GAS  C:\Users\Rolando\AppData\Local\Temp\ccmqTZg9.s 			page 123


2446:.\Generated_Source\PSoC5/CyLib.c ****         CYASSERT(number <= CY_INT_NUMBER_MAX);
 4494              		.loc 1 2446 0
 4495 000a FB79     		ldrb	r3, [r7, #7]	@ zero_extendqisi2
 4496 000c 1F2B     		cmp	r3, #31
 4497 000e 02D9     		bls	.L303
 4498              		.loc 1 2446 0 is_stmt 0 discriminator 1
 4499 0010 0020     		movs	r0, #0
 4500 0012 FFF7FEFF 		bl	CyHalt
 4501              	.L303:
2447:.\Generated_Source\PSoC5/CyLib.c **** 
2448:.\Generated_Source\PSoC5/CyLib.c ****         priority = CY_INT_PRIORITY_PTR[number & CY_INT_NUMBER_MASK] >> 5;
 4502              		.loc 1 2448 0 is_stmt 1
 4503 0016 FB79     		ldrb	r3, [r7, #7]	@ zero_extendqisi2
 4504 0018 03F01F03 		and	r3, r3, #31
 4505 001c 03F16043 		add	r3, r3, #-536870912
 4506 0020 03F56443 		add	r3, r3, #58368
 4507 0024 1B78     		ldrb	r3, [r3]
 4508 0026 DBB2     		uxtb	r3, r3
 4509 0028 5B09     		lsrs	r3, r3, #5
 4510 002a FB73     		strb	r3, [r7, #15]
2449:.\Generated_Source\PSoC5/CyLib.c **** 
2450:.\Generated_Source\PSoC5/CyLib.c ****         return (priority);
 4511              		.loc 1 2450 0
 4512 002c FB7B     		ldrb	r3, [r7, #15]	@ zero_extendqisi2
2451:.\Generated_Source\PSoC5/CyLib.c ****     }
 4513              		.loc 1 2451 0
 4514 002e 1846     		mov	r0, r3
 4515 0030 1037     		adds	r7, r7, #16
 4516              		.cfi_def_cfa_offset 8
 4517 0032 BD46     		mov	sp, r7
 4518              		.cfi_def_cfa_register 13
 4519              		@ sp needed
 4520 0034 80BD     		pop	{r7, pc}
 4521              		.cfi_endproc
 4522              	.LFE62:
 4523              		.size	CyIntGetPriority, .-CyIntGetPriority
 4524 0036 00BF     		.section	.text.CyIntGetState,"ax",%progbits
 4525              		.align	2
 4526              		.global	CyIntGetState
 4527              		.thumb
 4528              		.thumb_func
 4529              		.type	CyIntGetState, %function
 4530              	CyIntGetState:
 4531              	.LFB63:
2452:.\Generated_Source\PSoC5/CyLib.c **** 
2453:.\Generated_Source\PSoC5/CyLib.c **** 
2454:.\Generated_Source\PSoC5/CyLib.c ****     /*******************************************************************************
2455:.\Generated_Source\PSoC5/CyLib.c ****     * Function Name: CyIntGetState
2456:.\Generated_Source\PSoC5/CyLib.c ****     ********************************************************************************
2457:.\Generated_Source\PSoC5/CyLib.c ****     *
2458:.\Generated_Source\PSoC5/CyLib.c ****     * Summary:
2459:.\Generated_Source\PSoC5/CyLib.c ****     *   Gets the enable state of the specified interrupt number.
2460:.\Generated_Source\PSoC5/CyLib.c ****     *
2461:.\Generated_Source\PSoC5/CyLib.c ****     * Parameters:
2462:.\Generated_Source\PSoC5/CyLib.c ****     *   number: Valid range [0-31].  Interrupt number.
2463:.\Generated_Source\PSoC5/CyLib.c ****     *
2464:.\Generated_Source\PSoC5/CyLib.c ****     * Return:
ARM GAS  C:\Users\Rolando\AppData\Local\Temp\ccmqTZg9.s 			page 124


2465:.\Generated_Source\PSoC5/CyLib.c ****     *   Enable status: 1 if enabled, 0 if disabled
2466:.\Generated_Source\PSoC5/CyLib.c ****     *
2467:.\Generated_Source\PSoC5/CyLib.c ****     *******************************************************************************/
2468:.\Generated_Source\PSoC5/CyLib.c ****     uint8 CyIntGetState(uint8 number)
2469:.\Generated_Source\PSoC5/CyLib.c ****     {
 4532              		.loc 1 2469 0
 4533              		.cfi_startproc
 4534              		@ args = 0, pretend = 0, frame = 16
 4535              		@ frame_needed = 1, uses_anonymous_args = 0
 4536 0000 80B5     		push	{r7, lr}
 4537              		.cfi_def_cfa_offset 8
 4538              		.cfi_offset 7, -8
 4539              		.cfi_offset 14, -4
 4540 0002 84B0     		sub	sp, sp, #16
 4541              		.cfi_def_cfa_offset 24
 4542 0004 00AF     		add	r7, sp, #0
 4543              		.cfi_def_cfa_register 7
 4544 0006 0346     		mov	r3, r0
 4545 0008 FB71     		strb	r3, [r7, #7]
2470:.\Generated_Source\PSoC5/CyLib.c ****         reg32 * stateReg;
2471:.\Generated_Source\PSoC5/CyLib.c **** 
2472:.\Generated_Source\PSoC5/CyLib.c ****         CYASSERT(number <= CY_INT_NUMBER_MAX);
 4546              		.loc 1 2472 0
 4547 000a FB79     		ldrb	r3, [r7, #7]	@ zero_extendqisi2
 4548 000c 1F2B     		cmp	r3, #31
 4549 000e 02D9     		bls	.L306
 4550              		.loc 1 2472 0 is_stmt 0 discriminator 1
 4551 0010 0020     		movs	r0, #0
 4552 0012 FFF7FEFF 		bl	CyHalt
 4553              	.L306:
2473:.\Generated_Source\PSoC5/CyLib.c **** 
2474:.\Generated_Source\PSoC5/CyLib.c ****         /* Get a pointer to the Interrupt enable register. */
2475:.\Generated_Source\PSoC5/CyLib.c ****         stateReg = CY_INT_ENABLE_PTR;
 4554              		.loc 1 2475 0 is_stmt 1
 4555 0016 0A4B     		ldr	r3, .L308
 4556 0018 FB60     		str	r3, [r7, #12]
2476:.\Generated_Source\PSoC5/CyLib.c **** 
2477:.\Generated_Source\PSoC5/CyLib.c ****         /* Get the state of the interrupt. */
2478:.\Generated_Source\PSoC5/CyLib.c ****         return (0u != (*stateReg & (((uint32) 1u) << (0x1Fu & number)))) ? ((uint8)(1u)) : ((uint8)
 4557              		.loc 1 2478 0
 4558 001a FB68     		ldr	r3, [r7, #12]
 4559 001c 1A68     		ldr	r2, [r3]
 4560 001e FB79     		ldrb	r3, [r7, #7]	@ zero_extendqisi2
 4561 0020 03F01F03 		and	r3, r3, #31
 4562 0024 22FA03F3 		lsr	r3, r2, r3
 4563 0028 03F00103 		and	r3, r3, #1
 4564 002c 002B     		cmp	r3, #0
 4565 002e 14BF     		ite	ne
 4566 0030 0123     		movne	r3, #1
 4567 0032 0023     		moveq	r3, #0
 4568 0034 DBB2     		uxtb	r3, r3
2479:.\Generated_Source\PSoC5/CyLib.c ****     }
 4569              		.loc 1 2479 0
 4570 0036 1846     		mov	r0, r3
 4571 0038 1037     		adds	r7, r7, #16
 4572              		.cfi_def_cfa_offset 8
 4573 003a BD46     		mov	sp, r7
ARM GAS  C:\Users\Rolando\AppData\Local\Temp\ccmqTZg9.s 			page 125


 4574              		.cfi_def_cfa_register 13
 4575              		@ sp needed
 4576 003c 80BD     		pop	{r7, pc}
 4577              	.L309:
 4578 003e 00BF     		.align	2
 4579              	.L308:
 4580 0040 00E100E0 		.word	-536813312
 4581              		.cfi_endproc
 4582              	.LFE63:
 4583              		.size	CyIntGetState, .-CyIntGetState
 4584              		.section	.text.CySetScPumps,"ax",%progbits
 4585              		.align	2
 4586              		.global	CySetScPumps
 4587              		.thumb
 4588              		.thumb_func
 4589              		.type	CySetScPumps, %function
 4590              	CySetScPumps:
 4591              	.LFB64:
2480:.\Generated_Source\PSoC5/CyLib.c **** 
2481:.\Generated_Source\PSoC5/CyLib.c **** 
2482:.\Generated_Source\PSoC5/CyLib.c **** #else   /* PSoC3 */
2483:.\Generated_Source\PSoC5/CyLib.c **** 
2484:.\Generated_Source\PSoC5/CyLib.c **** 
2485:.\Generated_Source\PSoC5/CyLib.c ****     /*******************************************************************************
2486:.\Generated_Source\PSoC5/CyLib.c ****     * Function Name: CyIntSetVector
2487:.\Generated_Source\PSoC5/CyLib.c ****     ********************************************************************************
2488:.\Generated_Source\PSoC5/CyLib.c ****     *
2489:.\Generated_Source\PSoC5/CyLib.c ****     * Summary:
2490:.\Generated_Source\PSoC5/CyLib.c ****     *  Sets the interrupt vector of the specified interrupt number.
2491:.\Generated_Source\PSoC5/CyLib.c ****     *
2492:.\Generated_Source\PSoC5/CyLib.c ****     * Parameters:
2493:.\Generated_Source\PSoC5/CyLib.c ****     *  number:  Valid range [0-31].  Interrupt number
2494:.\Generated_Source\PSoC5/CyLib.c ****     *  address: Pointer to an interrupt service routine
2495:.\Generated_Source\PSoC5/CyLib.c ****     *
2496:.\Generated_Source\PSoC5/CyLib.c ****     * Return:
2497:.\Generated_Source\PSoC5/CyLib.c ****     *  Previous interrupt vector value.
2498:.\Generated_Source\PSoC5/CyLib.c ****     *
2499:.\Generated_Source\PSoC5/CyLib.c ****     *******************************************************************************/
2500:.\Generated_Source\PSoC5/CyLib.c ****     cyisraddress CyIntSetVector(uint8 number, cyisraddress address) 
2501:.\Generated_Source\PSoC5/CyLib.c ****     {
2502:.\Generated_Source\PSoC5/CyLib.c ****         cyisraddress oldIsr;
2503:.\Generated_Source\PSoC5/CyLib.c **** 
2504:.\Generated_Source\PSoC5/CyLib.c ****         CYASSERT(number <= CY_INT_NUMBER_MAX);
2505:.\Generated_Source\PSoC5/CyLib.c **** 
2506:.\Generated_Source\PSoC5/CyLib.c ****         /* Save old Interrupt service routine. */
2507:.\Generated_Source\PSoC5/CyLib.c ****         oldIsr = (cyisraddress) \
2508:.\Generated_Source\PSoC5/CyLib.c ****                     CY_GET_REG16(&CY_INT_VECT_TABLE[number & CY_INT_NUMBER_MASK]);
2509:.\Generated_Source\PSoC5/CyLib.c **** 
2510:.\Generated_Source\PSoC5/CyLib.c ****         /* Set new Interrupt service routine. */
2511:.\Generated_Source\PSoC5/CyLib.c ****         CY_SET_REG16(&CY_INT_VECT_TABLE[number], (uint16) address);
2512:.\Generated_Source\PSoC5/CyLib.c **** 
2513:.\Generated_Source\PSoC5/CyLib.c ****         return (oldIsr);
2514:.\Generated_Source\PSoC5/CyLib.c ****     }
2515:.\Generated_Source\PSoC5/CyLib.c **** 
2516:.\Generated_Source\PSoC5/CyLib.c **** 
2517:.\Generated_Source\PSoC5/CyLib.c ****     /*******************************************************************************
2518:.\Generated_Source\PSoC5/CyLib.c ****     * Function Name: CyIntGetVector
ARM GAS  C:\Users\Rolando\AppData\Local\Temp\ccmqTZg9.s 			page 126


2519:.\Generated_Source\PSoC5/CyLib.c ****     ********************************************************************************
2520:.\Generated_Source\PSoC5/CyLib.c ****     *
2521:.\Generated_Source\PSoC5/CyLib.c ****     * Summary:
2522:.\Generated_Source\PSoC5/CyLib.c ****     *  Gets the interrupt vector of the specified interrupt number.
2523:.\Generated_Source\PSoC5/CyLib.c ****     *
2524:.\Generated_Source\PSoC5/CyLib.c ****     * Parameters:
2525:.\Generated_Source\PSoC5/CyLib.c ****     *  number: Valid range [0-31].  Interrupt number
2526:.\Generated_Source\PSoC5/CyLib.c ****     *
2527:.\Generated_Source\PSoC5/CyLib.c ****     * Return:
2528:.\Generated_Source\PSoC5/CyLib.c ****     *  Address of the ISR in the interrupt vector table.
2529:.\Generated_Source\PSoC5/CyLib.c ****     *
2530:.\Generated_Source\PSoC5/CyLib.c ****     *******************************************************************************/
2531:.\Generated_Source\PSoC5/CyLib.c ****     cyisraddress CyIntGetVector(uint8 number) 
2532:.\Generated_Source\PSoC5/CyLib.c ****     {
2533:.\Generated_Source\PSoC5/CyLib.c ****         CYASSERT(number <= CY_INT_NUMBER_MAX);
2534:.\Generated_Source\PSoC5/CyLib.c **** 
2535:.\Generated_Source\PSoC5/CyLib.c ****         return ((cyisraddress) \
2536:.\Generated_Source\PSoC5/CyLib.c ****                 CY_GET_REG16(&CY_INT_VECT_TABLE[number & CY_INT_NUMBER_MASK]));
2537:.\Generated_Source\PSoC5/CyLib.c ****     }
2538:.\Generated_Source\PSoC5/CyLib.c **** 
2539:.\Generated_Source\PSoC5/CyLib.c **** 
2540:.\Generated_Source\PSoC5/CyLib.c ****     /*******************************************************************************
2541:.\Generated_Source\PSoC5/CyLib.c ****     * Function Name: CyIntSetPriority
2542:.\Generated_Source\PSoC5/CyLib.c ****     ********************************************************************************
2543:.\Generated_Source\PSoC5/CyLib.c ****     *
2544:.\Generated_Source\PSoC5/CyLib.c ****     * Summary:
2545:.\Generated_Source\PSoC5/CyLib.c ****     *  Sets the Priority of the Interrupt.
2546:.\Generated_Source\PSoC5/CyLib.c ****     *
2547:.\Generated_Source\PSoC5/CyLib.c ****     * Parameters:
2548:.\Generated_Source\PSoC5/CyLib.c ****     *  priority: Priority of the interrupt. 0 - 7, 0 being the highest.
2549:.\Generated_Source\PSoC5/CyLib.c ****     *  number:   The number of the interrupt, 0 - 31.
2550:.\Generated_Source\PSoC5/CyLib.c ****     *
2551:.\Generated_Source\PSoC5/CyLib.c ****     * Return:
2552:.\Generated_Source\PSoC5/CyLib.c ****     *  None
2553:.\Generated_Source\PSoC5/CyLib.c ****     *
2554:.\Generated_Source\PSoC5/CyLib.c ****     *******************************************************************************/
2555:.\Generated_Source\PSoC5/CyLib.c ****     void CyIntSetPriority(uint8 number, uint8 priority) 
2556:.\Generated_Source\PSoC5/CyLib.c ****     {
2557:.\Generated_Source\PSoC5/CyLib.c ****         CYASSERT(priority <= CY_INT_PRIORITY_MAX);
2558:.\Generated_Source\PSoC5/CyLib.c **** 
2559:.\Generated_Source\PSoC5/CyLib.c ****         CYASSERT(number <= CY_INT_NUMBER_MAX);
2560:.\Generated_Source\PSoC5/CyLib.c **** 
2561:.\Generated_Source\PSoC5/CyLib.c ****         CY_INT_PRIORITY_PTR[number & CY_INT_NUMBER_MASK] =
2562:.\Generated_Source\PSoC5/CyLib.c ****                     (priority & CY_INT_PRIORITY_MASK) << 5;
2563:.\Generated_Source\PSoC5/CyLib.c ****     }
2564:.\Generated_Source\PSoC5/CyLib.c **** 
2565:.\Generated_Source\PSoC5/CyLib.c **** 
2566:.\Generated_Source\PSoC5/CyLib.c ****     /*******************************************************************************
2567:.\Generated_Source\PSoC5/CyLib.c ****     * Function Name: CyIntGetPriority
2568:.\Generated_Source\PSoC5/CyLib.c ****     ********************************************************************************
2569:.\Generated_Source\PSoC5/CyLib.c ****     *
2570:.\Generated_Source\PSoC5/CyLib.c ****     * Summary:
2571:.\Generated_Source\PSoC5/CyLib.c ****     *  Gets the Priority of the Interrupt.
2572:.\Generated_Source\PSoC5/CyLib.c ****     *
2573:.\Generated_Source\PSoC5/CyLib.c ****     * Parameters:
2574:.\Generated_Source\PSoC5/CyLib.c ****     *  number: The number of the interrupt, 0 - 31.
2575:.\Generated_Source\PSoC5/CyLib.c ****     *
ARM GAS  C:\Users\Rolando\AppData\Local\Temp\ccmqTZg9.s 			page 127


2576:.\Generated_Source\PSoC5/CyLib.c ****     * Return:
2577:.\Generated_Source\PSoC5/CyLib.c ****     *  Priority of the interrupt. 0 - 7, 0 being the highest.
2578:.\Generated_Source\PSoC5/CyLib.c ****     *
2579:.\Generated_Source\PSoC5/CyLib.c ****     *******************************************************************************/
2580:.\Generated_Source\PSoC5/CyLib.c ****     uint8 CyIntGetPriority(uint8 number) 
2581:.\Generated_Source\PSoC5/CyLib.c ****     {
2582:.\Generated_Source\PSoC5/CyLib.c ****         uint8 priority;
2583:.\Generated_Source\PSoC5/CyLib.c **** 
2584:.\Generated_Source\PSoC5/CyLib.c ****         CYASSERT(number <= CY_INT_NUMBER_MAX);
2585:.\Generated_Source\PSoC5/CyLib.c **** 
2586:.\Generated_Source\PSoC5/CyLib.c ****         priority = CY_INT_PRIORITY_PTR[number & CY_INT_NUMBER_MASK] >> 5;
2587:.\Generated_Source\PSoC5/CyLib.c **** 
2588:.\Generated_Source\PSoC5/CyLib.c ****         return (priority);
2589:.\Generated_Source\PSoC5/CyLib.c ****     }
2590:.\Generated_Source\PSoC5/CyLib.c **** 
2591:.\Generated_Source\PSoC5/CyLib.c **** 
2592:.\Generated_Source\PSoC5/CyLib.c ****     /*******************************************************************************
2593:.\Generated_Source\PSoC5/CyLib.c ****     * Function Name: CyIntGetState
2594:.\Generated_Source\PSoC5/CyLib.c ****     ********************************************************************************
2595:.\Generated_Source\PSoC5/CyLib.c ****     *
2596:.\Generated_Source\PSoC5/CyLib.c ****     * Summary:
2597:.\Generated_Source\PSoC5/CyLib.c ****     *   Gets the enable state of the specified interrupt number.
2598:.\Generated_Source\PSoC5/CyLib.c ****     *
2599:.\Generated_Source\PSoC5/CyLib.c ****     * Parameters:
2600:.\Generated_Source\PSoC5/CyLib.c ****     *   number: Valid range [0-31].  Interrupt number.
2601:.\Generated_Source\PSoC5/CyLib.c ****     *
2602:.\Generated_Source\PSoC5/CyLib.c ****     * Return:
2603:.\Generated_Source\PSoC5/CyLib.c ****     *   Enable status: 1 if enabled, 0 if disabled
2604:.\Generated_Source\PSoC5/CyLib.c ****     *
2605:.\Generated_Source\PSoC5/CyLib.c ****     *******************************************************************************/
2606:.\Generated_Source\PSoC5/CyLib.c ****     uint8 CyIntGetState(uint8 number) 
2607:.\Generated_Source\PSoC5/CyLib.c ****     {
2608:.\Generated_Source\PSoC5/CyLib.c ****         reg8 * stateReg;
2609:.\Generated_Source\PSoC5/CyLib.c **** 
2610:.\Generated_Source\PSoC5/CyLib.c ****         CYASSERT(number <= CY_INT_NUMBER_MAX);
2611:.\Generated_Source\PSoC5/CyLib.c **** 
2612:.\Generated_Source\PSoC5/CyLib.c ****         /* Get a pointer to the Interrupt enable register. */
2613:.\Generated_Source\PSoC5/CyLib.c ****         stateReg = CY_INT_ENABLE_PTR + ((number & CY_INT_NUMBER_MASK) >> 3u);
2614:.\Generated_Source\PSoC5/CyLib.c **** 
2615:.\Generated_Source\PSoC5/CyLib.c ****         /* Get the state of the interrupt. */
2616:.\Generated_Source\PSoC5/CyLib.c ****         return ((0u != (*stateReg & ((uint8)(1u << (0x07u & number))))) ? ((uint8)(1u)) : ((uint8)(
2617:.\Generated_Source\PSoC5/CyLib.c ****     }
2618:.\Generated_Source\PSoC5/CyLib.c **** 
2619:.\Generated_Source\PSoC5/CyLib.c **** 
2620:.\Generated_Source\PSoC5/CyLib.c **** #endif  /* (CY_PSOC5) */
2621:.\Generated_Source\PSoC5/CyLib.c **** 
2622:.\Generated_Source\PSoC5/CyLib.c **** 
2623:.\Generated_Source\PSoC5/CyLib.c **** #if(CYDEV_VARIABLE_VDDA == 1)
2624:.\Generated_Source\PSoC5/CyLib.c **** 
2625:.\Generated_Source\PSoC5/CyLib.c ****     /*******************************************************************************
2626:.\Generated_Source\PSoC5/CyLib.c ****     * Function Name: CySetScPumps
2627:.\Generated_Source\PSoC5/CyLib.c ****     ********************************************************************************
2628:.\Generated_Source\PSoC5/CyLib.c ****     *
2629:.\Generated_Source\PSoC5/CyLib.c ****     * Summary:
2630:.\Generated_Source\PSoC5/CyLib.c ****     *  If 1 is passed as a parameter:
2631:.\Generated_Source\PSoC5/CyLib.c ****     *   - if any of the SC blocks are used - enable pumps for the SC blocks and
2632:.\Generated_Source\PSoC5/CyLib.c ****     *     start boost clock.
ARM GAS  C:\Users\Rolando\AppData\Local\Temp\ccmqTZg9.s 			page 128


2633:.\Generated_Source\PSoC5/CyLib.c ****     *   - For the each enabled SC block set boost clock index and enable boost
2634:.\Generated_Source\PSoC5/CyLib.c ****     *     clock.
2635:.\Generated_Source\PSoC5/CyLib.c ****     *
2636:.\Generated_Source\PSoC5/CyLib.c ****     *  If non-1 value is passed as a parameter:
2637:.\Generated_Source\PSoC5/CyLib.c ****     *   - If all SC blocks are not used - disable pumps for the SC blocks and
2638:.\Generated_Source\PSoC5/CyLib.c ****     *     stop boost clock.
2639:.\Generated_Source\PSoC5/CyLib.c ****     *   - For the each enabled SC block clear boost clock index and disable boost
2640:.\Generated_Source\PSoC5/CyLib.c ****     *     clock.
2641:.\Generated_Source\PSoC5/CyLib.c ****     *
2642:.\Generated_Source\PSoC5/CyLib.c ****     *  The global variable CyScPumpEnabled is updated to be equal to passed
2643:.\Generated_Source\PSoC5/CyLib.c ****     *  parameter.
2644:.\Generated_Source\PSoC5/CyLib.c ****     *
2645:.\Generated_Source\PSoC5/CyLib.c ****     * Parameters:
2646:.\Generated_Source\PSoC5/CyLib.c ****     *   uint8 enable: Enable/disable SC pumps and boost clock for enabled SC block.
2647:.\Generated_Source\PSoC5/CyLib.c ****     *                 1 - Enable
2648:.\Generated_Source\PSoC5/CyLib.c ****     *                 0 - Disable
2649:.\Generated_Source\PSoC5/CyLib.c ****     *
2650:.\Generated_Source\PSoC5/CyLib.c ****     * Return:
2651:.\Generated_Source\PSoC5/CyLib.c ****     *   None
2652:.\Generated_Source\PSoC5/CyLib.c ****     *
2653:.\Generated_Source\PSoC5/CyLib.c ****     *******************************************************************************/
2654:.\Generated_Source\PSoC5/CyLib.c ****     void CySetScPumps(uint8 enable) 
2655:.\Generated_Source\PSoC5/CyLib.c ****     {
 4592              		.loc 1 2655 0
 4593              		.cfi_startproc
 4594              		@ args = 0, pretend = 0, frame = 8
 4595              		@ frame_needed = 1, uses_anonymous_args = 0
 4596 0000 80B5     		push	{r7, lr}
 4597              		.cfi_def_cfa_offset 8
 4598              		.cfi_offset 7, -8
 4599              		.cfi_offset 14, -4
 4600 0002 82B0     		sub	sp, sp, #8
 4601              		.cfi_def_cfa_offset 16
 4602 0004 00AF     		add	r7, sp, #0
 4603              		.cfi_def_cfa_register 7
 4604 0006 0346     		mov	r3, r0
 4605 0008 FB71     		strb	r3, [r7, #7]
2656:.\Generated_Source\PSoC5/CyLib.c ****         if(1u == enable)
 4606              		.loc 1 2656 0
 4607 000a FB79     		ldrb	r3, [r7, #7]	@ zero_extendqisi2
 4608 000c 012B     		cmp	r3, #1
 4609 000e 70D1     		bne	.L311
2657:.\Generated_Source\PSoC5/CyLib.c ****         {
2658:.\Generated_Source\PSoC5/CyLib.c ****             /* The SC pumps should be enabled */
2659:.\Generated_Source\PSoC5/CyLib.c ****             CyScPumpEnabled = 1u;
 4610              		.loc 1 2659 0
 4611 0010 604B     		ldr	r3, .L318
 4612 0012 0122     		movs	r2, #1
 4613 0014 1A70     		strb	r2, [r3]
2660:.\Generated_Source\PSoC5/CyLib.c ****             /* Enable pumps if any of SC blocks are used */
2661:.\Generated_Source\PSoC5/CyLib.c ****             if(0u != (CY_LIB_ACT_CFG9_REG & CY_LIB_ACT_CFG9_SWCAPS_MASK))
 4614              		.loc 1 2661 0
 4615 0016 604B     		ldr	r3, .L318+4
 4616 0018 1B78     		ldrb	r3, [r3]
 4617 001a DBB2     		uxtb	r3, r3
 4618 001c 03F00F03 		and	r3, r3, #15
 4619 0020 002B     		cmp	r3, #0
ARM GAS  C:\Users\Rolando\AppData\Local\Temp\ccmqTZg9.s 			page 129


 4620 0022 09D0     		beq	.L312
2662:.\Generated_Source\PSoC5/CyLib.c ****             {
2663:.\Generated_Source\PSoC5/CyLib.c ****                 CY_LIB_SC_MISC_REG |= CY_LIB_SC_MISC_PUMP_FORCE;
 4621              		.loc 1 2663 0
 4622 0024 5D4A     		ldr	r2, .L318+8
 4623 0026 5D4B     		ldr	r3, .L318+8
 4624 0028 1B78     		ldrb	r3, [r3]
 4625 002a DBB2     		uxtb	r3, r3
 4626 002c 43F02003 		orr	r3, r3, #32
 4627 0030 DBB2     		uxtb	r3, r3
 4628 0032 1370     		strb	r3, [r2]
2664:.\Generated_Source\PSoC5/CyLib.c ****                 CyScBoostClk_Start();
 4629              		.loc 1 2664 0
 4630 0034 FFF7FEFF 		bl	CyScBoostClk_Start
 4631              	.L312:
2665:.\Generated_Source\PSoC5/CyLib.c ****             }
2666:.\Generated_Source\PSoC5/CyLib.c ****             /* Set positive pump for each enabled SC block: set clock index and enable it */
2667:.\Generated_Source\PSoC5/CyLib.c ****             if(0u != (CY_LIB_ACT_CFG9_REG & CY_LIB_ACT_CFG9_SWCAP0_EN))
 4632              		.loc 1 2667 0
 4633 0038 574B     		ldr	r3, .L318+4
 4634 003a 1B78     		ldrb	r3, [r3]
 4635 003c DBB2     		uxtb	r3, r3
 4636 003e 03F00103 		and	r3, r3, #1
 4637 0042 002B     		cmp	r3, #0
 4638 0044 0FD0     		beq	.L313
2668:.\Generated_Source\PSoC5/CyLib.c ****             {
2669:.\Generated_Source\PSoC5/CyLib.c ****                 CY_LIB_SC0_BST_REG = (CY_LIB_SC0_BST_REG & CY_LIB_SC_BST_CLK_INDEX_MASK) | CyScBoos
 4639              		.loc 1 2669 0
 4640 0046 564A     		ldr	r2, .L318+12
 4641 0048 554B     		ldr	r3, .L318+12
 4642 004a 1B78     		ldrb	r3, [r3]
 4643 004c DBB2     		uxtb	r3, r3
 4644 004e 23F00703 		bic	r3, r3, #7
 4645 0052 DBB2     		uxtb	r3, r3
 4646 0054 1370     		strb	r3, [r2]
2670:.\Generated_Source\PSoC5/CyLib.c ****                 CY_LIB_SC0_BST_REG |= CY_LIB_SC_BST_CLK_EN;
 4647              		.loc 1 2670 0
 4648 0056 524A     		ldr	r2, .L318+12
 4649 0058 514B     		ldr	r3, .L318+12
 4650 005a 1B78     		ldrb	r3, [r3]
 4651 005c DBB2     		uxtb	r3, r3
 4652 005e 43F00803 		orr	r3, r3, #8
 4653 0062 DBB2     		uxtb	r3, r3
 4654 0064 1370     		strb	r3, [r2]
 4655              	.L313:
2671:.\Generated_Source\PSoC5/CyLib.c ****             }
2672:.\Generated_Source\PSoC5/CyLib.c ****             if(0u != (CY_LIB_ACT_CFG9_REG & CY_LIB_ACT_CFG9_SWCAP1_EN))
 4656              		.loc 1 2672 0
 4657 0066 4C4B     		ldr	r3, .L318+4
 4658 0068 1B78     		ldrb	r3, [r3]
 4659 006a DBB2     		uxtb	r3, r3
 4660 006c 03F00203 		and	r3, r3, #2
 4661 0070 002B     		cmp	r3, #0
 4662 0072 0FD0     		beq	.L314
2673:.\Generated_Source\PSoC5/CyLib.c ****             {
2674:.\Generated_Source\PSoC5/CyLib.c ****                 CY_LIB_SC1_BST_REG = (CY_LIB_SC1_BST_REG & CY_LIB_SC_BST_CLK_INDEX_MASK) | CyScBoos
 4663              		.loc 1 2674 0
ARM GAS  C:\Users\Rolando\AppData\Local\Temp\ccmqTZg9.s 			page 130


 4664 0074 4B4A     		ldr	r2, .L318+16
 4665 0076 4B4B     		ldr	r3, .L318+16
 4666 0078 1B78     		ldrb	r3, [r3]
 4667 007a DBB2     		uxtb	r3, r3
 4668 007c 23F00703 		bic	r3, r3, #7
 4669 0080 DBB2     		uxtb	r3, r3
 4670 0082 1370     		strb	r3, [r2]
2675:.\Generated_Source\PSoC5/CyLib.c ****                 CY_LIB_SC1_BST_REG |= CY_LIB_SC_BST_CLK_EN;
 4671              		.loc 1 2675 0
 4672 0084 474A     		ldr	r2, .L318+16
 4673 0086 474B     		ldr	r3, .L318+16
 4674 0088 1B78     		ldrb	r3, [r3]
 4675 008a DBB2     		uxtb	r3, r3
 4676 008c 43F00803 		orr	r3, r3, #8
 4677 0090 DBB2     		uxtb	r3, r3
 4678 0092 1370     		strb	r3, [r2]
 4679              	.L314:
2676:.\Generated_Source\PSoC5/CyLib.c ****             }
2677:.\Generated_Source\PSoC5/CyLib.c ****             if(0u != (CY_LIB_ACT_CFG9_REG & CY_LIB_ACT_CFG9_SWCAP2_EN))
 4680              		.loc 1 2677 0
 4681 0094 404B     		ldr	r3, .L318+4
 4682 0096 1B78     		ldrb	r3, [r3]
 4683 0098 DBB2     		uxtb	r3, r3
 4684 009a 03F00403 		and	r3, r3, #4
 4685 009e 002B     		cmp	r3, #0
 4686 00a0 0FD0     		beq	.L315
2678:.\Generated_Source\PSoC5/CyLib.c ****             {
2679:.\Generated_Source\PSoC5/CyLib.c ****                 CY_LIB_SC2_BST_REG = (CY_LIB_SC2_BST_REG & CY_LIB_SC_BST_CLK_INDEX_MASK) | CyScBoos
 4687              		.loc 1 2679 0
 4688 00a2 414A     		ldr	r2, .L318+20
 4689 00a4 404B     		ldr	r3, .L318+20
 4690 00a6 1B78     		ldrb	r3, [r3]
 4691 00a8 DBB2     		uxtb	r3, r3
 4692 00aa 23F00703 		bic	r3, r3, #7
 4693 00ae DBB2     		uxtb	r3, r3
 4694 00b0 1370     		strb	r3, [r2]
2680:.\Generated_Source\PSoC5/CyLib.c ****                 CY_LIB_SC2_BST_REG |= CY_LIB_SC_BST_CLK_EN;
 4695              		.loc 1 2680 0
 4696 00b2 3D4A     		ldr	r2, .L318+20
 4697 00b4 3C4B     		ldr	r3, .L318+20
 4698 00b6 1B78     		ldrb	r3, [r3]
 4699 00b8 DBB2     		uxtb	r3, r3
 4700 00ba 43F00803 		orr	r3, r3, #8
 4701 00be DBB2     		uxtb	r3, r3
 4702 00c0 1370     		strb	r3, [r2]
 4703              	.L315:
2681:.\Generated_Source\PSoC5/CyLib.c ****             }
2682:.\Generated_Source\PSoC5/CyLib.c ****             if(0u != (CY_LIB_ACT_CFG9_REG & CY_LIB_ACT_CFG9_SWCAP3_EN))
 4704              		.loc 1 2682 0
 4705 00c2 354B     		ldr	r3, .L318+4
 4706 00c4 1B78     		ldrb	r3, [r3]
 4707 00c6 DBB2     		uxtb	r3, r3
 4708 00c8 03F00803 		and	r3, r3, #8
 4709 00cc 002B     		cmp	r3, #0
 4710 00ce 5DD0     		beq	.L310
2683:.\Generated_Source\PSoC5/CyLib.c ****             {
2684:.\Generated_Source\PSoC5/CyLib.c ****                 CY_LIB_SC3_BST_REG = (CY_LIB_SC3_BST_REG & CY_LIB_SC_BST_CLK_INDEX_MASK) | CyScBoos
ARM GAS  C:\Users\Rolando\AppData\Local\Temp\ccmqTZg9.s 			page 131


 4711              		.loc 1 2684 0
 4712 00d0 364A     		ldr	r2, .L318+24
 4713 00d2 364B     		ldr	r3, .L318+24
 4714 00d4 1B78     		ldrb	r3, [r3]
 4715 00d6 DBB2     		uxtb	r3, r3
 4716 00d8 23F00703 		bic	r3, r3, #7
 4717 00dc DBB2     		uxtb	r3, r3
 4718 00de 1370     		strb	r3, [r2]
2685:.\Generated_Source\PSoC5/CyLib.c ****                 CY_LIB_SC3_BST_REG |= CY_LIB_SC_BST_CLK_EN;
 4719              		.loc 1 2685 0
 4720 00e0 324A     		ldr	r2, .L318+24
 4721 00e2 324B     		ldr	r3, .L318+24
 4722 00e4 1B78     		ldrb	r3, [r3]
 4723 00e6 DBB2     		uxtb	r3, r3
 4724 00e8 43F00803 		orr	r3, r3, #8
 4725 00ec DBB2     		uxtb	r3, r3
 4726 00ee 1370     		strb	r3, [r2]
 4727 00f0 4CE0     		b	.L310
 4728              	.L311:
2686:.\Generated_Source\PSoC5/CyLib.c ****             }
2687:.\Generated_Source\PSoC5/CyLib.c ****         }
2688:.\Generated_Source\PSoC5/CyLib.c ****         else
2689:.\Generated_Source\PSoC5/CyLib.c ****         {
2690:.\Generated_Source\PSoC5/CyLib.c ****             /* The SC pumps should be disabled */
2691:.\Generated_Source\PSoC5/CyLib.c ****             CyScPumpEnabled = 0u;
 4729              		.loc 1 2691 0
 4730 00f2 284B     		ldr	r3, .L318
 4731 00f4 0022     		movs	r2, #0
 4732 00f6 1A70     		strb	r2, [r3]
2692:.\Generated_Source\PSoC5/CyLib.c ****             /* Disable pumps for all SC blocks and stop boost clock */
2693:.\Generated_Source\PSoC5/CyLib.c ****             CY_LIB_SC_MISC_REG &= ((uint8)(~CY_LIB_SC_MISC_PUMP_FORCE));
 4733              		.loc 1 2693 0
 4734 00f8 284A     		ldr	r2, .L318+8
 4735 00fa 284B     		ldr	r3, .L318+8
 4736 00fc 1B78     		ldrb	r3, [r3]
 4737 00fe DBB2     		uxtb	r3, r3
 4738 0100 23F02003 		bic	r3, r3, #32
 4739 0104 DBB2     		uxtb	r3, r3
 4740 0106 1370     		strb	r3, [r2]
2694:.\Generated_Source\PSoC5/CyLib.c ****             CyScBoostClk_Stop();
 4741              		.loc 1 2694 0
 4742 0108 FFF7FEFF 		bl	CyScBoostClk_Stop
2695:.\Generated_Source\PSoC5/CyLib.c ****             /* Disable boost clock and clear clock index for each SC block */
2696:.\Generated_Source\PSoC5/CyLib.c ****             CY_LIB_SC0_BST_REG &= ((uint8)(~CY_LIB_SC_BST_CLK_EN));
 4743              		.loc 1 2696 0
 4744 010c 244A     		ldr	r2, .L318+12
 4745 010e 244B     		ldr	r3, .L318+12
 4746 0110 1B78     		ldrb	r3, [r3]
 4747 0112 DBB2     		uxtb	r3, r3
 4748 0114 23F00803 		bic	r3, r3, #8
 4749 0118 DBB2     		uxtb	r3, r3
 4750 011a 1370     		strb	r3, [r2]
2697:.\Generated_Source\PSoC5/CyLib.c ****             CY_LIB_SC0_BST_REG = CY_LIB_SC0_BST_REG & CY_LIB_SC_BST_CLK_INDEX_MASK;
 4751              		.loc 1 2697 0
 4752 011c 204A     		ldr	r2, .L318+12
 4753 011e 204B     		ldr	r3, .L318+12
 4754 0120 1B78     		ldrb	r3, [r3]
ARM GAS  C:\Users\Rolando\AppData\Local\Temp\ccmqTZg9.s 			page 132


 4755 0122 DBB2     		uxtb	r3, r3
 4756 0124 23F00703 		bic	r3, r3, #7
 4757 0128 DBB2     		uxtb	r3, r3
 4758 012a 1370     		strb	r3, [r2]
2698:.\Generated_Source\PSoC5/CyLib.c ****             CY_LIB_SC1_BST_REG &= ((uint8)(~CY_LIB_SC_BST_CLK_EN));
 4759              		.loc 1 2698 0
 4760 012c 1D4A     		ldr	r2, .L318+16
 4761 012e 1D4B     		ldr	r3, .L318+16
 4762 0130 1B78     		ldrb	r3, [r3]
 4763 0132 DBB2     		uxtb	r3, r3
 4764 0134 23F00803 		bic	r3, r3, #8
 4765 0138 DBB2     		uxtb	r3, r3
 4766 013a 1370     		strb	r3, [r2]
2699:.\Generated_Source\PSoC5/CyLib.c ****             CY_LIB_SC1_BST_REG = CY_LIB_SC1_BST_REG & CY_LIB_SC_BST_CLK_INDEX_MASK;
 4767              		.loc 1 2699 0
 4768 013c 194A     		ldr	r2, .L318+16
 4769 013e 194B     		ldr	r3, .L318+16
 4770 0140 1B78     		ldrb	r3, [r3]
 4771 0142 DBB2     		uxtb	r3, r3
 4772 0144 23F00703 		bic	r3, r3, #7
 4773 0148 DBB2     		uxtb	r3, r3
 4774 014a 1370     		strb	r3, [r2]
2700:.\Generated_Source\PSoC5/CyLib.c ****             CY_LIB_SC2_BST_REG &= ((uint8)(~CY_LIB_SC_BST_CLK_EN));
 4775              		.loc 1 2700 0
 4776 014c 164A     		ldr	r2, .L318+20
 4777 014e 164B     		ldr	r3, .L318+20
 4778 0150 1B78     		ldrb	r3, [r3]
 4779 0152 DBB2     		uxtb	r3, r3
 4780 0154 23F00803 		bic	r3, r3, #8
 4781 0158 DBB2     		uxtb	r3, r3
 4782 015a 1370     		strb	r3, [r2]
2701:.\Generated_Source\PSoC5/CyLib.c ****             CY_LIB_SC2_BST_REG = CY_LIB_SC2_BST_REG & CY_LIB_SC_BST_CLK_INDEX_MASK;
 4783              		.loc 1 2701 0
 4784 015c 124A     		ldr	r2, .L318+20
 4785 015e 124B     		ldr	r3, .L318+20
 4786 0160 1B78     		ldrb	r3, [r3]
 4787 0162 DBB2     		uxtb	r3, r3
 4788 0164 23F00703 		bic	r3, r3, #7
 4789 0168 DBB2     		uxtb	r3, r3
 4790 016a 1370     		strb	r3, [r2]
2702:.\Generated_Source\PSoC5/CyLib.c ****             CY_LIB_SC3_BST_REG &= ((uint8)(~CY_LIB_SC_BST_CLK_EN));
 4791              		.loc 1 2702 0
 4792 016c 0F4A     		ldr	r2, .L318+24
 4793 016e 0F4B     		ldr	r3, .L318+24
 4794 0170 1B78     		ldrb	r3, [r3]
 4795 0172 DBB2     		uxtb	r3, r3
 4796 0174 23F00803 		bic	r3, r3, #8
 4797 0178 DBB2     		uxtb	r3, r3
 4798 017a 1370     		strb	r3, [r2]
2703:.\Generated_Source\PSoC5/CyLib.c ****             CY_LIB_SC3_BST_REG = CY_LIB_SC3_BST_REG & CY_LIB_SC_BST_CLK_INDEX_MASK;
 4799              		.loc 1 2703 0
 4800 017c 0B4A     		ldr	r2, .L318+24
 4801 017e 0B4B     		ldr	r3, .L318+24
 4802 0180 1B78     		ldrb	r3, [r3]
 4803 0182 DBB2     		uxtb	r3, r3
 4804 0184 23F00703 		bic	r3, r3, #7
 4805 0188 DBB2     		uxtb	r3, r3
ARM GAS  C:\Users\Rolando\AppData\Local\Temp\ccmqTZg9.s 			page 133


 4806 018a 1370     		strb	r3, [r2]
 4807              	.L310:
2704:.\Generated_Source\PSoC5/CyLib.c ****         }
2705:.\Generated_Source\PSoC5/CyLib.c ****     }
 4808              		.loc 1 2705 0
 4809 018c 0837     		adds	r7, r7, #8
 4810              		.cfi_def_cfa_offset 8
 4811 018e BD46     		mov	sp, r7
 4812              		.cfi_def_cfa_register 13
 4813              		@ sp needed
 4814 0190 80BD     		pop	{r7, pc}
 4815              	.L319:
 4816 0192 00BF     		.align	2
 4817              	.L318:
 4818 0194 00000000 		.word	CyScPumpEnabled
 4819 0198 A9430040 		.word	1073759145
 4820 019c 565B0040 		.word	1073765206
 4821 01a0 0C5A0040 		.word	1073764876
 4822 01a4 1C5A0040 		.word	1073764892
 4823 01a8 2C5A0040 		.word	1073764908
 4824 01ac 3C5A0040 		.word	1073764924
 4825              		.cfi_endproc
 4826              	.LFE64:
 4827              		.size	CySetScPumps, .-CySetScPumps
 4828              		.text
 4829              	.Letext0:
 4830              		.file 2 ".\\Generated_Source\\PSoC5\\cytypes.h"
 4831              		.section	.debug_info,"",%progbits
 4832              	.Ldebug_info0:
 4833 0000 C30B0000 		.4byte	0xbc3
 4834 0004 0400     		.2byte	0x4
 4835 0006 00000000 		.4byte	.Ldebug_abbrev0
 4836 000a 04       		.byte	0x4
 4837 000b 01       		.uleb128 0x1
 4838 000c 6F040000 		.4byte	.LASF136
 4839 0010 01       		.byte	0x1
 4840 0011 0B050000 		.4byte	.LASF137
 4841 0015 E1010000 		.4byte	.LASF138
 4842 0019 00000000 		.4byte	.Ldebug_ranges0+0
 4843 001d 00000000 		.4byte	0
 4844 0021 00000000 		.4byte	.Ldebug_line0
 4845 0025 02       		.uleb128 0x2
 4846 0026 04       		.byte	0x4
 4847 0027 05       		.byte	0x5
 4848 0028 696E7400 		.ascii	"int\000"
 4849 002c 03       		.uleb128 0x3
 4850 002d 04       		.byte	0x4
 4851 002e 07       		.byte	0x7
 4852 002f 53020000 		.4byte	.LASF0
 4853 0033 03       		.uleb128 0x3
 4854 0034 01       		.byte	0x1
 4855 0035 06       		.byte	0x6
 4856 0036 2E010000 		.4byte	.LASF1
 4857 003a 03       		.uleb128 0x3
 4858 003b 01       		.byte	0x1
 4859 003c 08       		.byte	0x8
 4860 003d F5050000 		.4byte	.LASF2
ARM GAS  C:\Users\Rolando\AppData\Local\Temp\ccmqTZg9.s 			page 134


 4861 0041 03       		.uleb128 0x3
 4862 0042 02       		.byte	0x2
 4863 0043 05       		.byte	0x5
 4864 0044 11060000 		.4byte	.LASF3
 4865 0048 03       		.uleb128 0x3
 4866 0049 02       		.byte	0x2
 4867 004a 07       		.byte	0x7
 4868 004b FB020000 		.4byte	.LASF4
 4869 004f 03       		.uleb128 0x3
 4870 0050 04       		.byte	0x4
 4871 0051 05       		.byte	0x5
 4872 0052 83010000 		.4byte	.LASF5
 4873 0056 03       		.uleb128 0x3
 4874 0057 04       		.byte	0x4
 4875 0058 07       		.byte	0x7
 4876 0059 8D020000 		.4byte	.LASF6
 4877 005d 03       		.uleb128 0x3
 4878 005e 08       		.byte	0x8
 4879 005f 05       		.byte	0x5
 4880 0060 20010000 		.4byte	.LASF7
 4881 0064 03       		.uleb128 0x3
 4882 0065 08       		.byte	0x8
 4883 0066 07       		.byte	0x7
 4884 0067 C0000000 		.4byte	.LASF8
 4885 006b 03       		.uleb128 0x3
 4886 006c 04       		.byte	0x4
 4887 006d 07       		.byte	0x7
 4888 006e ED030000 		.4byte	.LASF9
 4889 0072 04       		.uleb128 0x4
 4890 0073 04       		.byte	0x4
 4891 0074 78000000 		.4byte	0x78
 4892 0078 05       		.uleb128 0x5
 4893 0079 03       		.uleb128 0x3
 4894 007a 01       		.byte	0x1
 4895 007b 08       		.byte	0x8
 4896 007c BE060000 		.4byte	.LASF10
 4897 0080 06       		.uleb128 0x6
 4898 0081 A6010000 		.4byte	.LASF11
 4899 0085 02       		.byte	0x2
 4900 0086 5B       		.byte	0x5b
 4901 0087 3A000000 		.4byte	0x3a
 4902 008b 06       		.uleb128 0x6
 4903 008c 15000000 		.4byte	.LASF12
 4904 0090 02       		.byte	0x2
 4905 0091 5C       		.byte	0x5c
 4906 0092 48000000 		.4byte	0x48
 4907 0096 06       		.uleb128 0x6
 4908 0097 D5010000 		.4byte	.LASF13
 4909 009b 02       		.byte	0x2
 4910 009c 5D       		.byte	0x5d
 4911 009d 56000000 		.4byte	0x56
 4912 00a1 03       		.uleb128 0x3
 4913 00a2 04       		.byte	0x4
 4914 00a3 04       		.byte	0x4
 4915 00a4 51050000 		.4byte	.LASF14
 4916 00a8 03       		.uleb128 0x3
 4917 00a9 08       		.byte	0x8
ARM GAS  C:\Users\Rolando\AppData\Local\Temp\ccmqTZg9.s 			page 135


 4918 00aa 04       		.byte	0x4
 4919 00ab B6010000 		.4byte	.LASF15
 4920 00af 06       		.uleb128 0x6
 4921 00b0 D6070000 		.4byte	.LASF16
 4922 00b4 02       		.byte	0x2
 4923 00b5 E8       		.byte	0xe8
 4924 00b6 56000000 		.4byte	0x56
 4925 00ba 06       		.uleb128 0x6
 4926 00bb CB050000 		.4byte	.LASF17
 4927 00bf 02       		.byte	0x2
 4928 00c0 F0       		.byte	0xf0
 4929 00c1 C5000000 		.4byte	0xc5
 4930 00c5 07       		.uleb128 0x7
 4931 00c6 80000000 		.4byte	0x80
 4932 00ca 06       		.uleb128 0x6
 4933 00cb A0010000 		.4byte	.LASF18
 4934 00cf 02       		.byte	0x2
 4935 00d0 F1       		.byte	0xf1
 4936 00d1 D5000000 		.4byte	0xd5
 4937 00d5 07       		.uleb128 0x7
 4938 00d6 8B000000 		.4byte	0x8b
 4939 00da 06       		.uleb128 0x6
 4940 00db BD030000 		.4byte	.LASF19
 4941 00df 02       		.byte	0x2
 4942 00e0 F2       		.byte	0xf2
 4943 00e1 E5000000 		.4byte	0xe5
 4944 00e5 07       		.uleb128 0x7
 4945 00e6 96000000 		.4byte	0x96
 4946 00ea 08       		.uleb128 0x8
 4947 00eb C8060000 		.4byte	.LASF20
 4948 00ef 02       		.byte	0x2
 4949 00f0 0201     		.2byte	0x102
 4950 00f2 72000000 		.4byte	0x72
 4951 00f6 09       		.uleb128 0x9
 4952 00f7 D5060000 		.4byte	.LASF64
 4953 00fb 01       		.byte	0x1
 4954 00fc 59       		.byte	0x59
 4955 00fd AF000000 		.4byte	0xaf
 4956 0101 00000000 		.4byte	.LFB0
 4957 0105 B0000000 		.4byte	.LFE0-.LFB0
 4958 0109 01       		.uleb128 0x1
 4959 010a 9C       		.byte	0x9c
 4960 010b 56010000 		.4byte	0x156
 4961 010f 0A       		.uleb128 0xa
 4962 0110 78010000 		.4byte	.LASF25
 4963 0114 01       		.byte	0x1
 4964 0115 59       		.byte	0x59
 4965 0116 80000000 		.4byte	0x80
 4966 011a 02       		.uleb128 0x2
 4967 011b 91       		.byte	0x91
 4968 011c 6F       		.sleb128 -17
 4969 011d 0B       		.uleb128 0xb
 4970 011e 75070000 		.4byte	.LASF21
 4971 0122 01       		.byte	0x1
 4972 0123 5B       		.byte	0x5b
 4973 0124 AF000000 		.4byte	0xaf
 4974 0128 02       		.uleb128 0x2
ARM GAS  C:\Users\Rolando\AppData\Local\Temp\ccmqTZg9.s 			page 136


 4975 0129 91       		.byte	0x91
 4976 012a 74       		.sleb128 -12
 4977 012b 0B       		.uleb128 0xb
 4978 012c 1B060000 		.4byte	.LASF22
 4979 0130 01       		.byte	0x1
 4980 0131 5D       		.byte	0x5d
 4981 0132 80000000 		.4byte	0x80
 4982 0136 02       		.uleb128 0x2
 4983 0137 91       		.byte	0x91
 4984 0138 73       		.sleb128 -13
 4985 0139 0B       		.uleb128 0xb
 4986 013a D7000000 		.4byte	.LASF23
 4987 013e 01       		.byte	0x1
 4988 013f 5E       		.byte	0x5e
 4989 0140 80000000 		.4byte	0x80
 4990 0144 02       		.uleb128 0x2
 4991 0145 91       		.byte	0x91
 4992 0146 72       		.sleb128 -14
 4993 0147 0B       		.uleb128 0xb
 4994 0148 03060000 		.4byte	.LASF24
 4995 014c 01       		.byte	0x1
 4996 014d 5F       		.byte	0x5f
 4997 014e 80000000 		.4byte	0x80
 4998 0152 02       		.uleb128 0x2
 4999 0153 91       		.byte	0x91
 5000 0154 71       		.sleb128 -15
 5001 0155 00       		.byte	0
 5002 0156 0C       		.uleb128 0xc
 5003 0157 2B040000 		.4byte	.LASF36
 5004 015b 01       		.byte	0x1
 5005 015c 99       		.byte	0x99
 5006 015d 00000000 		.4byte	.LFB1
 5007 0161 20000000 		.4byte	.LFE1-.LFB1
 5008 0165 01       		.uleb128 0x1
 5009 0166 9C       		.byte	0x9c
 5010 0167 0D       		.uleb128 0xd
 5011 0168 8E030000 		.4byte	.LASF29
 5012 016c 01       		.byte	0x1
 5013 016d BF       		.byte	0xbf
 5014 016e 00000000 		.4byte	.LFB2
 5015 0172 90000000 		.4byte	.LFE2-.LFB2
 5016 0176 01       		.uleb128 0x1
 5017 0177 9C       		.byte	0x9c
 5018 0178 A7010000 		.4byte	0x1a7
 5019 017c 0A       		.uleb128 0xa
 5020 017d 8C070000 		.4byte	.LASF26
 5021 0181 01       		.byte	0x1
 5022 0182 BF       		.byte	0xbf
 5023 0183 80000000 		.4byte	0x80
 5024 0187 02       		.uleb128 0x2
 5025 0188 91       		.byte	0x91
 5026 0189 77       		.sleb128 -9
 5027 018a 0A       		.uleb128 0xa
 5028 018b 0C070000 		.4byte	.LASF27
 5029 018f 01       		.byte	0x1
 5030 0190 BF       		.byte	0xbf
 5031 0191 80000000 		.4byte	0x80
ARM GAS  C:\Users\Rolando\AppData\Local\Temp\ccmqTZg9.s 			page 137


 5032 0195 02       		.uleb128 0x2
 5033 0196 91       		.byte	0x91
 5034 0197 76       		.sleb128 -10
 5035 0198 0A       		.uleb128 0xa
 5036 0199 49050000 		.4byte	.LASF28
 5037 019d 01       		.byte	0x1
 5038 019e BF       		.byte	0xbf
 5039 019f 80000000 		.4byte	0x80
 5040 01a3 02       		.uleb128 0x2
 5041 01a4 91       		.byte	0x91
 5042 01a5 75       		.sleb128 -11
 5043 01a6 00       		.byte	0
 5044 01a7 0D       		.uleb128 0xd
 5045 01a8 8C010000 		.4byte	.LASF30
 5046 01ac 01       		.byte	0x1
 5047 01ad F6       		.byte	0xf6
 5048 01ae 00000000 		.4byte	.LFB3
 5049 01b2 54000000 		.4byte	.LFE3-.LFB3
 5050 01b6 01       		.uleb128 0x1
 5051 01b7 9C       		.byte	0x9c
 5052 01b8 CB010000 		.4byte	0x1cb
 5053 01bc 0A       		.uleb128 0xa
 5054 01bd E6030000 		.4byte	.LASF31
 5055 01c1 01       		.byte	0x1
 5056 01c2 F6       		.byte	0xf6
 5057 01c3 80000000 		.4byte	0x80
 5058 01c7 02       		.uleb128 0x2
 5059 01c8 91       		.byte	0x91
 5060 01c9 77       		.sleb128 -9
 5061 01ca 00       		.byte	0
 5062 01cb 0E       		.uleb128 0xe
 5063 01cc 4C000000 		.4byte	.LASF32
 5064 01d0 01       		.byte	0x1
 5065 01d1 2801     		.2byte	0x128
 5066 01d3 00000000 		.4byte	.LFB4
 5067 01d7 94000000 		.4byte	.LFE4-.LFB4
 5068 01db 01       		.uleb128 0x1
 5069 01dc 9C       		.byte	0x9c
 5070 01dd 1E020000 		.4byte	0x21e
 5071 01e1 0F       		.uleb128 0xf
 5072 01e2 78010000 		.4byte	.LASF25
 5073 01e6 01       		.byte	0x1
 5074 01e7 2801     		.2byte	0x128
 5075 01e9 80000000 		.4byte	0x80
 5076 01ed 02       		.uleb128 0x2
 5077 01ee 91       		.byte	0x91
 5078 01ef 6F       		.sleb128 -17
 5079 01f0 10       		.uleb128 0x10
 5080 01f1 A1060000 		.4byte	.LASF33
 5081 01f5 01       		.byte	0x1
 5082 01f6 2A01     		.2byte	0x12a
 5083 01f8 80000000 		.4byte	0x80
 5084 01fc 02       		.uleb128 0x2
 5085 01fd 91       		.byte	0x91
 5086 01fe 75       		.sleb128 -11
 5087 01ff 10       		.uleb128 0x10
 5088 0200 F4070000 		.4byte	.LASF34
ARM GAS  C:\Users\Rolando\AppData\Local\Temp\ccmqTZg9.s 			page 138


 5089 0204 01       		.byte	0x1
 5090 0205 2B01     		.2byte	0x12b
 5091 0207 80000000 		.4byte	0x80
 5092 020b 02       		.uleb128 0x2
 5093 020c 91       		.byte	0x91
 5094 020d 76       		.sleb128 -10
 5095 020e 10       		.uleb128 0x10
 5096 020f 24000000 		.4byte	.LASF35
 5097 0213 01       		.byte	0x1
 5098 0214 2C01     		.2byte	0x12c
 5099 0216 80000000 		.4byte	0x80
 5100 021a 02       		.uleb128 0x2
 5101 021b 91       		.byte	0x91
 5102 021c 77       		.sleb128 -9
 5103 021d 00       		.byte	0
 5104 021e 11       		.uleb128 0x11
 5105 021f F0020000 		.4byte	.LASF37
 5106 0223 01       		.byte	0x1
 5107 0224 5901     		.2byte	0x159
 5108 0226 00000000 		.4byte	.LFB5
 5109 022a 34000000 		.4byte	.LFE5-.LFB5
 5110 022e 01       		.uleb128 0x1
 5111 022f 9C       		.byte	0x9c
 5112 0230 12       		.uleb128 0x12
 5113 0231 7A020000 		.4byte	.LASF139
 5114 0235 01       		.byte	0x1
 5115 0236 6E01     		.2byte	0x16e
 5116 0238 80000000 		.4byte	0x80
 5117 023c 00000000 		.4byte	.LFB6
 5118 0240 60000000 		.4byte	.LFE6-.LFB6
 5119 0244 01       		.uleb128 0x1
 5120 0245 9C       		.byte	0x9c
 5121 0246 5A020000 		.4byte	0x25a
 5122 024a 10       		.uleb128 0x10
 5123 024b 57060000 		.4byte	.LASF38
 5124 024f 01       		.byte	0x1
 5125 0250 7001     		.2byte	0x170
 5126 0252 80000000 		.4byte	0x80
 5127 0256 02       		.uleb128 0x2
 5128 0257 91       		.byte	0x91
 5129 0258 77       		.sleb128 -9
 5130 0259 00       		.byte	0
 5131 025a 13       		.uleb128 0x13
 5132 025b C3070000 		.4byte	.LASF50
 5133 025f 01       		.byte	0x1
 5134 0260 8D01     		.2byte	0x18d
 5135 0262 00000000 		.4byte	.LFB7
 5136 0266 08010000 		.4byte	.LFE7-.LFB7
 5137 026a 01       		.uleb128 0x1
 5138 026b 9C       		.byte	0x9c
 5139 026c 8F020000 		.4byte	0x28f
 5140 0270 0F       		.uleb128 0xf
 5141 0271 3A010000 		.4byte	.LASF39
 5142 0275 01       		.byte	0x1
 5143 0276 8D01     		.2byte	0x18d
 5144 0278 80000000 		.4byte	0x80
 5145 027c 02       		.uleb128 0x2
ARM GAS  C:\Users\Rolando\AppData\Local\Temp\ccmqTZg9.s 			page 139


 5146 027d 91       		.byte	0x91
 5147 027e 6F       		.sleb128 -17
 5148 027f 10       		.uleb128 0x10
 5149 0280 64040000 		.4byte	.LASF40
 5150 0284 01       		.byte	0x1
 5151 0285 8F01     		.2byte	0x18f
 5152 0287 80000000 		.4byte	0x80
 5153 028b 02       		.uleb128 0x2
 5154 028c 91       		.byte	0x91
 5155 028d 77       		.sleb128 -9
 5156 028e 00       		.byte	0
 5157 028f 0E       		.uleb128 0xe
 5158 0290 91070000 		.4byte	.LASF41
 5159 0294 01       		.byte	0x1
 5160 0295 EC01     		.2byte	0x1ec
 5161 0297 00000000 		.4byte	.LFB8
 5162 029b AC010000 		.4byte	.LFE8-.LFB8
 5163 029f 01       		.uleb128 0x1
 5164 02a0 9C       		.byte	0x9c
 5165 02a1 D3020000 		.4byte	0x2d3
 5166 02a5 0F       		.uleb128 0xf
 5167 02a6 3A010000 		.4byte	.LASF39
 5168 02aa 01       		.byte	0x1
 5169 02ab EC01     		.2byte	0x1ec
 5170 02ad 80000000 		.4byte	0x80
 5171 02b1 02       		.uleb128 0x2
 5172 02b2 91       		.byte	0x91
 5173 02b3 6F       		.sleb128 -17
 5174 02b4 10       		.uleb128 0x10
 5175 02b5 31070000 		.4byte	.LASF42
 5176 02b9 01       		.byte	0x1
 5177 02ba EE01     		.2byte	0x1ee
 5178 02bc 80000000 		.4byte	0x80
 5179 02c0 02       		.uleb128 0x2
 5180 02c1 91       		.byte	0x91
 5181 02c2 77       		.sleb128 -9
 5182 02c3 10       		.uleb128 0x10
 5183 02c4 AE060000 		.4byte	.LASF43
 5184 02c8 01       		.byte	0x1
 5185 02c9 EF01     		.2byte	0x1ef
 5186 02cb 80000000 		.4byte	0x80
 5187 02cf 02       		.uleb128 0x2
 5188 02d0 91       		.byte	0x91
 5189 02d1 76       		.sleb128 -10
 5190 02d2 00       		.byte	0
 5191 02d3 0E       		.uleb128 0xe
 5192 02d4 60020000 		.4byte	.LASF44
 5193 02d8 01       		.byte	0x1
 5194 02d9 8702     		.2byte	0x287
 5195 02db 00000000 		.4byte	.LFB9
 5196 02df 8C000000 		.4byte	.LFE9-.LFB9
 5197 02e3 01       		.uleb128 0x1
 5198 02e4 9C       		.byte	0x9c
 5199 02e5 F9020000 		.4byte	0x2f9
 5200 02e9 0F       		.uleb128 0xf
 5201 02ea E6030000 		.4byte	.LASF31
 5202 02ee 01       		.byte	0x1
ARM GAS  C:\Users\Rolando\AppData\Local\Temp\ccmqTZg9.s 			page 140


 5203 02ef 8702     		.2byte	0x287
 5204 02f1 80000000 		.4byte	0x80
 5205 02f5 02       		.uleb128 0x2
 5206 02f6 91       		.byte	0x91
 5207 02f7 77       		.sleb128 -9
 5208 02f8 00       		.byte	0
 5209 02f9 11       		.uleb128 0x11
 5210 02fa 6E000000 		.4byte	.LASF45
 5211 02fe 01       		.byte	0x1
 5212 02ff B002     		.2byte	0x2b0
 5213 0301 00000000 		.4byte	.LFB10
 5214 0305 20000000 		.4byte	.LFE10-.LFB10
 5215 0309 01       		.uleb128 0x1
 5216 030a 9C       		.byte	0x9c
 5217 030b 11       		.uleb128 0x11
 5218 030c 0E040000 		.4byte	.LASF46
 5219 0310 01       		.byte	0x1
 5220 0311 C502     		.2byte	0x2c5
 5221 0313 00000000 		.4byte	.LFB11
 5222 0317 20000000 		.4byte	.LFE11-.LFB11
 5223 031b 01       		.uleb128 0x1
 5224 031c 9C       		.byte	0x9c
 5225 031d 14       		.uleb128 0x14
 5226 031e 3C030000 		.4byte	.LASF47
 5227 0322 01       		.byte	0x1
 5228 0323 E802     		.2byte	0x2e8
 5229 0325 00000000 		.4byte	.LFB12
 5230 0329 34000000 		.4byte	.LFE12-.LFB12
 5231 032d 01       		.uleb128 0x1
 5232 032e 9C       		.byte	0x9c
 5233 032f 43030000 		.4byte	0x343
 5234 0333 0F       		.uleb128 0xf
 5235 0334 E6030000 		.4byte	.LASF31
 5236 0338 01       		.byte	0x1
 5237 0339 E802     		.2byte	0x2e8
 5238 033b 80000000 		.4byte	0x80
 5239 033f 02       		.uleb128 0x2
 5240 0340 91       		.byte	0x91
 5241 0341 77       		.sleb128 -9
 5242 0342 00       		.byte	0
 5243 0343 14       		.uleb128 0x14
 5244 0344 32050000 		.4byte	.LASF48
 5245 0348 01       		.byte	0x1
 5246 0349 0B03     		.2byte	0x30b
 5247 034b 00000000 		.4byte	.LFB13
 5248 034f 20000000 		.4byte	.LFE13-.LFB13
 5249 0353 01       		.uleb128 0x1
 5250 0354 9C       		.byte	0x9c
 5251 0355 69030000 		.4byte	0x369
 5252 0359 0F       		.uleb128 0xf
 5253 035a 1C000000 		.4byte	.LASF49
 5254 035e 01       		.byte	0x1
 5255 035f 0B03     		.2byte	0x30b
 5256 0361 80000000 		.4byte	0x80
 5257 0365 02       		.uleb128 0x2
 5258 0366 91       		.byte	0x91
 5259 0367 77       		.sleb128 -9
ARM GAS  C:\Users\Rolando\AppData\Local\Temp\ccmqTZg9.s 			page 141


 5260 0368 00       		.byte	0
 5261 0369 15       		.uleb128 0x15
 5262 036a 90000000 		.4byte	.LASF51
 5263 036e 01       		.byte	0x1
 5264 036f 2103     		.2byte	0x321
 5265 0371 00000000 		.4byte	.LFB14
 5266 0375 78000000 		.4byte	.LFE14-.LFB14
 5267 0379 01       		.uleb128 0x1
 5268 037a 9C       		.byte	0x9c
 5269 037b 8F030000 		.4byte	0x38f
 5270 037f 0F       		.uleb128 0xf
 5271 0380 1C000000 		.4byte	.LASF49
 5272 0384 01       		.byte	0x1
 5273 0385 2103     		.2byte	0x321
 5274 0387 8B000000 		.4byte	0x8b
 5275 038b 02       		.uleb128 0x2
 5276 038c 91       		.byte	0x91
 5277 038d 76       		.sleb128 -10
 5278 038e 00       		.byte	0
 5279 038f 0E       		.uleb128 0xe
 5280 0390 45070000 		.4byte	.LASF52
 5281 0394 01       		.byte	0x1
 5282 0395 5003     		.2byte	0x350
 5283 0397 00000000 		.4byte	.LFB15
 5284 039b B4000000 		.4byte	.LFE15-.LFB15
 5285 039f 01       		.uleb128 0x1
 5286 03a0 9C       		.byte	0x9c
 5287 03a1 E2030000 		.4byte	0x3e2
 5288 03a5 0F       		.uleb128 0xf
 5289 03a6 1C000000 		.4byte	.LASF49
 5290 03aa 01       		.byte	0x1
 5291 03ab 5003     		.2byte	0x350
 5292 03ad 8B000000 		.4byte	0x8b
 5293 03b1 02       		.uleb128 0x2
 5294 03b2 91       		.byte	0x91
 5295 03b3 6E       		.sleb128 -18
 5296 03b4 10       		.uleb128 0x10
 5297 03b5 BE050000 		.4byte	.LASF53
 5298 03b9 01       		.byte	0x1
 5299 03ba 5203     		.2byte	0x352
 5300 03bc 80000000 		.4byte	0x80
 5301 03c0 02       		.uleb128 0x2
 5302 03c1 91       		.byte	0x91
 5303 03c2 73       		.sleb128 -13
 5304 03c3 10       		.uleb128 0x10
 5305 03c4 70020000 		.4byte	.LASF54
 5306 03c8 01       		.byte	0x1
 5307 03c9 5303     		.2byte	0x353
 5308 03cb 8B000000 		.4byte	0x8b
 5309 03cf 02       		.uleb128 0x2
 5310 03d0 91       		.byte	0x91
 5311 03d1 74       		.sleb128 -12
 5312 03d2 10       		.uleb128 0x10
 5313 03d3 4B010000 		.4byte	.LASF55
 5314 03d7 01       		.byte	0x1
 5315 03d8 5403     		.2byte	0x354
 5316 03da 80000000 		.4byte	0x80
ARM GAS  C:\Users\Rolando\AppData\Local\Temp\ccmqTZg9.s 			page 142


 5317 03de 02       		.uleb128 0x2
 5318 03df 91       		.byte	0x91
 5319 03e0 77       		.sleb128 -9
 5320 03e1 00       		.byte	0
 5321 03e2 14       		.uleb128 0x14
 5322 03e3 1E070000 		.4byte	.LASF56
 5323 03e7 01       		.byte	0x1
 5324 03e8 B403     		.2byte	0x3b4
 5325 03ea 00000000 		.4byte	.LFB16
 5326 03ee 34000000 		.4byte	.LFE16-.LFB16
 5327 03f2 01       		.uleb128 0x1
 5328 03f3 9C       		.byte	0x9c
 5329 03f4 08040000 		.4byte	0x408
 5330 03f8 0F       		.uleb128 0xf
 5331 03f9 E6030000 		.4byte	.LASF31
 5332 03fd 01       		.byte	0x1
 5333 03fe B403     		.2byte	0x3b4
 5334 0400 80000000 		.4byte	0x80
 5335 0404 02       		.uleb128 0x2
 5336 0405 91       		.byte	0x91
 5337 0406 77       		.sleb128 -9
 5338 0407 00       		.byte	0
 5339 0408 11       		.uleb128 0x11
 5340 0409 6A010000 		.4byte	.LASF57
 5341 040d 01       		.byte	0x1
 5342 040e CD03     		.2byte	0x3cd
 5343 0410 00000000 		.4byte	.LFB17
 5344 0414 20000000 		.4byte	.LFE17-.LFB17
 5345 0418 01       		.uleb128 0x1
 5346 0419 9C       		.byte	0x9c
 5347 041a 11       		.uleb128 0x11
 5348 041b BD010000 		.4byte	.LASF58
 5349 041f 01       		.byte	0x1
 5350 0420 E903     		.2byte	0x3e9
 5351 0422 00000000 		.4byte	.LFB18
 5352 0426 20000000 		.4byte	.LFE18-.LFB18
 5353 042a 01       		.uleb128 0x1
 5354 042b 9C       		.byte	0x9c
 5355 042c 11       		.uleb128 0x11
 5356 042d 54040000 		.4byte	.LASF59
 5357 0431 01       		.byte	0x1
 5358 0432 FE03     		.2byte	0x3fe
 5359 0434 00000000 		.4byte	.LFB19
 5360 0438 20000000 		.4byte	.LFE19-.LFB19
 5361 043c 01       		.uleb128 0x1
 5362 043d 9C       		.byte	0x9c
 5363 043e 11       		.uleb128 0x11
 5364 043f 58000000 		.4byte	.LASF60
 5365 0443 01       		.byte	0x1
 5366 0444 1204     		.2byte	0x412
 5367 0446 00000000 		.4byte	.LFB20
 5368 044a 20000000 		.4byte	.LFE20-.LFB20
 5369 044e 01       		.uleb128 0x1
 5370 044f 9C       		.byte	0x9c
 5371 0450 11       		.uleb128 0x11
 5372 0451 71050000 		.4byte	.LASF61
 5373 0455 01       		.byte	0x1
ARM GAS  C:\Users\Rolando\AppData\Local\Temp\ccmqTZg9.s 			page 143


 5374 0456 2904     		.2byte	0x429
 5375 0458 00000000 		.4byte	.LFB21
 5376 045c 20000000 		.4byte	.LFE21-.LFB21
 5377 0460 01       		.uleb128 0x1
 5378 0461 9C       		.byte	0x9c
 5379 0462 11       		.uleb128 0x11
 5380 0463 9D050000 		.4byte	.LASF62
 5381 0467 01       		.byte	0x1
 5382 0468 4104     		.2byte	0x441
 5383 046a 00000000 		.4byte	.LFB22
 5384 046e 20000000 		.4byte	.LFE22-.LFB22
 5385 0472 01       		.uleb128 0x1
 5386 0473 9C       		.byte	0x9c
 5387 0474 14       		.uleb128 0x14
 5388 0475 7C070000 		.4byte	.LASF63
 5389 0479 01       		.byte	0x1
 5390 047a 5904     		.2byte	0x459
 5391 047c 00000000 		.4byte	.LFB23
 5392 0480 38000000 		.4byte	.LFE23-.LFB23
 5393 0484 01       		.uleb128 0x1
 5394 0485 9C       		.byte	0x9c
 5395 0486 9A040000 		.4byte	0x49a
 5396 048a 0F       		.uleb128 0xf
 5397 048b E6030000 		.4byte	.LASF31
 5398 048f 01       		.byte	0x1
 5399 0490 5904     		.2byte	0x459
 5400 0492 80000000 		.4byte	0x80
 5401 0496 02       		.uleb128 0x2
 5402 0497 91       		.byte	0x91
 5403 0498 77       		.sleb128 -9
 5404 0499 00       		.byte	0
 5405 049a 16       		.uleb128 0x16
 5406 049b DD020000 		.4byte	.LASF65
 5407 049f 01       		.byte	0x1
 5408 04a0 7104     		.2byte	0x471
 5409 04a2 80000000 		.4byte	0x80
 5410 04a6 00000000 		.4byte	.LFB24
 5411 04aa 4C000000 		.4byte	.LFE24-.LFB24
 5412 04ae 01       		.uleb128 0x1
 5413 04af 9C       		.byte	0x9c
 5414 04b0 D3040000 		.4byte	0x4d3
 5415 04b4 0F       		.uleb128 0xf
 5416 04b5 C3060000 		.4byte	.LASF66
 5417 04b9 01       		.byte	0x1
 5418 04ba 7104     		.2byte	0x471
 5419 04bc 80000000 		.4byte	0x80
 5420 04c0 02       		.uleb128 0x2
 5421 04c1 91       		.byte	0x91
 5422 04c2 6F       		.sleb128 -17
 5423 04c3 10       		.uleb128 0x10
 5424 04c4 7D010000 		.4byte	.LASF67
 5425 04c8 01       		.byte	0x1
 5426 04c9 7304     		.2byte	0x473
 5427 04cb 80000000 		.4byte	0x80
 5428 04cf 02       		.uleb128 0x2
 5429 04d0 91       		.byte	0x91
 5430 04d1 77       		.sleb128 -9
ARM GAS  C:\Users\Rolando\AppData\Local\Temp\ccmqTZg9.s 			page 144


 5431 04d2 00       		.byte	0
 5432 04d3 0E       		.uleb128 0xe
 5433 04d4 AD000000 		.4byte	.LASF68
 5434 04d8 01       		.byte	0x1
 5435 04d9 9504     		.2byte	0x495
 5436 04db 00000000 		.4byte	.LFB25
 5437 04df 84000000 		.4byte	.LFE25-.LFB25
 5438 04e3 01       		.uleb128 0x1
 5439 04e4 9C       		.byte	0x9c
 5440 04e5 F7040000 		.4byte	0x4f7
 5441 04e9 17       		.uleb128 0x17
 5442 04ea 6900     		.ascii	"i\000"
 5443 04ec 01       		.byte	0x1
 5444 04ed 9704     		.2byte	0x497
 5445 04ef D5000000 		.4byte	0xd5
 5446 04f3 02       		.uleb128 0x2
 5447 04f4 91       		.byte	0x91
 5448 04f5 76       		.sleb128 -10
 5449 04f6 00       		.byte	0
 5450 04f7 11       		.uleb128 0x11
 5451 04f8 CB020000 		.4byte	.LASF69
 5452 04fc 01       		.byte	0x1
 5453 04fd C104     		.2byte	0x4c1
 5454 04ff 00000000 		.4byte	.LFB26
 5455 0503 50000000 		.4byte	.LFE26-.LFB26
 5456 0507 01       		.uleb128 0x1
 5457 0508 9C       		.byte	0x9c
 5458 0509 18       		.uleb128 0x18
 5459 050a 9F070000 		.4byte	.LASF79
 5460 050e 01       		.byte	0x1
 5461 050f E004     		.2byte	0x4e0
 5462 0511 80000000 		.4byte	0x80
 5463 0515 00000000 		.4byte	.LFB27
 5464 0519 20000000 		.4byte	.LFE27-.LFB27
 5465 051d 01       		.uleb128 0x1
 5466 051e 9C       		.byte	0x9c
 5467 051f 19       		.uleb128 0x19
 5468 0520 57050000 		.4byte	.LASF70
 5469 0524 01       		.byte	0x1
 5470 0525 F804     		.2byte	0x4f8
 5471 0527 80000000 		.4byte	0x80
 5472 052b 00000000 		.4byte	.LFB28
 5473 052f B4000000 		.4byte	.LFE28-.LFB28
 5474 0533 01       		.uleb128 0x1
 5475 0534 9C       		.byte	0x9c
 5476 0535 58050000 		.4byte	0x558
 5477 0539 0F       		.uleb128 0xf
 5478 053a C3060000 		.4byte	.LASF66
 5479 053e 01       		.byte	0x1
 5480 053f F804     		.2byte	0x4f8
 5481 0541 80000000 		.4byte	0x80
 5482 0545 02       		.uleb128 0x2
 5483 0546 91       		.byte	0x91
 5484 0547 6F       		.sleb128 -17
 5485 0548 10       		.uleb128 0x10
 5486 0549 7D010000 		.4byte	.LASF67
 5487 054d 01       		.byte	0x1
ARM GAS  C:\Users\Rolando\AppData\Local\Temp\ccmqTZg9.s 			page 145


 5488 054e FA04     		.2byte	0x4fa
 5489 0550 80000000 		.4byte	0x80
 5490 0554 02       		.uleb128 0x2
 5491 0555 91       		.byte	0x91
 5492 0556 77       		.sleb128 -9
 5493 0557 00       		.byte	0
 5494 0558 19       		.uleb128 0x19
 5495 0559 B0030000 		.4byte	.LASF71
 5496 055d 01       		.byte	0x1
 5497 055e 3A05     		.2byte	0x53a
 5498 0560 AF000000 		.4byte	0xaf
 5499 0564 00000000 		.4byte	.LFB29
 5500 0568 D0000000 		.4byte	.LFE29-.LFB29
 5501 056c 01       		.uleb128 0x1
 5502 056d 9C       		.byte	0x9c
 5503 056e DC050000 		.4byte	0x5dc
 5504 0572 0F       		.uleb128 0xf
 5505 0573 78010000 		.4byte	.LASF25
 5506 0577 01       		.byte	0x1
 5507 0578 3A05     		.2byte	0x53a
 5508 057a 80000000 		.4byte	0x80
 5509 057e 02       		.uleb128 0x2
 5510 057f 91       		.byte	0x91
 5511 0580 67       		.sleb128 -25
 5512 0581 10       		.uleb128 0x10
 5513 0582 75070000 		.4byte	.LASF21
 5514 0586 01       		.byte	0x1
 5515 0587 3C05     		.2byte	0x53c
 5516 0589 AF000000 		.4byte	0xaf
 5517 058d 02       		.uleb128 0x2
 5518 058e 91       		.byte	0x91
 5519 058f 74       		.sleb128 -12
 5520 0590 10       		.uleb128 0x10
 5521 0591 9F020000 		.4byte	.LASF72
 5522 0595 01       		.byte	0x1
 5523 0596 3D05     		.2byte	0x53d
 5524 0598 C5000000 		.4byte	0xc5
 5525 059c 02       		.uleb128 0x2
 5526 059d 91       		.byte	0x91
 5527 059e 70       		.sleb128 -16
 5528 059f 10       		.uleb128 0x10
 5529 05a0 0F000000 		.4byte	.LASF73
 5530 05a4 01       		.byte	0x1
 5531 05a5 3E05     		.2byte	0x53e
 5532 05a7 C5000000 		.4byte	0xc5
 5533 05ab 02       		.uleb128 0x2
 5534 05ac 91       		.byte	0x91
 5535 05ad 6F       		.sleb128 -17
 5536 05ae 10       		.uleb128 0x10
 5537 05af 1B060000 		.4byte	.LASF22
 5538 05b3 01       		.byte	0x1
 5539 05b4 3F05     		.2byte	0x53f
 5540 05b6 80000000 		.4byte	0x80
 5541 05ba 02       		.uleb128 0x2
 5542 05bb 91       		.byte	0x91
 5543 05bc 73       		.sleb128 -13
 5544 05bd 10       		.uleb128 0x10
ARM GAS  C:\Users\Rolando\AppData\Local\Temp\ccmqTZg9.s 			page 146


 5545 05be 14010000 		.4byte	.LASF74
 5546 05c2 01       		.byte	0x1
 5547 05c3 4005     		.2byte	0x540
 5548 05c5 80000000 		.4byte	0x80
 5549 05c9 02       		.uleb128 0x2
 5550 05ca 91       		.byte	0x91
 5551 05cb 72       		.sleb128 -14
 5552 05cc 10       		.uleb128 0x10
 5553 05cd B7070000 		.4byte	.LASF75
 5554 05d1 01       		.byte	0x1
 5555 05d2 4105     		.2byte	0x541
 5556 05d4 80000000 		.4byte	0x80
 5557 05d8 02       		.uleb128 0x2
 5558 05d9 91       		.byte	0x91
 5559 05da 71       		.sleb128 -15
 5560 05db 00       		.byte	0
 5561 05dc 11       		.uleb128 0x11
 5562 05dd 33080000 		.4byte	.LASF76
 5563 05e1 01       		.byte	0x1
 5564 05e2 8A05     		.2byte	0x58a
 5565 05e4 00000000 		.4byte	.LFB30
 5566 05e8 20000000 		.4byte	.LFE30-.LFB30
 5567 05ec 01       		.uleb128 0x1
 5568 05ed 9C       		.byte	0x9c
 5569 05ee 11       		.uleb128 0x11
 5570 05ef 2A060000 		.4byte	.LASF77
 5571 05f3 01       		.byte	0x1
 5572 05f4 A005     		.2byte	0x5a0
 5573 05f6 00000000 		.4byte	.LFB31
 5574 05fa 20000000 		.4byte	.LFE31-.LFB31
 5575 05fe 01       		.uleb128 0x1
 5576 05ff 9C       		.byte	0x9c
 5577 0600 11       		.uleb128 0x11
 5578 0601 34000000 		.4byte	.LASF78
 5579 0605 01       		.byte	0x1
 5580 0606 B605     		.2byte	0x5b6
 5581 0608 00000000 		.4byte	.LFB32
 5582 060c 20000000 		.4byte	.LFE32-.LFB32
 5583 0610 01       		.uleb128 0x1
 5584 0611 9C       		.byte	0x9c
 5585 0612 18       		.uleb128 0x18
 5586 0613 C3030000 		.4byte	.LASF80
 5587 0617 01       		.byte	0x1
 5588 0618 CE05     		.2byte	0x5ce
 5589 061a 80000000 		.4byte	0x80
 5590 061e 00000000 		.4byte	.LFB33
 5591 0622 28000000 		.4byte	.LFE33-.LFB33
 5592 0626 01       		.uleb128 0x1
 5593 0627 9C       		.byte	0x9c
 5594 0628 11       		.uleb128 0x11
 5595 0629 62030000 		.4byte	.LASF81
 5596 062d 01       		.byte	0x1
 5597 062e E905     		.2byte	0x5e9
 5598 0630 00000000 		.4byte	.LFB34
 5599 0634 20000000 		.4byte	.LFE34-.LFB34
 5600 0638 01       		.uleb128 0x1
 5601 0639 9C       		.byte	0x9c
ARM GAS  C:\Users\Rolando\AppData\Local\Temp\ccmqTZg9.s 			page 147


 5602 063a 11       		.uleb128 0x11
 5603 063b 61060000 		.4byte	.LASF82
 5604 063f 01       		.byte	0x1
 5605 0640 FF05     		.2byte	0x5ff
 5606 0642 00000000 		.4byte	.LFB35
 5607 0646 20000000 		.4byte	.LFE35-.LFB35
 5608 064a 01       		.uleb128 0x1
 5609 064b 9C       		.byte	0x9c
 5610 064c 14       		.uleb128 0x14
 5611 064d F6030000 		.4byte	.LASF83
 5612 0651 01       		.byte	0x1
 5613 0652 1906     		.2byte	0x619
 5614 0654 00000000 		.4byte	.LFB36
 5615 0658 34000000 		.4byte	.LFE36-.LFB36
 5616 065c 01       		.uleb128 0x1
 5617 065d 9C       		.byte	0x9c
 5618 065e 72060000 		.4byte	0x672
 5619 0662 0F       		.uleb128 0xf
 5620 0663 EC070000 		.4byte	.LASF84
 5621 0667 01       		.byte	0x1
 5622 0668 1906     		.2byte	0x619
 5623 066a 80000000 		.4byte	0x80
 5624 066e 02       		.uleb128 0x2
 5625 066f 91       		.byte	0x91
 5626 0670 77       		.sleb128 -9
 5627 0671 00       		.byte	0
 5628 0672 14       		.uleb128 0x14
 5629 0673 84060000 		.4byte	.LASF85
 5630 0677 01       		.byte	0x1
 5631 0678 3106     		.2byte	0x631
 5632 067a 00000000 		.4byte	.LFB37
 5633 067e 34000000 		.4byte	.LFE37-.LFB37
 5634 0682 01       		.uleb128 0x1
 5635 0683 9C       		.byte	0x9c
 5636 0684 98060000 		.4byte	0x698
 5637 0688 0F       		.uleb128 0xf
 5638 0689 EC070000 		.4byte	.LASF84
 5639 068d 01       		.byte	0x1
 5640 068e 3106     		.2byte	0x631
 5641 0690 80000000 		.4byte	0x80
 5642 0694 02       		.uleb128 0x2
 5643 0695 91       		.byte	0x91
 5644 0696 77       		.sleb128 -9
 5645 0697 00       		.byte	0
 5646 0698 14       		.uleb128 0x14
 5647 0699 E1050000 		.4byte	.LASF86
 5648 069d 01       		.byte	0x1
 5649 069e 4806     		.2byte	0x648
 5650 06a0 00000000 		.4byte	.LFB38
 5651 06a4 38000000 		.4byte	.LFE38-.LFB38
 5652 06a8 01       		.uleb128 0x1
 5653 06a9 9C       		.byte	0x9c
 5654 06aa BE060000 		.4byte	0x6be
 5655 06ae 0F       		.uleb128 0xf
 5656 06af EC070000 		.4byte	.LASF84
 5657 06b3 01       		.byte	0x1
 5658 06b4 4806     		.2byte	0x648
ARM GAS  C:\Users\Rolando\AppData\Local\Temp\ccmqTZg9.s 			page 148


 5659 06b6 80000000 		.4byte	0x80
 5660 06ba 02       		.uleb128 0x2
 5661 06bb 91       		.byte	0x91
 5662 06bc 77       		.sleb128 -9
 5663 06bd 00       		.byte	0
 5664 06be 14       		.uleb128 0x14
 5665 06bf DA050000 		.4byte	.LASF87
 5666 06c3 01       		.byte	0x1
 5667 06c4 5D06     		.2byte	0x65d
 5668 06c6 00000000 		.4byte	.LFB39
 5669 06ca 16000000 		.4byte	.LFE39-.LFB39
 5670 06ce 01       		.uleb128 0x1
 5671 06cf 9C       		.byte	0x9c
 5672 06d0 E4060000 		.4byte	0x6e4
 5673 06d4 0F       		.uleb128 0xf
 5674 06d5 7D060000 		.4byte	.LASF88
 5675 06d9 01       		.byte	0x1
 5676 06da 5D06     		.2byte	0x65d
 5677 06dc 80000000 		.4byte	0x80
 5678 06e0 02       		.uleb128 0x2
 5679 06e1 91       		.byte	0x91
 5680 06e2 77       		.sleb128 -9
 5681 06e3 00       		.byte	0
 5682 06e4 11       		.uleb128 0x11
 5683 06e5 E5000000 		.4byte	.LASF89
 5684 06e9 01       		.byte	0x1
 5685 06ea 7C06     		.2byte	0x67c
 5686 06ec 00000000 		.4byte	.LFB40
 5687 06f0 20000000 		.4byte	.LFE40-.LFB40
 5688 06f4 01       		.uleb128 0x1
 5689 06f5 9C       		.byte	0x9c
 5690 06f6 0E       		.uleb128 0xe
 5691 06f7 3D070000 		.4byte	.LASF90
 5692 06fb 01       		.byte	0x1
 5693 06fc 9606     		.2byte	0x696
 5694 06fe 00000000 		.4byte	.LFB41
 5695 0702 44000000 		.4byte	.LFE41-.LFB41
 5696 0706 01       		.uleb128 0x1
 5697 0707 9C       		.byte	0x9c
 5698 0708 1C070000 		.4byte	0x71c
 5699 070c 0F       		.uleb128 0xf
 5700 070d 90050000 		.4byte	.LASF91
 5701 0711 01       		.byte	0x1
 5702 0712 9606     		.2byte	0x696
 5703 0714 96000000 		.4byte	0x96
 5704 0718 02       		.uleb128 0x2
 5705 0719 91       		.byte	0x91
 5706 071a 74       		.sleb128 -12
 5707 071b 00       		.byte	0
 5708 071c 0E       		.uleb128 0xe
 5709 071d AC010000 		.4byte	.LASF92
 5710 0721 01       		.byte	0x1
 5711 0722 C706     		.2byte	0x6c7
 5712 0724 00000000 		.4byte	.LFB42
 5713 0728 24000000 		.4byte	.LFE42-.LFB42
 5714 072c 01       		.uleb128 0x1
 5715 072d 9C       		.byte	0x9c
ARM GAS  C:\Users\Rolando\AppData\Local\Temp\ccmqTZg9.s 			page 149


 5716 072e 42070000 		.4byte	0x742
 5717 0732 0F       		.uleb128 0xf
 5718 0733 01080000 		.4byte	.LASF93
 5719 0737 01       		.byte	0x1
 5720 0738 C706     		.2byte	0x6c7
 5721 073a 8B000000 		.4byte	0x8b
 5722 073e 02       		.uleb128 0x2
 5723 073f 91       		.byte	0x91
 5724 0740 76       		.sleb128 -10
 5725 0741 00       		.byte	0
 5726 0742 14       		.uleb128 0x14
 5727 0743 3F010000 		.4byte	.LASF94
 5728 0747 01       		.byte	0x1
 5729 0748 DD06     		.2byte	0x6dd
 5730 074a 00000000 		.4byte	.LFB43
 5731 074e 7C000000 		.4byte	.LFE43-.LFB43
 5732 0752 01       		.uleb128 0x1
 5733 0753 9C       		.byte	0x9c
 5734 0754 68070000 		.4byte	0x768
 5735 0758 0F       		.uleb128 0xf
 5736 0759 3A010000 		.4byte	.LASF39
 5737 075d 01       		.byte	0x1
 5738 075e DD06     		.2byte	0x6dd
 5739 0760 96000000 		.4byte	0x96
 5740 0764 02       		.uleb128 0x2
 5741 0765 91       		.byte	0x91
 5742 0766 74       		.sleb128 -12
 5743 0767 00       		.byte	0
 5744 0768 14       		.uleb128 0x14
 5745 0769 0E030000 		.4byte	.LASF95
 5746 076d 01       		.byte	0x1
 5747 076e 1C07     		.2byte	0x71c
 5748 0770 00000000 		.4byte	.LFB44
 5749 0774 8C000000 		.4byte	.LFE44-.LFB44
 5750 0778 01       		.uleb128 0x1
 5751 0779 9C       		.byte	0x9c
 5752 077a 9D070000 		.4byte	0x79d
 5753 077e 0F       		.uleb128 0xf
 5754 077f 08040000 		.4byte	.LASF96
 5755 0783 01       		.byte	0x1
 5756 0784 1C07     		.2byte	0x71c
 5757 0786 80000000 		.4byte	0x80
 5758 078a 02       		.uleb128 0x2
 5759 078b 91       		.byte	0x91
 5760 078c 77       		.sleb128 -9
 5761 078d 0F       		.uleb128 0xf
 5762 078e B7060000 		.4byte	.LASF97
 5763 0792 01       		.byte	0x1
 5764 0793 1C07     		.2byte	0x71c
 5765 0795 80000000 		.4byte	0x80
 5766 0799 02       		.uleb128 0x2
 5767 079a 91       		.byte	0x91
 5768 079b 76       		.sleb128 -10
 5769 079c 00       		.byte	0
 5770 079d 11       		.uleb128 0x11
 5771 079e CA010000 		.4byte	.LASF98
 5772 07a2 01       		.byte	0x1
ARM GAS  C:\Users\Rolando\AppData\Local\Temp\ccmqTZg9.s 			page 150


 5773 07a3 3C07     		.2byte	0x73c
 5774 07a5 00000000 		.4byte	.LFB45
 5775 07a9 18000000 		.4byte	.LFE45-.LFB45
 5776 07ad 01       		.uleb128 0x1
 5777 07ae 9C       		.byte	0x9c
 5778 07af 0E       		.uleb128 0xe
 5779 07b0 21080000 		.4byte	.LASF99
 5780 07b4 01       		.byte	0x1
 5781 07b5 5807     		.2byte	0x758
 5782 07b7 00000000 		.4byte	.LFB46
 5783 07bb B4000000 		.4byte	.LFE46-.LFB46
 5784 07bf 01       		.uleb128 0x1
 5785 07c0 9C       		.byte	0x9c
 5786 07c1 E4070000 		.4byte	0x7e4
 5787 07c5 0F       		.uleb128 0xf
 5788 07c6 2C050000 		.4byte	.LASF100
 5789 07ca 01       		.byte	0x1
 5790 07cb 5807     		.2byte	0x758
 5791 07cd 80000000 		.4byte	0x80
 5792 07d1 02       		.uleb128 0x2
 5793 07d2 91       		.byte	0x91
 5794 07d3 77       		.sleb128 -9
 5795 07d4 0F       		.uleb128 0xf
 5796 07d5 D0050000 		.4byte	.LASF101
 5797 07d9 01       		.byte	0x1
 5798 07da 5807     		.2byte	0x758
 5799 07dc 80000000 		.4byte	0x80
 5800 07e0 02       		.uleb128 0x2
 5801 07e1 91       		.byte	0x91
 5802 07e2 76       		.sleb128 -10
 5803 07e3 00       		.byte	0
 5804 07e4 0E       		.uleb128 0xe
 5805 07e5 A7020000 		.4byte	.LASF102
 5806 07e9 01       		.byte	0x1
 5807 07ea 8A07     		.2byte	0x78a
 5808 07ec 00000000 		.4byte	.LFB47
 5809 07f0 B0000000 		.4byte	.LFE47-.LFB47
 5810 07f4 01       		.uleb128 0x1
 5811 07f5 9C       		.byte	0x9c
 5812 07f6 19080000 		.4byte	0x819
 5813 07fa 0F       		.uleb128 0xf
 5814 07fb 2C050000 		.4byte	.LASF100
 5815 07ff 01       		.byte	0x1
 5816 0800 8A07     		.2byte	0x78a
 5817 0802 80000000 		.4byte	0x80
 5818 0806 02       		.uleb128 0x2
 5819 0807 91       		.byte	0x91
 5820 0808 77       		.sleb128 -9
 5821 0809 0F       		.uleb128 0xf
 5822 080a D0050000 		.4byte	.LASF101
 5823 080e 01       		.byte	0x1
 5824 080f 8A07     		.2byte	0x78a
 5825 0811 80000000 		.4byte	0x80
 5826 0815 02       		.uleb128 0x2
 5827 0816 91       		.byte	0x91
 5828 0817 76       		.sleb128 -10
 5829 0818 00       		.byte	0
ARM GAS  C:\Users\Rolando\AppData\Local\Temp\ccmqTZg9.s 			page 151


 5830 0819 11       		.uleb128 0x11
 5831 081a E5060000 		.4byte	.LASF103
 5832 081e 01       		.byte	0x1
 5833 081f B507     		.2byte	0x7b5
 5834 0821 00000000 		.4byte	.LFB48
 5835 0825 48000000 		.4byte	.LFE48-.LFB48
 5836 0829 01       		.uleb128 0x1
 5837 082a 9C       		.byte	0x9c
 5838 082b 11       		.uleb128 0x11
 5839 082c F8060000 		.4byte	.LASF104
 5840 0830 01       		.byte	0x1
 5841 0831 D107     		.2byte	0x7d1
 5842 0833 00000000 		.4byte	.LFB49
 5843 0837 48000000 		.4byte	.LFE49-.LFB49
 5844 083b 01       		.uleb128 0x1
 5845 083c 9C       		.byte	0x9c
 5846 083d 1A       		.uleb128 0x1a
 5847 083e 0E080000 		.4byte	.LASF105
 5848 0842 01       		.byte	0x1
 5849 0843 ED07     		.2byte	0x7ed
 5850 0845 00000000 		.4byte	.LFB50
 5851 0849 5C000000 		.4byte	.LFE50-.LFB50
 5852 084d 01       		.uleb128 0x1
 5853 084e 9C       		.byte	0x9c
 5854 084f 11       		.uleb128 0x11
 5855 0850 28030000 		.4byte	.LASF106
 5856 0854 01       		.byte	0x1
 5857 0855 0E08     		.2byte	0x80e
 5858 0857 00000000 		.4byte	.LFB51
 5859 085b 20000000 		.4byte	.LFE51-.LFB51
 5860 085f 01       		.uleb128 0x1
 5861 0860 9C       		.byte	0x9c
 5862 0861 16       		.uleb128 0x16
 5863 0862 BA020000 		.4byte	.LASF107
 5864 0866 01       		.byte	0x1
 5865 0867 2808     		.2byte	0x828
 5866 0869 80000000 		.4byte	0x80
 5867 086d 00000000 		.4byte	.LFB52
 5868 0871 38000000 		.4byte	.LFE52-.LFB52
 5869 0875 01       		.uleb128 0x1
 5870 0876 9C       		.byte	0x9c
 5871 0877 9A080000 		.4byte	0x89a
 5872 087b 0F       		.uleb128 0xf
 5873 087c DC010000 		.4byte	.LASF108
 5874 0880 01       		.byte	0x1
 5875 0881 2808     		.2byte	0x828
 5876 0883 80000000 		.4byte	0x80
 5877 0887 02       		.uleb128 0x2
 5878 0888 91       		.byte	0x91
 5879 0889 6F       		.sleb128 -17
 5880 088a 10       		.uleb128 0x10
 5881 088b 75070000 		.4byte	.LASF21
 5882 088f 01       		.byte	0x1
 5883 0890 2A08     		.2byte	0x82a
 5884 0892 80000000 		.4byte	0x80
 5885 0896 02       		.uleb128 0x2
 5886 0897 91       		.byte	0x91
ARM GAS  C:\Users\Rolando\AppData\Local\Temp\ccmqTZg9.s 			page 152


 5887 0898 77       		.sleb128 -9
 5888 0899 00       		.byte	0
 5889 089a 19       		.uleb128 0x19
 5890 089b 3A040000 		.4byte	.LASF109
 5891 089f 01       		.byte	0x1
 5892 08a0 4508     		.2byte	0x845
 5893 08a2 80000000 		.4byte	0x80
 5894 08a6 00000000 		.4byte	.LFB53
 5895 08aa 2C000000 		.4byte	.LFE53-.LFB53
 5896 08ae 01       		.uleb128 0x1
 5897 08af 9C       		.byte	0x9c
 5898 08b0 D3080000 		.4byte	0x8d3
 5899 08b4 10       		.uleb128 0x10
 5900 08b5 4B010000 		.4byte	.LASF55
 5901 08b9 01       		.byte	0x1
 5902 08ba 4708     		.2byte	0x847
 5903 08bc 80000000 		.4byte	0x80
 5904 08c0 02       		.uleb128 0x2
 5905 08c1 91       		.byte	0x91
 5906 08c2 77       		.sleb128 -9
 5907 08c3 10       		.uleb128 0x10
 5908 08c4 68070000 		.4byte	.LASF110
 5909 08c8 01       		.byte	0x1
 5910 08c9 4808     		.2byte	0x848
 5911 08cb 80000000 		.4byte	0x80
 5912 08cf 02       		.uleb128 0x2
 5913 08d0 91       		.byte	0x91
 5914 08d1 76       		.sleb128 -10
 5915 08d2 00       		.byte	0
 5916 08d3 19       		.uleb128 0x19
 5917 08d4 82000000 		.4byte	.LASF111
 5918 08d8 01       		.byte	0x1
 5919 08d9 6008     		.2byte	0x860
 5920 08db 96000000 		.4byte	0x96
 5921 08df 00000000 		.4byte	.LFB54
 5922 08e3 34000000 		.4byte	.LFE54-.LFB54
 5923 08e7 01       		.uleb128 0x1
 5924 08e8 9C       		.byte	0x9c
 5925 08e9 0C090000 		.4byte	0x90c
 5926 08ed 10       		.uleb128 0x10
 5927 08ee 98060000 		.4byte	.LASF112
 5928 08f2 01       		.byte	0x1
 5929 08f3 6208     		.2byte	0x862
 5930 08f5 96000000 		.4byte	0x96
 5931 08f9 02       		.uleb128 0x2
 5932 08fa 91       		.byte	0x91
 5933 08fb 70       		.sleb128 -16
 5934 08fc 10       		.uleb128 0x10
 5935 08fd 4B010000 		.4byte	.LASF55
 5936 0901 01       		.byte	0x1
 5937 0902 6308     		.2byte	0x863
 5938 0904 80000000 		.4byte	0x80
 5939 0908 02       		.uleb128 0x2
 5940 0909 91       		.byte	0x91
 5941 090a 77       		.sleb128 -9
 5942 090b 00       		.byte	0
 5943 090c 0E       		.uleb128 0xe
ARM GAS  C:\Users\Rolando\AppData\Local\Temp\ccmqTZg9.s 			page 153


 5944 090d 11070000 		.4byte	.LASF113
 5945 0911 01       		.byte	0x1
 5946 0912 9408     		.2byte	0x894
 5947 0914 00000000 		.4byte	.LFB55
 5948 0918 28000000 		.4byte	.LFE55-.LFB55
 5949 091c 01       		.uleb128 0x1
 5950 091d 9C       		.byte	0x9c
 5951 091e 41090000 		.4byte	0x941
 5952 0922 0F       		.uleb128 0xf
 5953 0923 DC010000 		.4byte	.LASF108
 5954 0927 01       		.byte	0x1
 5955 0928 9408     		.2byte	0x894
 5956 092a 96000000 		.4byte	0x96
 5957 092e 02       		.uleb128 0x2
 5958 092f 91       		.byte	0x91
 5959 0930 6C       		.sleb128 -20
 5960 0931 10       		.uleb128 0x10
 5961 0932 4B010000 		.4byte	.LASF55
 5962 0936 01       		.byte	0x1
 5963 0937 9708     		.2byte	0x897
 5964 0939 80000000 		.4byte	0x80
 5965 093d 02       		.uleb128 0x2
 5966 093e 91       		.byte	0x91
 5967 093f 77       		.sleb128 -9
 5968 0940 00       		.byte	0
 5969 0941 0E       		.uleb128 0xe
 5970 0942 41060000 		.4byte	.LASF114
 5971 0946 01       		.byte	0x1
 5972 0947 BC08     		.2byte	0x8bc
 5973 0949 00000000 		.4byte	.LFB56
 5974 094d 70000000 		.4byte	.LFE56-.LFB56
 5975 0951 01       		.uleb128 0x1
 5976 0952 9C       		.byte	0x9c
 5977 0953 67090000 		.4byte	0x967
 5978 0957 10       		.uleb128 0x10
 5979 0958 4B010000 		.4byte	.LASF55
 5980 095c 01       		.byte	0x1
 5981 095d BE08     		.2byte	0x8be
 5982 095f 80000000 		.4byte	0x80
 5983 0963 02       		.uleb128 0x2
 5984 0964 91       		.byte	0x91
 5985 0965 77       		.sleb128 -9
 5986 0966 00       		.byte	0
 5987 0967 19       		.uleb128 0x19
 5988 0968 9E030000 		.4byte	.LASF115
 5989 096c 01       		.byte	0x1
 5990 096d 0409     		.2byte	0x904
 5991 096f EA000000 		.4byte	0xea
 5992 0973 00000000 		.4byte	.LFB57
 5993 0977 4C000000 		.4byte	.LFE57-.LFB57
 5994 097b 01       		.uleb128 0x1
 5995 097c 9C       		.byte	0x9c
 5996 097d BE090000 		.4byte	0x9be
 5997 0981 0F       		.uleb128 0xf
 5998 0982 52030000 		.4byte	.LASF116
 5999 0986 01       		.byte	0x1
 6000 0987 0409     		.2byte	0x904
ARM GAS  C:\Users\Rolando\AppData\Local\Temp\ccmqTZg9.s 			page 154


 6001 0989 80000000 		.4byte	0x80
 6002 098d 02       		.uleb128 0x2
 6003 098e 91       		.byte	0x91
 6004 098f 6F       		.sleb128 -17
 6005 0990 0F       		.uleb128 0xf
 6006 0991 23040000 		.4byte	.LASF117
 6007 0995 01       		.byte	0x1
 6008 0996 0409     		.2byte	0x904
 6009 0998 EA000000 		.4byte	0xea
 6010 099c 02       		.uleb128 0x2
 6011 099d 91       		.byte	0x91
 6012 099e 68       		.sleb128 -24
 6013 099f 10       		.uleb128 0x10
 6014 09a0 67000000 		.4byte	.LASF118
 6015 09a4 01       		.byte	0x1
 6016 09a5 0609     		.2byte	0x906
 6017 09a7 EA000000 		.4byte	0xea
 6018 09ab 02       		.uleb128 0x2
 6019 09ac 91       		.byte	0x91
 6020 09ad 70       		.sleb128 -16
 6021 09ae 10       		.uleb128 0x10
 6022 09af 00000000 		.4byte	.LASF119
 6023 09b3 01       		.byte	0x1
 6024 09b4 0709     		.2byte	0x907
 6025 09b6 BE090000 		.4byte	0x9be
 6026 09ba 02       		.uleb128 0x2
 6027 09bb 91       		.byte	0x91
 6028 09bc 74       		.sleb128 -12
 6029 09bd 00       		.byte	0
 6030 09be 04       		.uleb128 0x4
 6031 09bf 04       		.byte	0x4
 6032 09c0 EA000000 		.4byte	0xea
 6033 09c4 19       		.uleb128 0x19
 6034 09c5 41020000 		.4byte	.LASF120
 6035 09c9 01       		.byte	0x1
 6036 09ca 2509     		.2byte	0x925
 6037 09cc EA000000 		.4byte	0xea
 6038 09d0 00000000 		.4byte	.LFB58
 6039 09d4 38000000 		.4byte	.LFE58-.LFB58
 6040 09d8 01       		.uleb128 0x1
 6041 09d9 9C       		.byte	0x9c
 6042 09da FD090000 		.4byte	0x9fd
 6043 09de 0F       		.uleb128 0xf
 6044 09df 52030000 		.4byte	.LASF116
 6045 09e3 01       		.byte	0x1
 6046 09e4 2509     		.2byte	0x925
 6047 09e6 80000000 		.4byte	0x80
 6048 09ea 02       		.uleb128 0x2
 6049 09eb 91       		.byte	0x91
 6050 09ec 6F       		.sleb128 -17
 6051 09ed 10       		.uleb128 0x10
 6052 09ee 00000000 		.4byte	.LASF119
 6053 09f2 01       		.byte	0x1
 6054 09f3 2709     		.2byte	0x927
 6055 09f5 BE090000 		.4byte	0x9be
 6056 09f9 02       		.uleb128 0x2
 6057 09fa 91       		.byte	0x91
ARM GAS  C:\Users\Rolando\AppData\Local\Temp\ccmqTZg9.s 			page 155


 6058 09fb 74       		.sleb128 -12
 6059 09fc 00       		.byte	0
 6060 09fd 19       		.uleb128 0x19
 6061 09fe 19030000 		.4byte	.LASF121
 6062 0a02 01       		.byte	0x1
 6063 0a03 3D09     		.2byte	0x93d
 6064 0a05 EA000000 		.4byte	0xea
 6065 0a09 00000000 		.4byte	.LFB59
 6066 0a0d 50000000 		.4byte	.LFE59-.LFB59
 6067 0a11 01       		.uleb128 0x1
 6068 0a12 9C       		.byte	0x9c
 6069 0a13 540A0000 		.4byte	0xa54
 6070 0a17 0F       		.uleb128 0xf
 6071 0a18 52030000 		.4byte	.LASF116
 6072 0a1c 01       		.byte	0x1
 6073 0a1d 3D09     		.2byte	0x93d
 6074 0a1f 80000000 		.4byte	0x80
 6075 0a23 02       		.uleb128 0x2
 6076 0a24 91       		.byte	0x91
 6077 0a25 6F       		.sleb128 -17
 6078 0a26 0F       		.uleb128 0xf
 6079 0a27 23040000 		.4byte	.LASF117
 6080 0a2b 01       		.byte	0x1
 6081 0a2c 3D09     		.2byte	0x93d
 6082 0a2e EA000000 		.4byte	0xea
 6083 0a32 02       		.uleb128 0x2
 6084 0a33 91       		.byte	0x91
 6085 0a34 68       		.sleb128 -24
 6086 0a35 10       		.uleb128 0x10
 6087 0a36 67000000 		.4byte	.LASF118
 6088 0a3a 01       		.byte	0x1
 6089 0a3b 3F09     		.2byte	0x93f
 6090 0a3d EA000000 		.4byte	0xea
 6091 0a41 02       		.uleb128 0x2
 6092 0a42 91       		.byte	0x91
 6093 0a43 70       		.sleb128 -16
 6094 0a44 10       		.uleb128 0x10
 6095 0a45 00000000 		.4byte	.LASF119
 6096 0a49 01       		.byte	0x1
 6097 0a4a 4009     		.2byte	0x940
 6098 0a4c BE090000 		.4byte	0x9be
 6099 0a50 02       		.uleb128 0x2
 6100 0a51 91       		.byte	0x91
 6101 0a52 74       		.sleb128 -12
 6102 0a53 00       		.byte	0
 6103 0a54 19       		.uleb128 0x19
 6104 0a55 81050000 		.4byte	.LASF122
 6105 0a59 01       		.byte	0x1
 6106 0a5a 5C09     		.2byte	0x95c
 6107 0a5c EA000000 		.4byte	0xea
 6108 0a60 00000000 		.4byte	.LFB60
 6109 0a64 38000000 		.4byte	.LFE60-.LFB60
 6110 0a68 01       		.uleb128 0x1
 6111 0a69 9C       		.byte	0x9c
 6112 0a6a 8D0A0000 		.4byte	0xa8d
 6113 0a6e 0F       		.uleb128 0xf
 6114 0a6f 52030000 		.4byte	.LASF116
ARM GAS  C:\Users\Rolando\AppData\Local\Temp\ccmqTZg9.s 			page 156


 6115 0a73 01       		.byte	0x1
 6116 0a74 5C09     		.2byte	0x95c
 6117 0a76 80000000 		.4byte	0x80
 6118 0a7a 02       		.uleb128 0x2
 6119 0a7b 91       		.byte	0x91
 6120 0a7c 6F       		.sleb128 -17
 6121 0a7d 10       		.uleb128 0x10
 6122 0a7e 00000000 		.4byte	.LASF119
 6123 0a82 01       		.byte	0x1
 6124 0a83 5E09     		.2byte	0x95e
 6125 0a85 BE090000 		.4byte	0x9be
 6126 0a89 02       		.uleb128 0x2
 6127 0a8a 91       		.byte	0x91
 6128 0a8b 74       		.sleb128 -12
 6129 0a8c 00       		.byte	0
 6130 0a8d 0E       		.uleb128 0xe
 6131 0a8e 7D030000 		.4byte	.LASF123
 6132 0a92 01       		.byte	0x1
 6133 0a93 7409     		.2byte	0x974
 6134 0a95 00000000 		.4byte	.LFB61
 6135 0a99 44000000 		.4byte	.LFE61-.LFB61
 6136 0a9d 01       		.uleb128 0x1
 6137 0a9e 9C       		.byte	0x9c
 6138 0a9f C20A0000 		.4byte	0xac2
 6139 0aa3 0F       		.uleb128 0xf
 6140 0aa4 52030000 		.4byte	.LASF116
 6141 0aa8 01       		.byte	0x1
 6142 0aa9 7409     		.2byte	0x974
 6143 0aab 80000000 		.4byte	0x80
 6144 0aaf 02       		.uleb128 0x2
 6145 0ab0 91       		.byte	0x91
 6146 0ab1 77       		.sleb128 -9
 6147 0ab2 0F       		.uleb128 0xf
 6148 0ab3 59030000 		.4byte	.LASF124
 6149 0ab7 01       		.byte	0x1
 6150 0ab8 7409     		.2byte	0x974
 6151 0aba 80000000 		.4byte	0x80
 6152 0abe 02       		.uleb128 0x2
 6153 0abf 91       		.byte	0x91
 6154 0ac0 76       		.sleb128 -10
 6155 0ac1 00       		.byte	0
 6156 0ac2 19       		.uleb128 0x19
 6157 0ac3 30020000 		.4byte	.LASF125
 6158 0ac7 01       		.byte	0x1
 6159 0ac8 8A09     		.2byte	0x98a
 6160 0aca 80000000 		.4byte	0x80
 6161 0ace 00000000 		.4byte	.LFB62
 6162 0ad2 36000000 		.4byte	.LFE62-.LFB62
 6163 0ad6 01       		.uleb128 0x1
 6164 0ad7 9C       		.byte	0x9c
 6165 0ad8 FB0A0000 		.4byte	0xafb
 6166 0adc 0F       		.uleb128 0xf
 6167 0add 52030000 		.4byte	.LASF116
 6168 0ae1 01       		.byte	0x1
 6169 0ae2 8A09     		.2byte	0x98a
 6170 0ae4 80000000 		.4byte	0x80
 6171 0ae8 02       		.uleb128 0x2
ARM GAS  C:\Users\Rolando\AppData\Local\Temp\ccmqTZg9.s 			page 157


 6172 0ae9 91       		.byte	0x91
 6173 0aea 6F       		.sleb128 -17
 6174 0aeb 10       		.uleb128 0x10
 6175 0aec 59030000 		.4byte	.LASF124
 6176 0af0 01       		.byte	0x1
 6177 0af1 8C09     		.2byte	0x98c
 6178 0af3 80000000 		.4byte	0x80
 6179 0af7 02       		.uleb128 0x2
 6180 0af8 91       		.byte	0x91
 6181 0af9 77       		.sleb128 -9
 6182 0afa 00       		.byte	0
 6183 0afb 19       		.uleb128 0x19
 6184 0afc 06010000 		.4byte	.LASF126
 6185 0b00 01       		.byte	0x1
 6186 0b01 A409     		.2byte	0x9a4
 6187 0b03 80000000 		.4byte	0x80
 6188 0b07 00000000 		.4byte	.LFB63
 6189 0b0b 44000000 		.4byte	.LFE63-.LFB63
 6190 0b0f 01       		.uleb128 0x1
 6191 0b10 9C       		.byte	0x9c
 6192 0b11 340B0000 		.4byte	0xb34
 6193 0b15 0F       		.uleb128 0xf
 6194 0b16 52030000 		.4byte	.LASF116
 6195 0b1a 01       		.byte	0x1
 6196 0b1b A409     		.2byte	0x9a4
 6197 0b1d 80000000 		.4byte	0x80
 6198 0b21 02       		.uleb128 0x2
 6199 0b22 91       		.byte	0x91
 6200 0b23 6F       		.sleb128 -17
 6201 0b24 10       		.uleb128 0x10
 6202 0b25 4E060000 		.4byte	.LASF127
 6203 0b29 01       		.byte	0x1
 6204 0b2a A609     		.2byte	0x9a6
 6205 0b2c 340B0000 		.4byte	0xb34
 6206 0b30 02       		.uleb128 0x2
 6207 0b31 91       		.byte	0x91
 6208 0b32 74       		.sleb128 -12
 6209 0b33 00       		.byte	0
 6210 0b34 04       		.uleb128 0x4
 6211 0b35 04       		.byte	0x4
 6212 0b36 DA000000 		.4byte	0xda
 6213 0b3a 0E       		.uleb128 0xe
 6214 0b3b DF070000 		.4byte	.LASF128
 6215 0b3f 01       		.byte	0x1
 6216 0b40 5E0A     		.2byte	0xa5e
 6217 0b42 00000000 		.4byte	.LFB64
 6218 0b46 B0010000 		.4byte	.LFE64-.LFB64
 6219 0b4a 01       		.uleb128 0x1
 6220 0b4b 9C       		.byte	0x9c
 6221 0b4c 600B0000 		.4byte	0xb60
 6222 0b50 0F       		.uleb128 0xf
 6223 0b51 4D040000 		.4byte	.LASF129
 6224 0b55 01       		.byte	0x1
 6225 0b56 5E0A     		.2byte	0xa5e
 6226 0b58 80000000 		.4byte	0x80
 6227 0b5c 02       		.uleb128 0x2
 6228 0b5d 91       		.byte	0x91
ARM GAS  C:\Users\Rolando\AppData\Local\Temp\ccmqTZg9.s 			page 158


 6229 0b5e 77       		.sleb128 -9
 6230 0b5f 00       		.byte	0
 6231 0b60 1B       		.uleb128 0x1b
 6232 0b61 FD040000 		.4byte	.LASF130
 6233 0b65 01       		.byte	0x1
 6234 0b66 1D       		.byte	0x1d
 6235 0b67 80000000 		.4byte	0x80
 6236 0b6b 05       		.uleb128 0x5
 6237 0b6c 03       		.byte	0x3
 6238 0b6d 00000000 		.4byte	CyResetStatus
 6239 0b71 1B       		.uleb128 0x1b
 6240 0b72 5A010000 		.4byte	.LASF131
 6241 0b76 01       		.byte	0x1
 6242 0b77 23       		.byte	0x23
 6243 0b78 80000000 		.4byte	0x80
 6244 0b7c 05       		.uleb128 0x5
 6245 0b7d 03       		.byte	0x3
 6246 0b7e 00000000 		.4byte	CyScPumpEnabled
 6247 0b82 1B       		.uleb128 0x1b
 6248 0b83 AE050000 		.4byte	.LASF132
 6249 0b87 01       		.byte	0x1
 6250 0b88 29       		.byte	0x29
 6251 0b89 96000000 		.4byte	0x96
 6252 0b8d 05       		.uleb128 0x5
 6253 0b8e 03       		.byte	0x3
 6254 0b8f 00000000 		.4byte	cydelay_freq_hz
 6255 0b93 1B       		.uleb128 0x1b
 6256 0b94 D5030000 		.4byte	.LASF133
 6257 0b98 01       		.byte	0x1
 6258 0b99 2A       		.byte	0x2a
 6259 0b9a 96000000 		.4byte	0x96
 6260 0b9e 05       		.uleb128 0x5
 6261 0b9f 03       		.byte	0x3
 6262 0ba0 00000000 		.4byte	cydelay_freq_khz
 6263 0ba4 1B       		.uleb128 0x1b
 6264 0ba5 F5000000 		.4byte	.LASF134
 6265 0ba9 01       		.byte	0x1
 6266 0baa 2B       		.byte	0x2b
 6267 0bab 80000000 		.4byte	0x80
 6268 0baf 05       		.uleb128 0x5
 6269 0bb0 03       		.byte	0x3
 6270 0bb1 00000000 		.4byte	cydelay_freq_mhz
 6271 0bb5 1B       		.uleb128 0x1b
 6272 0bb6 59070000 		.4byte	.LASF135
 6273 0bba 01       		.byte	0x1
 6274 0bbb 2C       		.byte	0x2c
 6275 0bbc 96000000 		.4byte	0x96
 6276 0bc0 05       		.uleb128 0x5
 6277 0bc1 03       		.byte	0x3
 6278 0bc2 00000000 		.4byte	cydelay_32k_ms
 6279 0bc6 00       		.byte	0
 6280              		.section	.debug_abbrev,"",%progbits
 6281              	.Ldebug_abbrev0:
 6282 0000 01       		.uleb128 0x1
 6283 0001 11       		.uleb128 0x11
 6284 0002 01       		.byte	0x1
 6285 0003 25       		.uleb128 0x25
ARM GAS  C:\Users\Rolando\AppData\Local\Temp\ccmqTZg9.s 			page 159


 6286 0004 0E       		.uleb128 0xe
 6287 0005 13       		.uleb128 0x13
 6288 0006 0B       		.uleb128 0xb
 6289 0007 03       		.uleb128 0x3
 6290 0008 0E       		.uleb128 0xe
 6291 0009 1B       		.uleb128 0x1b
 6292 000a 0E       		.uleb128 0xe
 6293 000b 55       		.uleb128 0x55
 6294 000c 17       		.uleb128 0x17
 6295 000d 11       		.uleb128 0x11
 6296 000e 01       		.uleb128 0x1
 6297 000f 10       		.uleb128 0x10
 6298 0010 17       		.uleb128 0x17
 6299 0011 00       		.byte	0
 6300 0012 00       		.byte	0
 6301 0013 02       		.uleb128 0x2
 6302 0014 24       		.uleb128 0x24
 6303 0015 00       		.byte	0
 6304 0016 0B       		.uleb128 0xb
 6305 0017 0B       		.uleb128 0xb
 6306 0018 3E       		.uleb128 0x3e
 6307 0019 0B       		.uleb128 0xb
 6308 001a 03       		.uleb128 0x3
 6309 001b 08       		.uleb128 0x8
 6310 001c 00       		.byte	0
 6311 001d 00       		.byte	0
 6312 001e 03       		.uleb128 0x3
 6313 001f 24       		.uleb128 0x24
 6314 0020 00       		.byte	0
 6315 0021 0B       		.uleb128 0xb
 6316 0022 0B       		.uleb128 0xb
 6317 0023 3E       		.uleb128 0x3e
 6318 0024 0B       		.uleb128 0xb
 6319 0025 03       		.uleb128 0x3
 6320 0026 0E       		.uleb128 0xe
 6321 0027 00       		.byte	0
 6322 0028 00       		.byte	0
 6323 0029 04       		.uleb128 0x4
 6324 002a 0F       		.uleb128 0xf
 6325 002b 00       		.byte	0
 6326 002c 0B       		.uleb128 0xb
 6327 002d 0B       		.uleb128 0xb
 6328 002e 49       		.uleb128 0x49
 6329 002f 13       		.uleb128 0x13
 6330 0030 00       		.byte	0
 6331 0031 00       		.byte	0
 6332 0032 05       		.uleb128 0x5
 6333 0033 15       		.uleb128 0x15
 6334 0034 00       		.byte	0
 6335 0035 27       		.uleb128 0x27
 6336 0036 19       		.uleb128 0x19
 6337 0037 00       		.byte	0
 6338 0038 00       		.byte	0
 6339 0039 06       		.uleb128 0x6
 6340 003a 16       		.uleb128 0x16
 6341 003b 00       		.byte	0
 6342 003c 03       		.uleb128 0x3
ARM GAS  C:\Users\Rolando\AppData\Local\Temp\ccmqTZg9.s 			page 160


 6343 003d 0E       		.uleb128 0xe
 6344 003e 3A       		.uleb128 0x3a
 6345 003f 0B       		.uleb128 0xb
 6346 0040 3B       		.uleb128 0x3b
 6347 0041 0B       		.uleb128 0xb
 6348 0042 49       		.uleb128 0x49
 6349 0043 13       		.uleb128 0x13
 6350 0044 00       		.byte	0
 6351 0045 00       		.byte	0
 6352 0046 07       		.uleb128 0x7
 6353 0047 35       		.uleb128 0x35
 6354 0048 00       		.byte	0
 6355 0049 49       		.uleb128 0x49
 6356 004a 13       		.uleb128 0x13
 6357 004b 00       		.byte	0
 6358 004c 00       		.byte	0
 6359 004d 08       		.uleb128 0x8
 6360 004e 16       		.uleb128 0x16
 6361 004f 00       		.byte	0
 6362 0050 03       		.uleb128 0x3
 6363 0051 0E       		.uleb128 0xe
 6364 0052 3A       		.uleb128 0x3a
 6365 0053 0B       		.uleb128 0xb
 6366 0054 3B       		.uleb128 0x3b
 6367 0055 05       		.uleb128 0x5
 6368 0056 49       		.uleb128 0x49
 6369 0057 13       		.uleb128 0x13
 6370 0058 00       		.byte	0
 6371 0059 00       		.byte	0
 6372 005a 09       		.uleb128 0x9
 6373 005b 2E       		.uleb128 0x2e
 6374 005c 01       		.byte	0x1
 6375 005d 3F       		.uleb128 0x3f
 6376 005e 19       		.uleb128 0x19
 6377 005f 03       		.uleb128 0x3
 6378 0060 0E       		.uleb128 0xe
 6379 0061 3A       		.uleb128 0x3a
 6380 0062 0B       		.uleb128 0xb
 6381 0063 3B       		.uleb128 0x3b
 6382 0064 0B       		.uleb128 0xb
 6383 0065 27       		.uleb128 0x27
 6384 0066 19       		.uleb128 0x19
 6385 0067 49       		.uleb128 0x49
 6386 0068 13       		.uleb128 0x13
 6387 0069 11       		.uleb128 0x11
 6388 006a 01       		.uleb128 0x1
 6389 006b 12       		.uleb128 0x12
 6390 006c 06       		.uleb128 0x6
 6391 006d 40       		.uleb128 0x40
 6392 006e 18       		.uleb128 0x18
 6393 006f 9642     		.uleb128 0x2116
 6394 0071 19       		.uleb128 0x19
 6395 0072 01       		.uleb128 0x1
 6396 0073 13       		.uleb128 0x13
 6397 0074 00       		.byte	0
 6398 0075 00       		.byte	0
 6399 0076 0A       		.uleb128 0xa
ARM GAS  C:\Users\Rolando\AppData\Local\Temp\ccmqTZg9.s 			page 161


 6400 0077 05       		.uleb128 0x5
 6401 0078 00       		.byte	0
 6402 0079 03       		.uleb128 0x3
 6403 007a 0E       		.uleb128 0xe
 6404 007b 3A       		.uleb128 0x3a
 6405 007c 0B       		.uleb128 0xb
 6406 007d 3B       		.uleb128 0x3b
 6407 007e 0B       		.uleb128 0xb
 6408 007f 49       		.uleb128 0x49
 6409 0080 13       		.uleb128 0x13
 6410 0081 02       		.uleb128 0x2
 6411 0082 18       		.uleb128 0x18
 6412 0083 00       		.byte	0
 6413 0084 00       		.byte	0
 6414 0085 0B       		.uleb128 0xb
 6415 0086 34       		.uleb128 0x34
 6416 0087 00       		.byte	0
 6417 0088 03       		.uleb128 0x3
 6418 0089 0E       		.uleb128 0xe
 6419 008a 3A       		.uleb128 0x3a
 6420 008b 0B       		.uleb128 0xb
 6421 008c 3B       		.uleb128 0x3b
 6422 008d 0B       		.uleb128 0xb
 6423 008e 49       		.uleb128 0x49
 6424 008f 13       		.uleb128 0x13
 6425 0090 02       		.uleb128 0x2
 6426 0091 18       		.uleb128 0x18
 6427 0092 00       		.byte	0
 6428 0093 00       		.byte	0
 6429 0094 0C       		.uleb128 0xc
 6430 0095 2E       		.uleb128 0x2e
 6431 0096 00       		.byte	0
 6432 0097 3F       		.uleb128 0x3f
 6433 0098 19       		.uleb128 0x19
 6434 0099 03       		.uleb128 0x3
 6435 009a 0E       		.uleb128 0xe
 6436 009b 3A       		.uleb128 0x3a
 6437 009c 0B       		.uleb128 0xb
 6438 009d 3B       		.uleb128 0x3b
 6439 009e 0B       		.uleb128 0xb
 6440 009f 27       		.uleb128 0x27
 6441 00a0 19       		.uleb128 0x19
 6442 00a1 11       		.uleb128 0x11
 6443 00a2 01       		.uleb128 0x1
 6444 00a3 12       		.uleb128 0x12
 6445 00a4 06       		.uleb128 0x6
 6446 00a5 40       		.uleb128 0x40
 6447 00a6 18       		.uleb128 0x18
 6448 00a7 9742     		.uleb128 0x2117
 6449 00a9 19       		.uleb128 0x19
 6450 00aa 00       		.byte	0
 6451 00ab 00       		.byte	0
 6452 00ac 0D       		.uleb128 0xd
 6453 00ad 2E       		.uleb128 0x2e
 6454 00ae 01       		.byte	0x1
 6455 00af 3F       		.uleb128 0x3f
 6456 00b0 19       		.uleb128 0x19
ARM GAS  C:\Users\Rolando\AppData\Local\Temp\ccmqTZg9.s 			page 162


 6457 00b1 03       		.uleb128 0x3
 6458 00b2 0E       		.uleb128 0xe
 6459 00b3 3A       		.uleb128 0x3a
 6460 00b4 0B       		.uleb128 0xb
 6461 00b5 3B       		.uleb128 0x3b
 6462 00b6 0B       		.uleb128 0xb
 6463 00b7 27       		.uleb128 0x27
 6464 00b8 19       		.uleb128 0x19
 6465 00b9 11       		.uleb128 0x11
 6466 00ba 01       		.uleb128 0x1
 6467 00bb 12       		.uleb128 0x12
 6468 00bc 06       		.uleb128 0x6
 6469 00bd 40       		.uleb128 0x40
 6470 00be 18       		.uleb128 0x18
 6471 00bf 9642     		.uleb128 0x2116
 6472 00c1 19       		.uleb128 0x19
 6473 00c2 01       		.uleb128 0x1
 6474 00c3 13       		.uleb128 0x13
 6475 00c4 00       		.byte	0
 6476 00c5 00       		.byte	0
 6477 00c6 0E       		.uleb128 0xe
 6478 00c7 2E       		.uleb128 0x2e
 6479 00c8 01       		.byte	0x1
 6480 00c9 3F       		.uleb128 0x3f
 6481 00ca 19       		.uleb128 0x19
 6482 00cb 03       		.uleb128 0x3
 6483 00cc 0E       		.uleb128 0xe
 6484 00cd 3A       		.uleb128 0x3a
 6485 00ce 0B       		.uleb128 0xb
 6486 00cf 3B       		.uleb128 0x3b
 6487 00d0 05       		.uleb128 0x5
 6488 00d1 27       		.uleb128 0x27
 6489 00d2 19       		.uleb128 0x19
 6490 00d3 11       		.uleb128 0x11
 6491 00d4 01       		.uleb128 0x1
 6492 00d5 12       		.uleb128 0x12
 6493 00d6 06       		.uleb128 0x6
 6494 00d7 40       		.uleb128 0x40
 6495 00d8 18       		.uleb128 0x18
 6496 00d9 9642     		.uleb128 0x2116
 6497 00db 19       		.uleb128 0x19
 6498 00dc 01       		.uleb128 0x1
 6499 00dd 13       		.uleb128 0x13
 6500 00de 00       		.byte	0
 6501 00df 00       		.byte	0
 6502 00e0 0F       		.uleb128 0xf
 6503 00e1 05       		.uleb128 0x5
 6504 00e2 00       		.byte	0
 6505 00e3 03       		.uleb128 0x3
 6506 00e4 0E       		.uleb128 0xe
 6507 00e5 3A       		.uleb128 0x3a
 6508 00e6 0B       		.uleb128 0xb
 6509 00e7 3B       		.uleb128 0x3b
 6510 00e8 05       		.uleb128 0x5
 6511 00e9 49       		.uleb128 0x49
 6512 00ea 13       		.uleb128 0x13
 6513 00eb 02       		.uleb128 0x2
ARM GAS  C:\Users\Rolando\AppData\Local\Temp\ccmqTZg9.s 			page 163


 6514 00ec 18       		.uleb128 0x18
 6515 00ed 00       		.byte	0
 6516 00ee 00       		.byte	0
 6517 00ef 10       		.uleb128 0x10
 6518 00f0 34       		.uleb128 0x34
 6519 00f1 00       		.byte	0
 6520 00f2 03       		.uleb128 0x3
 6521 00f3 0E       		.uleb128 0xe
 6522 00f4 3A       		.uleb128 0x3a
 6523 00f5 0B       		.uleb128 0xb
 6524 00f6 3B       		.uleb128 0x3b
 6525 00f7 05       		.uleb128 0x5
 6526 00f8 49       		.uleb128 0x49
 6527 00f9 13       		.uleb128 0x13
 6528 00fa 02       		.uleb128 0x2
 6529 00fb 18       		.uleb128 0x18
 6530 00fc 00       		.byte	0
 6531 00fd 00       		.byte	0
 6532 00fe 11       		.uleb128 0x11
 6533 00ff 2E       		.uleb128 0x2e
 6534 0100 00       		.byte	0
 6535 0101 3F       		.uleb128 0x3f
 6536 0102 19       		.uleb128 0x19
 6537 0103 03       		.uleb128 0x3
 6538 0104 0E       		.uleb128 0xe
 6539 0105 3A       		.uleb128 0x3a
 6540 0106 0B       		.uleb128 0xb
 6541 0107 3B       		.uleb128 0x3b
 6542 0108 05       		.uleb128 0x5
 6543 0109 27       		.uleb128 0x27
 6544 010a 19       		.uleb128 0x19
 6545 010b 11       		.uleb128 0x11
 6546 010c 01       		.uleb128 0x1
 6547 010d 12       		.uleb128 0x12
 6548 010e 06       		.uleb128 0x6
 6549 010f 40       		.uleb128 0x40
 6550 0110 18       		.uleb128 0x18
 6551 0111 9742     		.uleb128 0x2117
 6552 0113 19       		.uleb128 0x19
 6553 0114 00       		.byte	0
 6554 0115 00       		.byte	0
 6555 0116 12       		.uleb128 0x12
 6556 0117 2E       		.uleb128 0x2e
 6557 0118 01       		.byte	0x1
 6558 0119 03       		.uleb128 0x3
 6559 011a 0E       		.uleb128 0xe
 6560 011b 3A       		.uleb128 0x3a
 6561 011c 0B       		.uleb128 0xb
 6562 011d 3B       		.uleb128 0x3b
 6563 011e 05       		.uleb128 0x5
 6564 011f 27       		.uleb128 0x27
 6565 0120 19       		.uleb128 0x19
 6566 0121 49       		.uleb128 0x49
 6567 0122 13       		.uleb128 0x13
 6568 0123 11       		.uleb128 0x11
 6569 0124 01       		.uleb128 0x1
 6570 0125 12       		.uleb128 0x12
ARM GAS  C:\Users\Rolando\AppData\Local\Temp\ccmqTZg9.s 			page 164


 6571 0126 06       		.uleb128 0x6
 6572 0127 40       		.uleb128 0x40
 6573 0128 18       		.uleb128 0x18
 6574 0129 9742     		.uleb128 0x2117
 6575 012b 19       		.uleb128 0x19
 6576 012c 01       		.uleb128 0x1
 6577 012d 13       		.uleb128 0x13
 6578 012e 00       		.byte	0
 6579 012f 00       		.byte	0
 6580 0130 13       		.uleb128 0x13
 6581 0131 2E       		.uleb128 0x2e
 6582 0132 01       		.byte	0x1
 6583 0133 03       		.uleb128 0x3
 6584 0134 0E       		.uleb128 0xe
 6585 0135 3A       		.uleb128 0x3a
 6586 0136 0B       		.uleb128 0xb
 6587 0137 3B       		.uleb128 0x3b
 6588 0138 05       		.uleb128 0x5
 6589 0139 27       		.uleb128 0x27
 6590 013a 19       		.uleb128 0x19
 6591 013b 11       		.uleb128 0x11
 6592 013c 01       		.uleb128 0x1
 6593 013d 12       		.uleb128 0x12
 6594 013e 06       		.uleb128 0x6
 6595 013f 40       		.uleb128 0x40
 6596 0140 18       		.uleb128 0x18
 6597 0141 9642     		.uleb128 0x2116
 6598 0143 19       		.uleb128 0x19
 6599 0144 01       		.uleb128 0x1
 6600 0145 13       		.uleb128 0x13
 6601 0146 00       		.byte	0
 6602 0147 00       		.byte	0
 6603 0148 14       		.uleb128 0x14
 6604 0149 2E       		.uleb128 0x2e
 6605 014a 01       		.byte	0x1
 6606 014b 3F       		.uleb128 0x3f
 6607 014c 19       		.uleb128 0x19
 6608 014d 03       		.uleb128 0x3
 6609 014e 0E       		.uleb128 0xe
 6610 014f 3A       		.uleb128 0x3a
 6611 0150 0B       		.uleb128 0xb
 6612 0151 3B       		.uleb128 0x3b
 6613 0152 05       		.uleb128 0x5
 6614 0153 27       		.uleb128 0x27
 6615 0154 19       		.uleb128 0x19
 6616 0155 11       		.uleb128 0x11
 6617 0156 01       		.uleb128 0x1
 6618 0157 12       		.uleb128 0x12
 6619 0158 06       		.uleb128 0x6
 6620 0159 40       		.uleb128 0x40
 6621 015a 18       		.uleb128 0x18
 6622 015b 9742     		.uleb128 0x2117
 6623 015d 19       		.uleb128 0x19
 6624 015e 01       		.uleb128 0x1
 6625 015f 13       		.uleb128 0x13
 6626 0160 00       		.byte	0
 6627 0161 00       		.byte	0
ARM GAS  C:\Users\Rolando\AppData\Local\Temp\ccmqTZg9.s 			page 165


 6628 0162 15       		.uleb128 0x15
 6629 0163 2E       		.uleb128 0x2e
 6630 0164 01       		.byte	0x1
 6631 0165 03       		.uleb128 0x3
 6632 0166 0E       		.uleb128 0xe
 6633 0167 3A       		.uleb128 0x3a
 6634 0168 0B       		.uleb128 0xb
 6635 0169 3B       		.uleb128 0x3b
 6636 016a 05       		.uleb128 0x5
 6637 016b 27       		.uleb128 0x27
 6638 016c 19       		.uleb128 0x19
 6639 016d 11       		.uleb128 0x11
 6640 016e 01       		.uleb128 0x1
 6641 016f 12       		.uleb128 0x12
 6642 0170 06       		.uleb128 0x6
 6643 0171 40       		.uleb128 0x40
 6644 0172 18       		.uleb128 0x18
 6645 0173 9742     		.uleb128 0x2117
 6646 0175 19       		.uleb128 0x19
 6647 0176 01       		.uleb128 0x1
 6648 0177 13       		.uleb128 0x13
 6649 0178 00       		.byte	0
 6650 0179 00       		.byte	0
 6651 017a 16       		.uleb128 0x16
 6652 017b 2E       		.uleb128 0x2e
 6653 017c 01       		.byte	0x1
 6654 017d 3F       		.uleb128 0x3f
 6655 017e 19       		.uleb128 0x19
 6656 017f 03       		.uleb128 0x3
 6657 0180 0E       		.uleb128 0xe
 6658 0181 3A       		.uleb128 0x3a
 6659 0182 0B       		.uleb128 0xb
 6660 0183 3B       		.uleb128 0x3b
 6661 0184 05       		.uleb128 0x5
 6662 0185 27       		.uleb128 0x27
 6663 0186 19       		.uleb128 0x19
 6664 0187 49       		.uleb128 0x49
 6665 0188 13       		.uleb128 0x13
 6666 0189 11       		.uleb128 0x11
 6667 018a 01       		.uleb128 0x1
 6668 018b 12       		.uleb128 0x12
 6669 018c 06       		.uleb128 0x6
 6670 018d 40       		.uleb128 0x40
 6671 018e 18       		.uleb128 0x18
 6672 018f 9742     		.uleb128 0x2117
 6673 0191 19       		.uleb128 0x19
 6674 0192 01       		.uleb128 0x1
 6675 0193 13       		.uleb128 0x13
 6676 0194 00       		.byte	0
 6677 0195 00       		.byte	0
 6678 0196 17       		.uleb128 0x17
 6679 0197 34       		.uleb128 0x34
 6680 0198 00       		.byte	0
 6681 0199 03       		.uleb128 0x3
 6682 019a 08       		.uleb128 0x8
 6683 019b 3A       		.uleb128 0x3a
 6684 019c 0B       		.uleb128 0xb
ARM GAS  C:\Users\Rolando\AppData\Local\Temp\ccmqTZg9.s 			page 166


 6685 019d 3B       		.uleb128 0x3b
 6686 019e 05       		.uleb128 0x5
 6687 019f 49       		.uleb128 0x49
 6688 01a0 13       		.uleb128 0x13
 6689 01a1 02       		.uleb128 0x2
 6690 01a2 18       		.uleb128 0x18
 6691 01a3 00       		.byte	0
 6692 01a4 00       		.byte	0
 6693 01a5 18       		.uleb128 0x18
 6694 01a6 2E       		.uleb128 0x2e
 6695 01a7 00       		.byte	0
 6696 01a8 3F       		.uleb128 0x3f
 6697 01a9 19       		.uleb128 0x19
 6698 01aa 03       		.uleb128 0x3
 6699 01ab 0E       		.uleb128 0xe
 6700 01ac 3A       		.uleb128 0x3a
 6701 01ad 0B       		.uleb128 0xb
 6702 01ae 3B       		.uleb128 0x3b
 6703 01af 05       		.uleb128 0x5
 6704 01b0 27       		.uleb128 0x27
 6705 01b1 19       		.uleb128 0x19
 6706 01b2 49       		.uleb128 0x49
 6707 01b3 13       		.uleb128 0x13
 6708 01b4 11       		.uleb128 0x11
 6709 01b5 01       		.uleb128 0x1
 6710 01b6 12       		.uleb128 0x12
 6711 01b7 06       		.uleb128 0x6
 6712 01b8 40       		.uleb128 0x40
 6713 01b9 18       		.uleb128 0x18
 6714 01ba 9742     		.uleb128 0x2117
 6715 01bc 19       		.uleb128 0x19
 6716 01bd 00       		.byte	0
 6717 01be 00       		.byte	0
 6718 01bf 19       		.uleb128 0x19
 6719 01c0 2E       		.uleb128 0x2e
 6720 01c1 01       		.byte	0x1
 6721 01c2 3F       		.uleb128 0x3f
 6722 01c3 19       		.uleb128 0x19
 6723 01c4 03       		.uleb128 0x3
 6724 01c5 0E       		.uleb128 0xe
 6725 01c6 3A       		.uleb128 0x3a
 6726 01c7 0B       		.uleb128 0xb
 6727 01c8 3B       		.uleb128 0x3b
 6728 01c9 05       		.uleb128 0x5
 6729 01ca 27       		.uleb128 0x27
 6730 01cb 19       		.uleb128 0x19
 6731 01cc 49       		.uleb128 0x49
 6732 01cd 13       		.uleb128 0x13
 6733 01ce 11       		.uleb128 0x11
 6734 01cf 01       		.uleb128 0x1
 6735 01d0 12       		.uleb128 0x12
 6736 01d1 06       		.uleb128 0x6
 6737 01d2 40       		.uleb128 0x40
 6738 01d3 18       		.uleb128 0x18
 6739 01d4 9642     		.uleb128 0x2116
 6740 01d6 19       		.uleb128 0x19
 6741 01d7 01       		.uleb128 0x1
ARM GAS  C:\Users\Rolando\AppData\Local\Temp\ccmqTZg9.s 			page 167


 6742 01d8 13       		.uleb128 0x13
 6743 01d9 00       		.byte	0
 6744 01da 00       		.byte	0
 6745 01db 1A       		.uleb128 0x1a
 6746 01dc 2E       		.uleb128 0x2e
 6747 01dd 00       		.byte	0
 6748 01de 3F       		.uleb128 0x3f
 6749 01df 19       		.uleb128 0x19
 6750 01e0 03       		.uleb128 0x3
 6751 01e1 0E       		.uleb128 0xe
 6752 01e2 3A       		.uleb128 0x3a
 6753 01e3 0B       		.uleb128 0xb
 6754 01e4 3B       		.uleb128 0x3b
 6755 01e5 05       		.uleb128 0x5
 6756 01e6 27       		.uleb128 0x27
 6757 01e7 19       		.uleb128 0x19
 6758 01e8 11       		.uleb128 0x11
 6759 01e9 01       		.uleb128 0x1
 6760 01ea 12       		.uleb128 0x12
 6761 01eb 06       		.uleb128 0x6
 6762 01ec 40       		.uleb128 0x40
 6763 01ed 18       		.uleb128 0x18
 6764 01ee 9642     		.uleb128 0x2116
 6765 01f0 19       		.uleb128 0x19
 6766 01f1 00       		.byte	0
 6767 01f2 00       		.byte	0
 6768 01f3 1B       		.uleb128 0x1b
 6769 01f4 34       		.uleb128 0x34
 6770 01f5 00       		.byte	0
 6771 01f6 03       		.uleb128 0x3
 6772 01f7 0E       		.uleb128 0xe
 6773 01f8 3A       		.uleb128 0x3a
 6774 01f9 0B       		.uleb128 0xb
 6775 01fa 3B       		.uleb128 0x3b
 6776 01fb 0B       		.uleb128 0xb
 6777 01fc 49       		.uleb128 0x49
 6778 01fd 13       		.uleb128 0x13
 6779 01fe 3F       		.uleb128 0x3f
 6780 01ff 19       		.uleb128 0x19
 6781 0200 02       		.uleb128 0x2
 6782 0201 18       		.uleb128 0x18
 6783 0202 00       		.byte	0
 6784 0203 00       		.byte	0
 6785 0204 00       		.byte	0
 6786              		.section	.debug_aranges,"",%progbits
 6787 0000 1C020000 		.4byte	0x21c
 6788 0004 0200     		.2byte	0x2
 6789 0006 00000000 		.4byte	.Ldebug_info0
 6790 000a 04       		.byte	0x4
 6791 000b 00       		.byte	0
 6792 000c 0000     		.2byte	0
 6793 000e 0000     		.2byte	0
 6794 0010 00000000 		.4byte	.LFB0
 6795 0014 B0000000 		.4byte	.LFE0-.LFB0
 6796 0018 00000000 		.4byte	.LFB1
 6797 001c 20000000 		.4byte	.LFE1-.LFB1
 6798 0020 00000000 		.4byte	.LFB2
ARM GAS  C:\Users\Rolando\AppData\Local\Temp\ccmqTZg9.s 			page 168


 6799 0024 90000000 		.4byte	.LFE2-.LFB2
 6800 0028 00000000 		.4byte	.LFB3
 6801 002c 54000000 		.4byte	.LFE3-.LFB3
 6802 0030 00000000 		.4byte	.LFB4
 6803 0034 94000000 		.4byte	.LFE4-.LFB4
 6804 0038 00000000 		.4byte	.LFB5
 6805 003c 34000000 		.4byte	.LFE5-.LFB5
 6806 0040 00000000 		.4byte	.LFB6
 6807 0044 60000000 		.4byte	.LFE6-.LFB6
 6808 0048 00000000 		.4byte	.LFB7
 6809 004c 08010000 		.4byte	.LFE7-.LFB7
 6810 0050 00000000 		.4byte	.LFB8
 6811 0054 AC010000 		.4byte	.LFE8-.LFB8
 6812 0058 00000000 		.4byte	.LFB9
 6813 005c 8C000000 		.4byte	.LFE9-.LFB9
 6814 0060 00000000 		.4byte	.LFB10
 6815 0064 20000000 		.4byte	.LFE10-.LFB10
 6816 0068 00000000 		.4byte	.LFB11
 6817 006c 20000000 		.4byte	.LFE11-.LFB11
 6818 0070 00000000 		.4byte	.LFB12
 6819 0074 34000000 		.4byte	.LFE12-.LFB12
 6820 0078 00000000 		.4byte	.LFB13
 6821 007c 20000000 		.4byte	.LFE13-.LFB13
 6822 0080 00000000 		.4byte	.LFB14
 6823 0084 78000000 		.4byte	.LFE14-.LFB14
 6824 0088 00000000 		.4byte	.LFB15
 6825 008c B4000000 		.4byte	.LFE15-.LFB15
 6826 0090 00000000 		.4byte	.LFB16
 6827 0094 34000000 		.4byte	.LFE16-.LFB16
 6828 0098 00000000 		.4byte	.LFB17
 6829 009c 20000000 		.4byte	.LFE17-.LFB17
 6830 00a0 00000000 		.4byte	.LFB18
 6831 00a4 20000000 		.4byte	.LFE18-.LFB18
 6832 00a8 00000000 		.4byte	.LFB19
 6833 00ac 20000000 		.4byte	.LFE19-.LFB19
 6834 00b0 00000000 		.4byte	.LFB20
 6835 00b4 20000000 		.4byte	.LFE20-.LFB20
 6836 00b8 00000000 		.4byte	.LFB21
 6837 00bc 20000000 		.4byte	.LFE21-.LFB21
 6838 00c0 00000000 		.4byte	.LFB22
 6839 00c4 20000000 		.4byte	.LFE22-.LFB22
 6840 00c8 00000000 		.4byte	.LFB23
 6841 00cc 38000000 		.4byte	.LFE23-.LFB23
 6842 00d0 00000000 		.4byte	.LFB24
 6843 00d4 4C000000 		.4byte	.LFE24-.LFB24
 6844 00d8 00000000 		.4byte	.LFB25
 6845 00dc 84000000 		.4byte	.LFE25-.LFB25
 6846 00e0 00000000 		.4byte	.LFB26
 6847 00e4 50000000 		.4byte	.LFE26-.LFB26
 6848 00e8 00000000 		.4byte	.LFB27
 6849 00ec 20000000 		.4byte	.LFE27-.LFB27
 6850 00f0 00000000 		.4byte	.LFB28
 6851 00f4 B4000000 		.4byte	.LFE28-.LFB28
 6852 00f8 00000000 		.4byte	.LFB29
 6853 00fc D0000000 		.4byte	.LFE29-.LFB29
 6854 0100 00000000 		.4byte	.LFB30
 6855 0104 20000000 		.4byte	.LFE30-.LFB30
ARM GAS  C:\Users\Rolando\AppData\Local\Temp\ccmqTZg9.s 			page 169


 6856 0108 00000000 		.4byte	.LFB31
 6857 010c 20000000 		.4byte	.LFE31-.LFB31
 6858 0110 00000000 		.4byte	.LFB32
 6859 0114 20000000 		.4byte	.LFE32-.LFB32
 6860 0118 00000000 		.4byte	.LFB33
 6861 011c 28000000 		.4byte	.LFE33-.LFB33
 6862 0120 00000000 		.4byte	.LFB34
 6863 0124 20000000 		.4byte	.LFE34-.LFB34
 6864 0128 00000000 		.4byte	.LFB35
 6865 012c 20000000 		.4byte	.LFE35-.LFB35
 6866 0130 00000000 		.4byte	.LFB36
 6867 0134 34000000 		.4byte	.LFE36-.LFB36
 6868 0138 00000000 		.4byte	.LFB37
 6869 013c 34000000 		.4byte	.LFE37-.LFB37
 6870 0140 00000000 		.4byte	.LFB38
 6871 0144 38000000 		.4byte	.LFE38-.LFB38
 6872 0148 00000000 		.4byte	.LFB39
 6873 014c 16000000 		.4byte	.LFE39-.LFB39
 6874 0150 00000000 		.4byte	.LFB40
 6875 0154 20000000 		.4byte	.LFE40-.LFB40
 6876 0158 00000000 		.4byte	.LFB41
 6877 015c 44000000 		.4byte	.LFE41-.LFB41
 6878 0160 00000000 		.4byte	.LFB42
 6879 0164 24000000 		.4byte	.LFE42-.LFB42
 6880 0168 00000000 		.4byte	.LFB43
 6881 016c 7C000000 		.4byte	.LFE43-.LFB43
 6882 0170 00000000 		.4byte	.LFB44
 6883 0174 8C000000 		.4byte	.LFE44-.LFB44
 6884 0178 00000000 		.4byte	.LFB45
 6885 017c 18000000 		.4byte	.LFE45-.LFB45
 6886 0180 00000000 		.4byte	.LFB46
 6887 0184 B4000000 		.4byte	.LFE46-.LFB46
 6888 0188 00000000 		.4byte	.LFB47
 6889 018c B0000000 		.4byte	.LFE47-.LFB47
 6890 0190 00000000 		.4byte	.LFB48
 6891 0194 48000000 		.4byte	.LFE48-.LFB48
 6892 0198 00000000 		.4byte	.LFB49
 6893 019c 48000000 		.4byte	.LFE49-.LFB49
 6894 01a0 00000000 		.4byte	.LFB50
 6895 01a4 5C000000 		.4byte	.LFE50-.LFB50
 6896 01a8 00000000 		.4byte	.LFB51
 6897 01ac 20000000 		.4byte	.LFE51-.LFB51
 6898 01b0 00000000 		.4byte	.LFB52
 6899 01b4 38000000 		.4byte	.LFE52-.LFB52
 6900 01b8 00000000 		.4byte	.LFB53
 6901 01bc 2C000000 		.4byte	.LFE53-.LFB53
 6902 01c0 00000000 		.4byte	.LFB54
 6903 01c4 34000000 		.4byte	.LFE54-.LFB54
 6904 01c8 00000000 		.4byte	.LFB55
 6905 01cc 28000000 		.4byte	.LFE55-.LFB55
 6906 01d0 00000000 		.4byte	.LFB56
 6907 01d4 70000000 		.4byte	.LFE56-.LFB56
 6908 01d8 00000000 		.4byte	.LFB57
 6909 01dc 4C000000 		.4byte	.LFE57-.LFB57
 6910 01e0 00000000 		.4byte	.LFB58
 6911 01e4 38000000 		.4byte	.LFE58-.LFB58
 6912 01e8 00000000 		.4byte	.LFB59
ARM GAS  C:\Users\Rolando\AppData\Local\Temp\ccmqTZg9.s 			page 170


 6913 01ec 50000000 		.4byte	.LFE59-.LFB59
 6914 01f0 00000000 		.4byte	.LFB60
 6915 01f4 38000000 		.4byte	.LFE60-.LFB60
 6916 01f8 00000000 		.4byte	.LFB61
 6917 01fc 44000000 		.4byte	.LFE61-.LFB61
 6918 0200 00000000 		.4byte	.LFB62
 6919 0204 36000000 		.4byte	.LFE62-.LFB62
 6920 0208 00000000 		.4byte	.LFB63
 6921 020c 44000000 		.4byte	.LFE63-.LFB63
 6922 0210 00000000 		.4byte	.LFB64
 6923 0214 B0010000 		.4byte	.LFE64-.LFB64
 6924 0218 00000000 		.4byte	0
 6925 021c 00000000 		.4byte	0
 6926              		.section	.debug_ranges,"",%progbits
 6927              	.Ldebug_ranges0:
 6928 0000 00000000 		.4byte	.LFB0
 6929 0004 B0000000 		.4byte	.LFE0
 6930 0008 00000000 		.4byte	.LFB1
 6931 000c 20000000 		.4byte	.LFE1
 6932 0010 00000000 		.4byte	.LFB2
 6933 0014 90000000 		.4byte	.LFE2
 6934 0018 00000000 		.4byte	.LFB3
 6935 001c 54000000 		.4byte	.LFE3
 6936 0020 00000000 		.4byte	.LFB4
 6937 0024 94000000 		.4byte	.LFE4
 6938 0028 00000000 		.4byte	.LFB5
 6939 002c 34000000 		.4byte	.LFE5
 6940 0030 00000000 		.4byte	.LFB6
 6941 0034 60000000 		.4byte	.LFE6
 6942 0038 00000000 		.4byte	.LFB7
 6943 003c 08010000 		.4byte	.LFE7
 6944 0040 00000000 		.4byte	.LFB8
 6945 0044 AC010000 		.4byte	.LFE8
 6946 0048 00000000 		.4byte	.LFB9
 6947 004c 8C000000 		.4byte	.LFE9
 6948 0050 00000000 		.4byte	.LFB10
 6949 0054 20000000 		.4byte	.LFE10
 6950 0058 00000000 		.4byte	.LFB11
 6951 005c 20000000 		.4byte	.LFE11
 6952 0060 00000000 		.4byte	.LFB12
 6953 0064 34000000 		.4byte	.LFE12
 6954 0068 00000000 		.4byte	.LFB13
 6955 006c 20000000 		.4byte	.LFE13
 6956 0070 00000000 		.4byte	.LFB14
 6957 0074 78000000 		.4byte	.LFE14
 6958 0078 00000000 		.4byte	.LFB15
 6959 007c B4000000 		.4byte	.LFE15
 6960 0080 00000000 		.4byte	.LFB16
 6961 0084 34000000 		.4byte	.LFE16
 6962 0088 00000000 		.4byte	.LFB17
 6963 008c 20000000 		.4byte	.LFE17
 6964 0090 00000000 		.4byte	.LFB18
 6965 0094 20000000 		.4byte	.LFE18
 6966 0098 00000000 		.4byte	.LFB19
 6967 009c 20000000 		.4byte	.LFE19
 6968 00a0 00000000 		.4byte	.LFB20
 6969 00a4 20000000 		.4byte	.LFE20
ARM GAS  C:\Users\Rolando\AppData\Local\Temp\ccmqTZg9.s 			page 171


 6970 00a8 00000000 		.4byte	.LFB21
 6971 00ac 20000000 		.4byte	.LFE21
 6972 00b0 00000000 		.4byte	.LFB22
 6973 00b4 20000000 		.4byte	.LFE22
 6974 00b8 00000000 		.4byte	.LFB23
 6975 00bc 38000000 		.4byte	.LFE23
 6976 00c0 00000000 		.4byte	.LFB24
 6977 00c4 4C000000 		.4byte	.LFE24
 6978 00c8 00000000 		.4byte	.LFB25
 6979 00cc 84000000 		.4byte	.LFE25
 6980 00d0 00000000 		.4byte	.LFB26
 6981 00d4 50000000 		.4byte	.LFE26
 6982 00d8 00000000 		.4byte	.LFB27
 6983 00dc 20000000 		.4byte	.LFE27
 6984 00e0 00000000 		.4byte	.LFB28
 6985 00e4 B4000000 		.4byte	.LFE28
 6986 00e8 00000000 		.4byte	.LFB29
 6987 00ec D0000000 		.4byte	.LFE29
 6988 00f0 00000000 		.4byte	.LFB30
 6989 00f4 20000000 		.4byte	.LFE30
 6990 00f8 00000000 		.4byte	.LFB31
 6991 00fc 20000000 		.4byte	.LFE31
 6992 0100 00000000 		.4byte	.LFB32
 6993 0104 20000000 		.4byte	.LFE32
 6994 0108 00000000 		.4byte	.LFB33
 6995 010c 28000000 		.4byte	.LFE33
 6996 0110 00000000 		.4byte	.LFB34
 6997 0114 20000000 		.4byte	.LFE34
 6998 0118 00000000 		.4byte	.LFB35
 6999 011c 20000000 		.4byte	.LFE35
 7000 0120 00000000 		.4byte	.LFB36
 7001 0124 34000000 		.4byte	.LFE36
 7002 0128 00000000 		.4byte	.LFB37
 7003 012c 34000000 		.4byte	.LFE37
 7004 0130 00000000 		.4byte	.LFB38
 7005 0134 38000000 		.4byte	.LFE38
 7006 0138 00000000 		.4byte	.LFB39
 7007 013c 16000000 		.4byte	.LFE39
 7008 0140 00000000 		.4byte	.LFB40
 7009 0144 20000000 		.4byte	.LFE40
 7010 0148 00000000 		.4byte	.LFB41
 7011 014c 44000000 		.4byte	.LFE41
 7012 0150 00000000 		.4byte	.LFB42
 7013 0154 24000000 		.4byte	.LFE42
 7014 0158 00000000 		.4byte	.LFB43
 7015 015c 7C000000 		.4byte	.LFE43
 7016 0160 00000000 		.4byte	.LFB44
 7017 0164 8C000000 		.4byte	.LFE44
 7018 0168 00000000 		.4byte	.LFB45
 7019 016c 18000000 		.4byte	.LFE45
 7020 0170 00000000 		.4byte	.LFB46
 7021 0174 B4000000 		.4byte	.LFE46
 7022 0178 00000000 		.4byte	.LFB47
 7023 017c B0000000 		.4byte	.LFE47
 7024 0180 00000000 		.4byte	.LFB48
 7025 0184 48000000 		.4byte	.LFE48
 7026 0188 00000000 		.4byte	.LFB49
ARM GAS  C:\Users\Rolando\AppData\Local\Temp\ccmqTZg9.s 			page 172


 7027 018c 48000000 		.4byte	.LFE49
 7028 0190 00000000 		.4byte	.LFB50
 7029 0194 5C000000 		.4byte	.LFE50
 7030 0198 00000000 		.4byte	.LFB51
 7031 019c 20000000 		.4byte	.LFE51
 7032 01a0 00000000 		.4byte	.LFB52
 7033 01a4 38000000 		.4byte	.LFE52
 7034 01a8 00000000 		.4byte	.LFB53
 7035 01ac 2C000000 		.4byte	.LFE53
 7036 01b0 00000000 		.4byte	.LFB54
 7037 01b4 34000000 		.4byte	.LFE54
 7038 01b8 00000000 		.4byte	.LFB55
 7039 01bc 28000000 		.4byte	.LFE55
 7040 01c0 00000000 		.4byte	.LFB56
 7041 01c4 70000000 		.4byte	.LFE56
 7042 01c8 00000000 		.4byte	.LFB57
 7043 01cc 4C000000 		.4byte	.LFE57
 7044 01d0 00000000 		.4byte	.LFB58
 7045 01d4 38000000 		.4byte	.LFE58
 7046 01d8 00000000 		.4byte	.LFB59
 7047 01dc 50000000 		.4byte	.LFE59
 7048 01e0 00000000 		.4byte	.LFB60
 7049 01e4 38000000 		.4byte	.LFE60
 7050 01e8 00000000 		.4byte	.LFB61
 7051 01ec 44000000 		.4byte	.LFE61
 7052 01f0 00000000 		.4byte	.LFB62
 7053 01f4 36000000 		.4byte	.LFE62
 7054 01f8 00000000 		.4byte	.LFB63
 7055 01fc 44000000 		.4byte	.LFE63
 7056 0200 00000000 		.4byte	.LFB64
 7057 0204 B0010000 		.4byte	.LFE64
 7058 0208 00000000 		.4byte	0
 7059 020c 00000000 		.4byte	0
 7060              		.section	.debug_line,"",%progbits
 7061              	.Ldebug_line0:
 7062 0000 32070000 		.section	.debug_str,"MS",%progbits,1
 7062      02004400 
 7062      00000201 
 7062      FB0E0D00 
 7062      01010101 
 7063              	.LASF119:
 7064 0000 72616D56 		.ascii	"ramVectorTable\000"
 7064      6563746F 
 7064      72546162 
 7064      6C6500
 7065              	.LASF73:
 7066 000f 636F756E 		.ascii	"count\000"
 7066      7400
 7067              	.LASF12:
 7068 0015 75696E74 		.ascii	"uint16\000"
 7068      313600
 7069              	.LASF49:
 7070 001c 64697669 		.ascii	"divider\000"
 7070      64657200 
 7071              	.LASF35:
 7072 0024 696C6F31 		.ascii	"ilo100KhzEnable\000"
 7072      30304B68 
ARM GAS  C:\Users\Rolando\AppData\Local\Temp\ccmqTZg9.s 			page 173


 7072      7A456E61 
 7072      626C6500 
 7073              	.LASF78:
 7074 0034 43795854 		.ascii	"CyXTAL_DisableErrStatus\000"
 7074      414C5F44 
 7074      69736162 
 7074      6C654572 
 7074      72537461 
 7075              	.LASF32:
 7076 004c 4379494D 		.ascii	"CyIMO_Start\000"
 7076      4F5F5374 
 7076      61727400 
 7077              	.LASF60:
 7078 0058 4379494C 		.ascii	"CyILO_Stop100K\000"
 7078      4F5F5374 
 7078      6F703130 
 7078      304B00
 7079              	.LASF118:
 7080 0067 6F6C6449 		.ascii	"oldIsr\000"
 7080      737200
 7081              	.LASF45:
 7082 006e 4379494D 		.ascii	"CyIMO_EnableDoubler\000"
 7082      4F5F456E 
 7082      61626C65 
 7082      446F7562 
 7082      6C657200 
 7083              	.LASF111:
 7084 0082 43794469 		.ascii	"CyDisableInts\000"
 7084      7361626C 
 7084      65496E74 
 7084      7300
 7085              	.LASF51:
 7086 0090 43794275 		.ascii	"CyBusClk_Internal_SetDivider\000"
 7086      73436C6B 
 7086      5F496E74 
 7086      65726E61 
 7086      6C5F5365 
 7087              	.LASF68:
 7088 00ad 43795854 		.ascii	"CyXTAL_32KHZ_Start\000"
 7088      414C5F33 
 7088      324B485A 
 7088      5F537461 
 7088      727400
 7089              	.LASF8:
 7090 00c0 6C6F6E67 		.ascii	"long long unsigned int\000"
 7090      206C6F6E 
 7090      6720756E 
 7090      7369676E 
 7090      65642069 
 7091              	.LASF23:
 7092 00d7 706D5477 		.ascii	"pmTwCfg0State\000"
 7092      43666730 
 7092      53746174 
 7092      6500
 7093              	.LASF89:
 7094 00e5 4379536F 		.ascii	"CySoftwareReset\000"
 7094      66747761 
ARM GAS  C:\Users\Rolando\AppData\Local\Temp\ccmqTZg9.s 			page 174


 7094      72655265 
 7094      73657400 
 7095              	.LASF134:
 7096 00f5 63796465 		.ascii	"cydelay_freq_mhz\000"
 7096      6C61795F 
 7096      66726571 
 7096      5F6D687A 
 7096      00
 7097              	.LASF126:
 7098 0106 4379496E 		.ascii	"CyIntGetState\000"
 7098      74476574 
 7098      53746174 
 7098      6500
 7099              	.LASF74:
 7100 0114 706D5477 		.ascii	"pmTwCfg0Tmp\000"
 7100      43666730 
 7100      546D7000 
 7101              	.LASF7:
 7102 0120 6C6F6E67 		.ascii	"long long int\000"
 7102      206C6F6E 
 7102      6720696E 
 7102      7400
 7103              	.LASF1:
 7104 012e 7369676E 		.ascii	"signed char\000"
 7104      65642063 
 7104      68617200 
 7105              	.LASF39:
 7106 013a 66726571 		.ascii	"freq\000"
 7106      00
 7107              	.LASF94:
 7108 013f 43794465 		.ascii	"CyDelayFreq\000"
 7108      6C617946 
 7108      72657100 
 7109              	.LASF55:
 7110 014b 696E7465 		.ascii	"interruptState\000"
 7110      72727570 
 7110      74537461 
 7110      746500
 7111              	.LASF131:
 7112 015a 43795363 		.ascii	"CyScPumpEnabled\000"
 7112      50756D70 
 7112      456E6162 
 7112      6C656400 
 7113              	.LASF57:
 7114 016a 4379494C 		.ascii	"CyILO_Start1K\000"
 7114      4F5F5374 
 7114      61727431 
 7114      4B00
 7115              	.LASF25:
 7116 0178 77616974 		.ascii	"wait\000"
 7116      00
 7117              	.LASF67:
 7118 017d 73746174 		.ascii	"state\000"
 7118      6500
 7119              	.LASF5:
 7120 0183 6C6F6E67 		.ascii	"long int\000"
 7120      20696E74 
ARM GAS  C:\Users\Rolando\AppData\Local\Temp\ccmqTZg9.s 			page 175


 7120      00
 7121              	.LASF30:
 7122 018c 4379504C 		.ascii	"CyPLL_OUT_SetSource\000"
 7122      4C5F4F55 
 7122      545F5365 
 7122      74536F75 
 7122      72636500 
 7123              	.LASF18:
 7124 01a0 72656731 		.ascii	"reg16\000"
 7124      3600
 7125              	.LASF11:
 7126 01a6 75696E74 		.ascii	"uint8\000"
 7126      3800
 7127              	.LASF92:
 7128 01ac 43794465 		.ascii	"CyDelayUs\000"
 7128      6C617955 
 7128      7300
 7129              	.LASF15:
 7130 01b6 646F7562 		.ascii	"double\000"
 7130      6C6500
 7131              	.LASF58:
 7132 01bd 4379494C 		.ascii	"CyILO_Stop1K\000"
 7132      4F5F5374 
 7132      6F70314B 
 7132      00
 7133              	.LASF98:
 7134 01ca 43795764 		.ascii	"CyWdtClear\000"
 7134      74436C65 
 7134      617200
 7135              	.LASF13:
 7136 01d5 75696E74 		.ascii	"uint32\000"
 7136      333200
 7137              	.LASF108:
 7138 01dc 6D61736B 		.ascii	"mask\000"
 7138      00
 7139              	.LASF138:
 7140 01e1 473A5C44 		.ascii	"G:\\Documentos\\PSoC Creator\\voltageDisplay_SAR_AD"
 7140      6F63756D 
 7140      656E746F 
 7140      735C5053 
 7140      6F432043 
 7141 0211 435C566F 		.ascii	"C\\VoltageDisplay_SAR_ADC.cydsn\000"
 7141      6C746167 
 7141      65446973 
 7141      706C6179 
 7141      5F534152 
 7142              	.LASF125:
 7143 0230 4379496E 		.ascii	"CyIntGetPriority\000"
 7143      74476574 
 7143      5072696F 
 7143      72697479 
 7143      00
 7144              	.LASF120:
 7145 0241 4379496E 		.ascii	"CyIntGetSysVector\000"
 7145      74476574 
 7145      53797356 
 7145      6563746F 
ARM GAS  C:\Users\Rolando\AppData\Local\Temp\ccmqTZg9.s 			page 176


 7145      7200
 7146              	.LASF0:
 7147 0253 756E7369 		.ascii	"unsigned int\000"
 7147      676E6564 
 7147      20696E74 
 7147      00
 7148              	.LASF44:
 7149 0260 4379494D 		.ascii	"CyIMO_SetSource\000"
 7149      4F5F5365 
 7149      74536F75 
 7149      72636500 
 7150              	.LASF54:
 7151 0270 62757343 		.ascii	"busClkDiv\000"
 7151      6C6B4469 
 7151      7600
 7152              	.LASF139:
 7153 027a 43795553 		.ascii	"CyUSB_PowerOnCheck\000"
 7153      425F506F 
 7153      7765724F 
 7153      6E436865 
 7153      636B00
 7154              	.LASF6:
 7155 028d 6C6F6E67 		.ascii	"long unsigned int\000"
 7155      20756E73 
 7155      69676E65 
 7155      6420696E 
 7155      7400
 7156              	.LASF72:
 7157 029f 74696D65 		.ascii	"timeout\000"
 7157      6F757400 
 7158              	.LASF102:
 7159 02a7 43795664 		.ascii	"CyVdLvAnalogEnable\000"
 7159      4C76416E 
 7159      616C6F67 
 7159      456E6162 
 7159      6C6500
 7160              	.LASF107:
 7161 02ba 43795664 		.ascii	"CyVdStickyStatus\000"
 7161      53746963 
 7161      6B795374 
 7161      61747573 
 7161      00
 7162              	.LASF69:
 7163 02cb 43795854 		.ascii	"CyXTAL_32KHZ_Stop\000"
 7163      414C5F33 
 7163      324B485A 
 7163      5F53746F 
 7163      7000
 7164              	.LASF65:
 7165 02dd 4379494C 		.ascii	"CyILO_SetPowerMode\000"
 7165      4F5F5365 
 7165      74506F77 
 7165      65724D6F 
 7165      646500
 7166              	.LASF37:
 7167 02f0 4379494D 		.ascii	"CyIMO_Stop\000"
 7167      4F5F5374 
ARM GAS  C:\Users\Rolando\AppData\Local\Temp\ccmqTZg9.s 			page 177


 7167      6F7000
 7168              	.LASF4:
 7169 02fb 73686F72 		.ascii	"short unsigned int\000"
 7169      7420756E 
 7169      7369676E 
 7169      65642069 
 7169      6E7400
 7170              	.LASF95:
 7171 030e 43795764 		.ascii	"CyWdtStart\000"
 7171      74537461 
 7171      727400
 7172              	.LASF121:
 7173 0319 4379496E 		.ascii	"CyIntSetVector\000"
 7173      74536574 
 7173      56656374 
 7173      6F7200
 7174              	.LASF106:
 7175 0328 43795664 		.ascii	"CyVdHvAnalogDisable\000"
 7175      4876416E 
 7175      616C6F67 
 7175      44697361 
 7175      626C6500 
 7176              	.LASF47:
 7177 033c 43794D61 		.ascii	"CyMasterClk_SetSource\000"
 7177      73746572 
 7177      436C6B5F 
 7177      53657453 
 7177      6F757263 
 7178              	.LASF116:
 7179 0352 6E756D62 		.ascii	"number\000"
 7179      657200
 7180              	.LASF124:
 7181 0359 7072696F 		.ascii	"priority\000"
 7181      72697479 
 7181      00
 7182              	.LASF81:
 7183 0362 43795854 		.ascii	"CyXTAL_EnableFaultRecovery\000"
 7183      414C5F45 
 7183      6E61626C 
 7183      65466175 
 7183      6C745265 
 7184              	.LASF123:
 7185 037d 4379496E 		.ascii	"CyIntSetPriority\000"
 7185      74536574 
 7185      5072696F 
 7185      72697479 
 7185      00
 7186              	.LASF29:
 7187 038e 4379504C 		.ascii	"CyPLL_OUT_SetPQ\000"
 7187      4C5F4F55 
 7187      545F5365 
 7187      74505100 
 7188              	.LASF115:
 7189 039e 4379496E 		.ascii	"CyIntSetSysVector\000"
 7189      74536574 
 7189      53797356 
 7189      6563746F 
ARM GAS  C:\Users\Rolando\AppData\Local\Temp\ccmqTZg9.s 			page 178


 7189      7200
 7190              	.LASF71:
 7191 03b0 43795854 		.ascii	"CyXTAL_Start\000"
 7191      414C5F53 
 7191      74617274 
 7191      00
 7192              	.LASF19:
 7193 03bd 72656733 		.ascii	"reg32\000"
 7193      3200
 7194              	.LASF80:
 7195 03c3 43795854 		.ascii	"CyXTAL_ReadStatus\000"
 7195      414C5F52 
 7195      65616453 
 7195      74617475 
 7195      7300
 7196              	.LASF133:
 7197 03d5 63796465 		.ascii	"cydelay_freq_khz\000"
 7197      6C61795F 
 7197      66726571 
 7197      5F6B687A 
 7197      00
 7198              	.LASF31:
 7199 03e6 736F7572 		.ascii	"source\000"
 7199      636500
 7200              	.LASF9:
 7201 03ed 73697A65 		.ascii	"sizetype\000"
 7201      74797065 
 7201      00
 7202              	.LASF83:
 7203 03f6 43795854 		.ascii	"CyXTAL_SetStartup\000"
 7203      414C5F53 
 7203      65745374 
 7203      61727475 
 7203      7000
 7204              	.LASF96:
 7205 0408 7469636B 		.ascii	"ticks\000"
 7205      7300
 7206              	.LASF46:
 7207 040e 4379494D 		.ascii	"CyIMO_DisableDoubler\000"
 7207      4F5F4469 
 7207      7361626C 
 7207      65446F75 
 7207      626C6572 
 7208              	.LASF117:
 7209 0423 61646472 		.ascii	"address\000"
 7209      65737300 
 7210              	.LASF36:
 7211 042b 4379504C 		.ascii	"CyPLL_OUT_Stop\000"
 7211      4C5F4F55 
 7211      545F5374 
 7211      6F7000
 7212              	.LASF109:
 7213 043a 43795664 		.ascii	"CyVdRealTimeStatus\000"
 7213      5265616C 
 7213      54696D65 
 7213      53746174 
 7213      757300
ARM GAS  C:\Users\Rolando\AppData\Local\Temp\ccmqTZg9.s 			page 179


 7214              	.LASF129:
 7215 044d 656E6162 		.ascii	"enable\000"
 7215      6C6500
 7216              	.LASF59:
 7217 0454 4379494C 		.ascii	"CyILO_Start100K\000"
 7217      4F5F5374 
 7217      61727431 
 7217      30304B00 
 7218              	.LASF40:
 7219 0464 75736250 		.ascii	"usbPowerOn\000"
 7219      6F776572 
 7219      4F6E00
 7220              	.LASF136:
 7221 046f 474E5520 		.ascii	"GNU C 4.9.3 20150303 (release) [ARM/embedded-4_9-br"
 7221      4320342E 
 7221      392E3320 
 7221      32303135 
 7221      30333033 
 7222 04a2 616E6368 		.ascii	"anch revision 221220] -mcpu=cortex-m3 -mthumb -g -O"
 7222      20726576 
 7222      6973696F 
 7222      6E203232 
 7222      31323230 
 7223 04d5 30202D66 		.ascii	"0 -ffunction-sections -ffat-lto-objects\000"
 7223      66756E63 
 7223      74696F6E 
 7223      2D736563 
 7223      74696F6E 
 7224              	.LASF130:
 7225 04fd 43795265 		.ascii	"CyResetStatus\000"
 7225      73657453 
 7225      74617475 
 7225      7300
 7226              	.LASF137:
 7227 050b 2E5C4765 		.ascii	".\\Generated_Source\\PSoC5\\CyLib.c\000"
 7227      6E657261 
 7227      7465645F 
 7227      536F7572 
 7227      63655C50 
 7228              	.LASF100:
 7229 052c 72657365 		.ascii	"reset\000"
 7229      7400
 7230              	.LASF48:
 7231 0532 43794D61 		.ascii	"CyMasterClk_SetDivider\000"
 7231      73746572 
 7231      436C6B5F 
 7231      53657444 
 7231      69766964 
 7232              	.LASF28:
 7233 0549 63757272 		.ascii	"current\000"
 7233      656E7400 
 7234              	.LASF14:
 7235 0551 666C6F61 		.ascii	"float\000"
 7235      7400
 7236              	.LASF70:
 7237 0557 43795854 		.ascii	"CyXTAL_32KHZ_SetPowerMode\000"
 7237      414C5F33 
ARM GAS  C:\Users\Rolando\AppData\Local\Temp\ccmqTZg9.s 			page 180


 7237      324B485A 
 7237      5F536574 
 7237      506F7765 
 7238              	.LASF61:
 7239 0571 4379494C 		.ascii	"CyILO_Enable33K\000"
 7239      4F5F456E 
 7239      61626C65 
 7239      33334B00 
 7240              	.LASF122:
 7241 0581 4379496E 		.ascii	"CyIntGetVector\000"
 7241      74476574 
 7241      56656374 
 7241      6F7200
 7242              	.LASF91:
 7243 0590 6D696C6C 		.ascii	"milliseconds\000"
 7243      69736563 
 7243      6F6E6473 
 7243      00
 7244              	.LASF62:
 7245 059d 4379494C 		.ascii	"CyILO_Disable33K\000"
 7245      4F5F4469 
 7245      7361626C 
 7245      6533334B 
 7245      00
 7246              	.LASF132:
 7247 05ae 63796465 		.ascii	"cydelay_freq_hz\000"
 7247      6C61795F 
 7247      66726571 
 7247      5F687A00 
 7248              	.LASF53:
 7249 05be 6D617374 		.ascii	"masterClkDiv\000"
 7249      6572436C 
 7249      6B446976 
 7249      00
 7250              	.LASF17:
 7251 05cb 72656738 		.ascii	"reg8\000"
 7251      00
 7252              	.LASF101:
 7253 05d0 74687265 		.ascii	"threshold\000"
 7253      73686F6C 
 7253      6400
 7254              	.LASF87:
 7255 05da 43794861 		.ascii	"CyHalt\000"
 7255      6C7400
 7256              	.LASF86:
 7257 05e1 43795854 		.ascii	"CyXTAL_SetWdVoltage\000"
 7257      414C5F53 
 7257      65745764 
 7257      566F6C74 
 7257      61676500 
 7258              	.LASF2:
 7259 05f5 756E7369 		.ascii	"unsigned char\000"
 7259      676E6564 
 7259      20636861 
 7259      7200
 7260              	.LASF24:
 7261 0603 706D5477 		.ascii	"pmTwCfg2State\000"
ARM GAS  C:\Users\Rolando\AppData\Local\Temp\ccmqTZg9.s 			page 181


 7261      43666732 
 7261      53746174 
 7261      6500
 7262              	.LASF3:
 7263 0611 73686F72 		.ascii	"short int\000"
 7263      7420696E 
 7263      7400
 7264              	.LASF22:
 7265 061b 696C6F45 		.ascii	"iloEnableState\000"
 7265      6E61626C 
 7265      65537461 
 7265      746500
 7266              	.LASF77:
 7267 062a 43795854 		.ascii	"CyXTAL_EnableErrStatus\000"
 7267      414C5F45 
 7267      6E61626C 
 7267      65457272 
 7267      53746174 
 7268              	.LASF114:
 7269 0641 4379466C 		.ascii	"CyFlushCache\000"
 7269      75736843 
 7269      61636865 
 7269      00
 7270              	.LASF127:
 7271 064e 73746174 		.ascii	"stateReg\000"
 7271      65526567 
 7271      00
 7272              	.LASF38:
 7273 0657 706F7765 		.ascii	"poweredOn\000"
 7273      7265644F 
 7273      6E00
 7274              	.LASF82:
 7275 0661 43795854 		.ascii	"CyXTAL_DisableFaultRecovery\000"
 7275      414C5F44 
 7275      69736162 
 7275      6C654661 
 7275      756C7452 
 7276              	.LASF88:
 7277 067d 72656173 		.ascii	"reason\000"
 7277      6F6E00
 7278              	.LASF85:
 7279 0684 43795854 		.ascii	"CyXTAL_SetFbVoltage\000"
 7279      414C5F53 
 7279      65744662 
 7279      566F6C74 
 7279      61676500 
 7280              	.LASF112:
 7281 0698 696E7453 		.ascii	"intState\000"
 7281      74617465 
 7281      00
 7282              	.LASF33:
 7283 06a1 706D4674 		.ascii	"pmFtwCfg2Reg\000"
 7283      77436667 
 7283      32526567 
 7283      00
 7284              	.LASF43:
 7285 06ae 6E657874 		.ascii	"nextFreq\000"
ARM GAS  C:\Users\Rolando\AppData\Local\Temp\ccmqTZg9.s 			page 182


 7285      46726571 
 7285      00
 7286              	.LASF97:
 7287 06b7 6C704D6F 		.ascii	"lpMode\000"
 7287      646500
 7288              	.LASF10:
 7289 06be 63686172 		.ascii	"char\000"
 7289      00
 7290              	.LASF66:
 7291 06c3 6D6F6465 		.ascii	"mode\000"
 7291      00
 7292              	.LASF20:
 7293 06c8 63796973 		.ascii	"cyisraddress\000"
 7293      72616464 
 7293      72657373 
 7293      00
 7294              	.LASF64:
 7295 06d5 4379504C 		.ascii	"CyPLL_OUT_Start\000"
 7295      4C5F4F55 
 7295      545F5374 
 7295      61727400 
 7296              	.LASF103:
 7297 06e5 43795664 		.ascii	"CyVdLvDigitDisable\000"
 7297      4C764469 
 7297      67697444 
 7297      69736162 
 7297      6C6500
 7298              	.LASF104:
 7299 06f8 43795664 		.ascii	"CyVdLvAnalogDisable\000"
 7299      4C76416E 
 7299      616C6F67 
 7299      44697361 
 7299      626C6500 
 7300              	.LASF27:
 7301 070c 71446976 		.ascii	"qDiv\000"
 7301      00
 7302              	.LASF113:
 7303 0711 4379456E 		.ascii	"CyEnableInts\000"
 7303      61626C65 
 7303      496E7473 
 7303      00
 7304              	.LASF56:
 7305 071e 43795573 		.ascii	"CyUsbClk_SetSource\000"
 7305      62436C6B 
 7305      5F536574 
 7305      536F7572 
 7305      636500
 7306              	.LASF42:
 7307 0731 63757272 		.ascii	"currentFreq\000"
 7307      656E7446 
 7307      72657100 
 7308              	.LASF90:
 7309 073d 43794465 		.ascii	"CyDelay\000"
 7309      6C617900 
 7310              	.LASF52:
 7311 0745 43794275 		.ascii	"CyBusClk_SetDivider\000"
 7311      73436C6B 
ARM GAS  C:\Users\Rolando\AppData\Local\Temp\ccmqTZg9.s 			page 183


 7311      5F536574 
 7311      44697669 
 7311      64657200 
 7312              	.LASF135:
 7313 0759 63796465 		.ascii	"cydelay_32k_ms\000"
 7313      6C61795F 
 7313      33326B5F 
 7313      6D7300
 7314              	.LASF110:
 7315 0768 7664466C 		.ascii	"vdFlagsState\000"
 7315      61677353 
 7315      74617465 
 7315      00
 7316              	.LASF21:
 7317 0775 73746174 		.ascii	"status\000"
 7317      757300
 7318              	.LASF63:
 7319 077c 4379494C 		.ascii	"CyILO_SetSource\000"
 7319      4F5F5365 
 7319      74536F75 
 7319      72636500 
 7320              	.LASF26:
 7321 078c 70446976 		.ascii	"pDiv\000"
 7321      00
 7322              	.LASF41:
 7323 0791 4379494D 		.ascii	"CyIMO_SetFreq\000"
 7323      4F5F5365 
 7323      74467265 
 7323      7100
 7324              	.LASF79:
 7325 079f 43795854 		.ascii	"CyXTAL_32KHZ_ReadStatus\000"
 7325      414C5F33 
 7325      324B485A 
 7325      5F526561 
 7325      64537461 
 7326              	.LASF75:
 7327 07b7 706D5477 		.ascii	"pmTwCfg2Tmp\000"
 7327      43666732 
 7327      546D7000 
 7328              	.LASF50:
 7329 07c3 4379494D 		.ascii	"CyIMO_SetTrimValue\000"
 7329      4F5F5365 
 7329      74547269 
 7329      6D56616C 
 7329      756500
 7330              	.LASF16:
 7331 07d6 63797374 		.ascii	"cystatus\000"
 7331      61747573 
 7331      00
 7332              	.LASF128:
 7333 07df 43795365 		.ascii	"CySetScPumps\000"
 7333      74536350 
 7333      756D7073 
 7333      00
 7334              	.LASF84:
 7335 07ec 73657474 		.ascii	"setting\000"
 7335      696E6700 
ARM GAS  C:\Users\Rolando\AppData\Local\Temp\ccmqTZg9.s 			page 184


 7336              	.LASF34:
 7337 07f4 706D4674 		.ascii	"pmFtwCfg0Reg\000"
 7337      77436667 
 7337      30526567 
 7337      00
 7338              	.LASF93:
 7339 0801 6D696372 		.ascii	"microseconds\000"
 7339      6F736563 
 7339      6F6E6473 
 7339      00
 7340              	.LASF105:
 7341 080e 43795664 		.ascii	"CyVdHvAnalogEnable\000"
 7341      4876416E 
 7341      616C6F67 
 7341      456E6162 
 7341      6C6500
 7342              	.LASF99:
 7343 0821 43795664 		.ascii	"CyVdLvDigitEnable\000"
 7343      4C764469 
 7343      67697445 
 7343      6E61626C 
 7343      6500
 7344              	.LASF76:
 7345 0833 43795854 		.ascii	"CyXTAL_Stop\000"
 7345      414C5F53 
 7345      746F7000 
 7346              		.ident	"GCC: (GNU Tools for ARM Embedded Processors) 4.9.3 20150303 (release) [ARM/embedded-4_9-br
