ARM GAS  C:\Users\Rolando\AppData\Local\Temp\ccmqTZg9.s 			page 1


   1              		.syntax unified
   2              		.cpu cortex-m3
   3              		.fpu softvfp
   4              		.eabi_attribute 20, 1
   5              		.eabi_attribute 21, 1
   6              		.eabi_attribute 23, 3
   7              		.eabi_attribute 24, 1
   8              		.eabi_attribute 25, 1
   9              		.eabi_attribute 26, 1
  10              		.eabi_attribute 30, 6
  11              		.eabi_attribute 34, 1
  12              		.eabi_attribute 18, 4
  13              		.thumb
  14              		.file	"CyLib.c"
  15              		.text
  16              	.Ltext0:
  17              		.cfi_sections	.debug_frame
  18              		.global	CyResetStatus
  19              		.section	.noinit,"aw",%progbits
  20              		.type	CyResetStatus, %object
  21              		.size	CyResetStatus, 1
  22              	CyResetStatus:
  23 0000 00       		.space	1
  24              		.global	CyScPumpEnabled
  25              		.bss
  26              		.type	CyScPumpEnabled, %object
  27              		.size	CyScPumpEnabled, 1
  28              	CyScPumpEnabled:
  29 0000 00       		.space	1
  30              		.global	cydelay_freq_hz
  31              		.data
  32              		.align	2
  33              		.type	cydelay_freq_hz, %object
  34              		.size	cydelay_freq_hz, 4
  35              	cydelay_freq_hz:
  36 0000 00512502 		.word	36000000
  37              		.global	cydelay_freq_khz
  38              		.align	2
  39              		.type	cydelay_freq_khz, %object
  40              		.size	cydelay_freq_khz, 4
  41              	cydelay_freq_khz:
  42 0004 A08C0000 		.word	36000
  43              		.global	cydelay_freq_mhz
  44              		.type	cydelay_freq_mhz, %object
  45              		.size	cydelay_freq_mhz, 1
  46              	cydelay_freq_mhz:
  47 0008 24       		.byte	36
  48              		.global	cydelay_32k_ms
  49 0009 000000   		.align	2
  50              		.type	cydelay_32k_ms, %object
  51              		.size	cydelay_32k_ms, 4
  52              	cydelay_32k_ms:
  53 000c 00005046 		.word	1179648000
  54              		.section	.text.CyPLL_OUT_Start,"ax",%progbits
  55              		.align	2
  56              		.global	CyPLL_OUT_Start
  57              		.thumb
ARM GAS  C:\Users\Rolando\AppData\Local\Temp\ccmqTZg9.s 			page 2


  58              		.thumb_func
  59              		.type	CyPLL_OUT_Start, %function
  60              	CyPLL_OUT_Start:
  61              	.LFB0:
  62              		.file 1 ".\\Generated_Source\\PSoC5\\CyLib.c"
   1:.\Generated_Source\PSoC5/CyLib.c **** /*******************************************************************************
   2:.\Generated_Source\PSoC5/CyLib.c **** * File Name: CyLib.c
   3:.\Generated_Source\PSoC5/CyLib.c **** * Version 4.0
   4:.\Generated_Source\PSoC5/CyLib.c **** *
   5:.\Generated_Source\PSoC5/CyLib.c **** *  Description:
   6:.\Generated_Source\PSoC5/CyLib.c **** *   Provides system API for the clocking, interrupts and watchdog timer.
   7:.\Generated_Source\PSoC5/CyLib.c **** *
   8:.\Generated_Source\PSoC5/CyLib.c **** *  Note:
   9:.\Generated_Source\PSoC5/CyLib.c **** *   Documentation of the API's in this file is located in the
  10:.\Generated_Source\PSoC5/CyLib.c **** *   System Reference Guide provided with PSoC Creator.
  11:.\Generated_Source\PSoC5/CyLib.c **** *
  12:.\Generated_Source\PSoC5/CyLib.c **** ********************************************************************************
  13:.\Generated_Source\PSoC5/CyLib.c **** * Copyright 2008-2013, Cypress Semiconductor Corporation.  All rights reserved.
  14:.\Generated_Source\PSoC5/CyLib.c **** * You may use this file only in accordance with the license, terms, conditions,
  15:.\Generated_Source\PSoC5/CyLib.c **** * disclaimers, and limitations in the end user license agreement accompanying
  16:.\Generated_Source\PSoC5/CyLib.c **** * the software package with which this file was provided.
  17:.\Generated_Source\PSoC5/CyLib.c **** *******************************************************************************/
  18:.\Generated_Source\PSoC5/CyLib.c **** 
  19:.\Generated_Source\PSoC5/CyLib.c **** #include "CyLib.h"
  20:.\Generated_Source\PSoC5/CyLib.c **** 
  21:.\Generated_Source\PSoC5/CyLib.c **** 
  22:.\Generated_Source\PSoC5/CyLib.c **** /*******************************************************************************
  23:.\Generated_Source\PSoC5/CyLib.c **** * The CyResetStatus variable is used to obtain value of RESET_SR0 register after
  24:.\Generated_Source\PSoC5/CyLib.c **** * a device reset. It is set from initialize_psoc() at the early initialization
  25:.\Generated_Source\PSoC5/CyLib.c **** * stage. In case of IAR EW IDE, initialize_psoc() is executed before the data
  26:.\Generated_Source\PSoC5/CyLib.c **** * sections are initialized. To avoid zeroing, CyResetStatus should be placed
  27:.\Generated_Source\PSoC5/CyLib.c **** * to the .noinit section.
  28:.\Generated_Source\PSoC5/CyLib.c **** *******************************************************************************/
  29:.\Generated_Source\PSoC5/CyLib.c **** CY_NOINIT uint8 CYXDATA CyResetStatus;
  30:.\Generated_Source\PSoC5/CyLib.c **** 
  31:.\Generated_Source\PSoC5/CyLib.c **** 
  32:.\Generated_Source\PSoC5/CyLib.c **** /* Variable Vdda */
  33:.\Generated_Source\PSoC5/CyLib.c **** #if(CYDEV_VARIABLE_VDDA == 1)
  34:.\Generated_Source\PSoC5/CyLib.c **** 
  35:.\Generated_Source\PSoC5/CyLib.c ****     uint8 CyScPumpEnabled = (uint8)(CYDEV_VDDA_MV < 2700);
  36:.\Generated_Source\PSoC5/CyLib.c **** 
  37:.\Generated_Source\PSoC5/CyLib.c **** #endif  /* (CYDEV_VARIABLE_VDDA == 1) */
  38:.\Generated_Source\PSoC5/CyLib.c **** 
  39:.\Generated_Source\PSoC5/CyLib.c **** 
  40:.\Generated_Source\PSoC5/CyLib.c **** /* Do not use these definitions directly in your application */
  41:.\Generated_Source\PSoC5/CyLib.c **** uint32 cydelay_freq_hz  = BCLK__BUS_CLK__HZ;
  42:.\Generated_Source\PSoC5/CyLib.c **** uint32 cydelay_freq_khz = (BCLK__BUS_CLK__HZ + 999u) / 1000u;
  43:.\Generated_Source\PSoC5/CyLib.c **** uint8  cydelay_freq_mhz = (uint8)((BCLK__BUS_CLK__HZ + 999999u) / 1000000u);
  44:.\Generated_Source\PSoC5/CyLib.c **** uint32 cydelay_32k_ms   = 32768u * ((BCLK__BUS_CLK__HZ + 999u) / 1000u);
  45:.\Generated_Source\PSoC5/CyLib.c **** 
  46:.\Generated_Source\PSoC5/CyLib.c **** 
  47:.\Generated_Source\PSoC5/CyLib.c **** /* Function Prototypes */
  48:.\Generated_Source\PSoC5/CyLib.c **** static uint8 CyUSB_PowerOnCheck(void)  ;
  49:.\Generated_Source\PSoC5/CyLib.c **** static void CyIMO_SetTrimValue(uint8 freq) ;
  50:.\Generated_Source\PSoC5/CyLib.c **** static void CyBusClk_Internal_SetDivider(uint16 divider);
  51:.\Generated_Source\PSoC5/CyLib.c **** 
  52:.\Generated_Source\PSoC5/CyLib.c **** 
ARM GAS  C:\Users\Rolando\AppData\Local\Temp\ccmqTZg9.s 			page 3


  53:.\Generated_Source\PSoC5/CyLib.c **** /*******************************************************************************
  54:.\Generated_Source\PSoC5/CyLib.c **** * Function Name: CyPLL_OUT_Start
  55:.\Generated_Source\PSoC5/CyLib.c **** ********************************************************************************
  56:.\Generated_Source\PSoC5/CyLib.c **** *
  57:.\Generated_Source\PSoC5/CyLib.c **** * Summary:
  58:.\Generated_Source\PSoC5/CyLib.c **** *   Enables the PLL.  Optionally waits for it to become stable.
  59:.\Generated_Source\PSoC5/CyLib.c **** *   Waits at least 250 us or until it is detected that the PLL is stable.
  60:.\Generated_Source\PSoC5/CyLib.c **** *
  61:.\Generated_Source\PSoC5/CyLib.c **** * Parameters:
  62:.\Generated_Source\PSoC5/CyLib.c **** *   wait:
  63:.\Generated_Source\PSoC5/CyLib.c **** *    0: Return immediately after configuration
  64:.\Generated_Source\PSoC5/CyLib.c **** *    1: Wait for PLL lock or timeout.
  65:.\Generated_Source\PSoC5/CyLib.c **** *
  66:.\Generated_Source\PSoC5/CyLib.c **** * Return:
  67:.\Generated_Source\PSoC5/CyLib.c **** *   Status
  68:.\Generated_Source\PSoC5/CyLib.c **** *    CYRET_SUCCESS - Completed successfully
  69:.\Generated_Source\PSoC5/CyLib.c **** *    CYRET_TIMEOUT - Timeout occurred without detecting a stable clock.
  70:.\Generated_Source\PSoC5/CyLib.c **** *     If the input source of the clock is jittery, then the lock indication
  71:.\Generated_Source\PSoC5/CyLib.c **** *     may not occur.  However, after the timeout has expired the generated PLL
  72:.\Generated_Source\PSoC5/CyLib.c **** *     clock can still be used.
  73:.\Generated_Source\PSoC5/CyLib.c **** *
  74:.\Generated_Source\PSoC5/CyLib.c **** * Side Effects:
  75:.\Generated_Source\PSoC5/CyLib.c **** *  If wait is enabled: This function wses the Fast Time Wheel to time the wait.
  76:.\Generated_Source\PSoC5/CyLib.c **** *  Any other use of the Fast Time Wheel will be stopped during the period of
  77:.\Generated_Source\PSoC5/CyLib.c **** *  this function and then restored. This function also uses the 100 KHz ILO.
  78:.\Generated_Source\PSoC5/CyLib.c **** *  If not enabled, this function will enable the 100 KHz ILO for the period of
  79:.\Generated_Source\PSoC5/CyLib.c **** *  this function.
  80:.\Generated_Source\PSoC5/CyLib.c **** *
  81:.\Generated_Source\PSoC5/CyLib.c **** *  No changes to the setup of the ILO, Fast Time Wheel, Central Time Wheel or
  82:.\Generated_Source\PSoC5/CyLib.c **** *  Once Per Second interrupt may be made by interrupt routines during the period
  83:.\Generated_Source\PSoC5/CyLib.c **** *  of this function execution. The current operation of the ILO, Central Time
  84:.\Generated_Source\PSoC5/CyLib.c **** *  Wheel and Once Per Second interrupt are maintained during the operation of
  85:.\Generated_Source\PSoC5/CyLib.c **** *  this function provided the reading of the Power Manager Interrupt Status
  86:.\Generated_Source\PSoC5/CyLib.c **** *  Register is only done using the CyPmReadStatus() function.
  87:.\Generated_Source\PSoC5/CyLib.c **** *
  88:.\Generated_Source\PSoC5/CyLib.c **** *******************************************************************************/
  89:.\Generated_Source\PSoC5/CyLib.c **** cystatus CyPLL_OUT_Start(uint8 wait) 
  90:.\Generated_Source\PSoC5/CyLib.c **** {
  63              		.loc 1 90 0
  64              		.cfi_startproc
  65              		@ args = 0, pretend = 0, frame = 16
  66              		@ frame_needed = 1, uses_anonymous_args = 0
  67 0000 80B5     		push	{r7, lr}
  68              		.cfi_def_cfa_offset 8
  69              		.cfi_offset 7, -8
  70              		.cfi_offset 14, -4
  71 0002 84B0     		sub	sp, sp, #16
  72              		.cfi_def_cfa_offset 24
  73 0004 00AF     		add	r7, sp, #0
  74              		.cfi_def_cfa_register 7
  75 0006 0346     		mov	r3, r0
  76 0008 FB71     		strb	r3, [r7, #7]
  91:.\Generated_Source\PSoC5/CyLib.c ****     cystatus status = CYRET_SUCCESS;
  77              		.loc 1 91 0
  78 000a 0023     		movs	r3, #0
  79 000c FB60     		str	r3, [r7, #12]
  92:.\Generated_Source\PSoC5/CyLib.c **** 
ARM GAS  C:\Users\Rolando\AppData\Local\Temp\ccmqTZg9.s 			page 4


  93:.\Generated_Source\PSoC5/CyLib.c ****     uint8 iloEnableState;
  94:.\Generated_Source\PSoC5/CyLib.c ****     uint8 pmTwCfg0State;
  95:.\Generated_Source\PSoC5/CyLib.c ****     uint8 pmTwCfg2State;
  96:.\Generated_Source\PSoC5/CyLib.c **** 
  97:.\Generated_Source\PSoC5/CyLib.c **** 
  98:.\Generated_Source\PSoC5/CyLib.c ****     /* Enables the PLL circuit  */
  99:.\Generated_Source\PSoC5/CyLib.c ****     CY_CLK_PLL_CFG0_REG |= CY_CLK_PLL_ENABLE;
  80              		.loc 1 99 0
  81 000e 234A     		ldr	r2, .L8
  82 0010 224B     		ldr	r3, .L8
  83 0012 1B78     		ldrb	r3, [r3]
  84 0014 DBB2     		uxtb	r3, r3
  85 0016 43F00103 		orr	r3, r3, #1
  86 001a DBB2     		uxtb	r3, r3
  87 001c 1370     		strb	r3, [r2]
 100:.\Generated_Source\PSoC5/CyLib.c **** 
 101:.\Generated_Source\PSoC5/CyLib.c ****     if(wait != 0u)
  88              		.loc 1 101 0
  89 001e FB79     		ldrb	r3, [r7, #7]	@ zero_extendqisi2
  90 0020 002B     		cmp	r3, #0
  91 0022 36D0     		beq	.L2
 102:.\Generated_Source\PSoC5/CyLib.c ****     {
 103:.\Generated_Source\PSoC5/CyLib.c ****         /* Save 100 KHz ILO, FTW interval, enable and interrupt enable */
 104:.\Generated_Source\PSoC5/CyLib.c ****         iloEnableState = CY_LIB_SLOWCLK_ILO_CR0_REG & CY_LIB_SLOWCLK_ILO_CR0_EN_100KHZ;
  92              		.loc 1 104 0
  93 0024 1E4B     		ldr	r3, .L8+4
  94 0026 1B78     		ldrb	r3, [r3]
  95 0028 DBB2     		uxtb	r3, r3
  96 002a 03F00403 		and	r3, r3, #4
  97 002e FB72     		strb	r3, [r7, #11]
 105:.\Generated_Source\PSoC5/CyLib.c ****         pmTwCfg0State = CY_LIB_PM_TW_CFG0_REG;
  98              		.loc 1 105 0
  99 0030 1C4B     		ldr	r3, .L8+8
 100 0032 1B78     		ldrb	r3, [r3]
 101 0034 BB72     		strb	r3, [r7, #10]
 106:.\Generated_Source\PSoC5/CyLib.c ****         pmTwCfg2State = CY_LIB_PM_TW_CFG2_REG;
 102              		.loc 1 106 0
 103 0036 1C4B     		ldr	r3, .L8+12
 104 0038 1B78     		ldrb	r3, [r3]
 105 003a 7B72     		strb	r3, [r7, #9]
 107:.\Generated_Source\PSoC5/CyLib.c **** 
 108:.\Generated_Source\PSoC5/CyLib.c ****         CyPmFtwSetInterval(CY_CLK_PLL_FTW_INTERVAL);
 106              		.loc 1 108 0
 107 003c 1820     		movs	r0, #24
 108 003e FFF7FEFF 		bl	CyPmFtwSetInterval
 109:.\Generated_Source\PSoC5/CyLib.c **** 
 110:.\Generated_Source\PSoC5/CyLib.c ****         status = CYRET_TIMEOUT;
 109              		.loc 1 110 0
 110 0042 1023     		movs	r3, #16
 111 0044 FB60     		str	r3, [r7, #12]
 111:.\Generated_Source\PSoC5/CyLib.c **** 
 112:.\Generated_Source\PSoC5/CyLib.c ****         while(0u == (CY_PM_FTW_INT & CyPmReadStatus(CY_PM_FTW_INT)))
 112              		.loc 1 112 0
 113 0046 10E0     		b	.L3
 114              	.L5:
 113:.\Generated_Source\PSoC5/CyLib.c ****         {
 114:.\Generated_Source\PSoC5/CyLib.c ****             /* Wait for the interrupt status */
ARM GAS  C:\Users\Rolando\AppData\Local\Temp\ccmqTZg9.s 			page 5


 115:.\Generated_Source\PSoC5/CyLib.c ****             if(0u != (CY_CLK_PLL_SR_REG & CY_CLK_PLL_LOCK_STATUS))
 115              		.loc 1 115 0
 116 0048 184B     		ldr	r3, .L8+16
 117 004a 1B78     		ldrb	r3, [r3]
 118 004c DBB2     		uxtb	r3, r3
 119 004e 03F00103 		and	r3, r3, #1
 120 0052 002B     		cmp	r3, #0
 121 0054 09D0     		beq	.L3
 116:.\Generated_Source\PSoC5/CyLib.c ****             {
 117:.\Generated_Source\PSoC5/CyLib.c ****                 if(0u != (CY_CLK_PLL_SR_REG & CY_CLK_PLL_LOCK_STATUS))
 122              		.loc 1 117 0
 123 0056 154B     		ldr	r3, .L8+16
 124 0058 1B78     		ldrb	r3, [r3]
 125 005a DBB2     		uxtb	r3, r3
 126 005c 03F00103 		and	r3, r3, #1
 127 0060 002B     		cmp	r3, #0
 128 0062 02D0     		beq	.L3
 118:.\Generated_Source\PSoC5/CyLib.c ****                 {
 119:.\Generated_Source\PSoC5/CyLib.c ****                     status = CYRET_SUCCESS;
 129              		.loc 1 119 0
 130 0064 0023     		movs	r3, #0
 131 0066 FB60     		str	r3, [r7, #12]
 120:.\Generated_Source\PSoC5/CyLib.c ****                     break;
 132              		.loc 1 120 0
 133 0068 08E0     		b	.L4
 134              	.L3:
 112:.\Generated_Source\PSoC5/CyLib.c ****         {
 135              		.loc 1 112 0
 136 006a 0120     		movs	r0, #1
 137 006c FFF7FEFF 		bl	CyPmReadStatus
 138 0070 0346     		mov	r3, r0
 139 0072 03F00103 		and	r3, r3, #1
 140 0076 DBB2     		uxtb	r3, r3
 141 0078 002B     		cmp	r3, #0
 142 007a E5D0     		beq	.L5
 143              	.L4:
 121:.\Generated_Source\PSoC5/CyLib.c ****                 }
 122:.\Generated_Source\PSoC5/CyLib.c ****             }
 123:.\Generated_Source\PSoC5/CyLib.c ****         }
 124:.\Generated_Source\PSoC5/CyLib.c **** 
 125:.\Generated_Source\PSoC5/CyLib.c ****         /* Restore 100 KHz ILO, FTW interval, enable and interrupt enable */
 126:.\Generated_Source\PSoC5/CyLib.c ****         if(0u == iloEnableState)
 144              		.loc 1 126 0
 145 007c FB7A     		ldrb	r3, [r7, #11]	@ zero_extendqisi2
 146 007e 002B     		cmp	r3, #0
 147 0080 01D1     		bne	.L6
 127:.\Generated_Source\PSoC5/CyLib.c ****         {
 128:.\Generated_Source\PSoC5/CyLib.c ****             CyILO_Stop100K();
 148              		.loc 1 128 0
 149 0082 FFF7FEFF 		bl	CyILO_Stop100K
 150              	.L6:
 129:.\Generated_Source\PSoC5/CyLib.c ****         }
 130:.\Generated_Source\PSoC5/CyLib.c **** 
 131:.\Generated_Source\PSoC5/CyLib.c ****         CY_LIB_PM_TW_CFG0_REG = pmTwCfg0State;
 151              		.loc 1 131 0
 152 0086 074A     		ldr	r2, .L8+8
 153 0088 BB7A     		ldrb	r3, [r7, #10]
ARM GAS  C:\Users\Rolando\AppData\Local\Temp\ccmqTZg9.s 			page 6


 154 008a 1370     		strb	r3, [r2]
 132:.\Generated_Source\PSoC5/CyLib.c ****         CY_LIB_PM_TW_CFG2_REG = pmTwCfg2State;
 155              		.loc 1 132 0
 156 008c 064A     		ldr	r2, .L8+12
 157 008e 7B7A     		ldrb	r3, [r7, #9]
 158 0090 1370     		strb	r3, [r2]
 159              	.L2:
 133:.\Generated_Source\PSoC5/CyLib.c ****     }
 134:.\Generated_Source\PSoC5/CyLib.c **** 
 135:.\Generated_Source\PSoC5/CyLib.c ****     return(status);
 160              		.loc 1 135 0
 161 0092 FB68     		ldr	r3, [r7, #12]
 136:.\Generated_Source\PSoC5/CyLib.c **** }
 162              		.loc 1 136 0
 163 0094 1846     		mov	r0, r3
 164 0096 1037     		adds	r7, r7, #16
 165              		.cfi_def_cfa_offset 8
 166 0098 BD46     		mov	sp, r7
 167              		.cfi_def_cfa_register 13
 168              		@ sp needed
 169 009a 80BD     		pop	{r7, pc}
 170              	.L9:
 171              		.align	2
 172              	.L8:
 173 009c 20420040 		.word	1073758752
 174 00a0 00430040 		.word	1073758976
 175 00a4 80430040 		.word	1073759104
 176 00a8 82430040 		.word	1073759106
 177 00ac 25420040 		.word	1073758757
 178              		.cfi_endproc
 179              	.LFE0:
 180              		.size	CyPLL_OUT_Start, .-CyPLL_OUT_Start
 181              		.section	.text.CyPLL_OUT_Stop,"ax",%progbits
 182              		.align	2
 183              		.global	CyPLL_OUT_Stop
 184              		.thumb
 185              		.thumb_func
 186              		.type	CyPLL_OUT_Stop, %function
 187              	CyPLL_OUT_Stop:
 188              	.LFB1:
 137:.\Generated_Source\PSoC5/CyLib.c **** 
 138:.\Generated_Source\PSoC5/CyLib.c **** 
 139:.\Generated_Source\PSoC5/CyLib.c **** /*******************************************************************************
 140:.\Generated_Source\PSoC5/CyLib.c **** * Function Name: CyPLL_OUT_Stop
 141:.\Generated_Source\PSoC5/CyLib.c **** ********************************************************************************
 142:.\Generated_Source\PSoC5/CyLib.c **** *
 143:.\Generated_Source\PSoC5/CyLib.c **** * Summary:
 144:.\Generated_Source\PSoC5/CyLib.c **** *  Disables the PLL.
 145:.\Generated_Source\PSoC5/CyLib.c **** *
 146:.\Generated_Source\PSoC5/CyLib.c **** * Parameters:
 147:.\Generated_Source\PSoC5/CyLib.c **** *  None
 148:.\Generated_Source\PSoC5/CyLib.c **** *
 149:.\Generated_Source\PSoC5/CyLib.c **** * Return:
 150:.\Generated_Source\PSoC5/CyLib.c **** *  None
 151:.\Generated_Source\PSoC5/CyLib.c **** *
 152:.\Generated_Source\PSoC5/CyLib.c **** *******************************************************************************/
 153:.\Generated_Source\PSoC5/CyLib.c **** void CyPLL_OUT_Stop(void) 
ARM GAS  C:\Users\Rolando\AppData\Local\Temp\ccmqTZg9.s 			page 7


 154:.\Generated_Source\PSoC5/CyLib.c **** {
 189              		.loc 1 154 0
 190              		.cfi_startproc
 191              		@ args = 0, pretend = 0, frame = 0
 192              		@ frame_needed = 1, uses_anonymous_args = 0
 193              		@ link register save eliminated.
 194 0000 80B4     		push	{r7}
 195              		.cfi_def_cfa_offset 4
 196              		.cfi_offset 7, -4
 197 0002 00AF     		add	r7, sp, #0
 198              		.cfi_def_cfa_register 7
 155:.\Generated_Source\PSoC5/CyLib.c ****     CY_CLK_PLL_CFG0_REG &= ((uint8)(~CY_CLK_PLL_ENABLE));
 199              		.loc 1 155 0
 200 0004 054A     		ldr	r2, .L11
 201 0006 054B     		ldr	r3, .L11
 202 0008 1B78     		ldrb	r3, [r3]
 203 000a DBB2     		uxtb	r3, r3
 204 000c 23F00103 		bic	r3, r3, #1
 205 0010 DBB2     		uxtb	r3, r3
 206 0012 1370     		strb	r3, [r2]
 156:.\Generated_Source\PSoC5/CyLib.c **** }
 207              		.loc 1 156 0
 208 0014 BD46     		mov	sp, r7
 209              		.cfi_def_cfa_register 13
 210              		@ sp needed
 211 0016 5DF8047B 		ldr	r7, [sp], #4
 212              		.cfi_restore 7
 213              		.cfi_def_cfa_offset 0
 214 001a 7047     		bx	lr
 215              	.L12:
 216              		.align	2
 217              	.L11:
 218 001c 20420040 		.word	1073758752
 219              		.cfi_endproc
 220              	.LFE1:
 221              		.size	CyPLL_OUT_Stop, .-CyPLL_OUT_Stop
 222              		.section	.text.CyPLL_OUT_SetPQ,"ax",%progbits
 223              		.align	2
 224              		.global	CyPLL_OUT_SetPQ
 225              		.thumb
 226              		.thumb_func
 227              		.type	CyPLL_OUT_SetPQ, %function
 228              	CyPLL_OUT_SetPQ:
 229              	.LFB2:
 157:.\Generated_Source\PSoC5/CyLib.c **** 
 158:.\Generated_Source\PSoC5/CyLib.c **** 
 159:.\Generated_Source\PSoC5/CyLib.c **** /*******************************************************************************
 160:.\Generated_Source\PSoC5/CyLib.c **** * Function Name: CyPLL_OUT_SetPQ
 161:.\Generated_Source\PSoC5/CyLib.c **** ********************************************************************************
 162:.\Generated_Source\PSoC5/CyLib.c **** *
 163:.\Generated_Source\PSoC5/CyLib.c **** * Summary:
 164:.\Generated_Source\PSoC5/CyLib.c **** *  Sets the P and Q dividers and the charge pump current.
 165:.\Generated_Source\PSoC5/CyLib.c **** *  The Frequency Out will be P/Q * Frequency In.
 166:.\Generated_Source\PSoC5/CyLib.c **** *  The PLL must be disabled before calling this function.
 167:.\Generated_Source\PSoC5/CyLib.c **** *
 168:.\Generated_Source\PSoC5/CyLib.c **** * Parameters:
 169:.\Generated_Source\PSoC5/CyLib.c **** *  uint8 pDiv:
ARM GAS  C:\Users\Rolando\AppData\Local\Temp\ccmqTZg9.s 			page 8


 170:.\Generated_Source\PSoC5/CyLib.c **** *   Valid range [8 - 255].
 171:.\Generated_Source\PSoC5/CyLib.c **** *
 172:.\Generated_Source\PSoC5/CyLib.c **** *  uint8 qDiv:
 173:.\Generated_Source\PSoC5/CyLib.c **** *   Valid range [1 - 16]. Input Frequency / Q must be in range of 1 to 3 MHz.
 174:.\Generated_Source\PSoC5/CyLib.c **** 
 175:.\Generated_Source\PSoC5/CyLib.c **** *  uint8 current:
 176:.\Generated_Source\PSoC5/CyLib.c **** *   Valid range [1 - 7]. Charge pump current in uA. Refer to the device TRM and
 177:.\Generated_Source\PSoC5/CyLib.c **** *   datasheet for more information.
 178:.\Generated_Source\PSoC5/CyLib.c **** *
 179:.\Generated_Source\PSoC5/CyLib.c **** * Return:
 180:.\Generated_Source\PSoC5/CyLib.c **** *  None
 181:.\Generated_Source\PSoC5/CyLib.c **** *
 182:.\Generated_Source\PSoC5/CyLib.c **** * Side Effects:
 183:.\Generated_Source\PSoC5/CyLib.c **** *  If as result of this function execution the CPU clock frequency is increased
 184:.\Generated_Source\PSoC5/CyLib.c **** *  then the number of clock cycles the cache will wait before it samples data
 185:.\Generated_Source\PSoC5/CyLib.c **** *  coming back from Flash must be adjusted by calling CyFlash_SetWaitCycles()
 186:.\Generated_Source\PSoC5/CyLib.c **** *  with appropriate parameter. It can be optionally called if CPU clock
 187:.\Generated_Source\PSoC5/CyLib.c **** *  frequency is lowered in order to improve CPU performance.
 188:.\Generated_Source\PSoC5/CyLib.c **** *  See CyFlash_SetWaitCycles() description for more information.
 189:.\Generated_Source\PSoC5/CyLib.c **** *
 190:.\Generated_Source\PSoC5/CyLib.c **** *******************************************************************************/
 191:.\Generated_Source\PSoC5/CyLib.c **** void CyPLL_OUT_SetPQ(uint8 pDiv, uint8 qDiv, uint8 current) 
 192:.\Generated_Source\PSoC5/CyLib.c **** {
 230              		.loc 1 192 0
 231              		.cfi_startproc
 232              		@ args = 0, pretend = 0, frame = 8
 233              		@ frame_needed = 1, uses_anonymous_args = 0
 234 0000 80B5     		push	{r7, lr}
 235              		.cfi_def_cfa_offset 8
 236              		.cfi_offset 7, -8
 237              		.cfi_offset 14, -4
 238 0002 82B0     		sub	sp, sp, #8
 239              		.cfi_def_cfa_offset 16
 240 0004 00AF     		add	r7, sp, #0
 241              		.cfi_def_cfa_register 7
 242 0006 0346     		mov	r3, r0
 243 0008 FB71     		strb	r3, [r7, #7]
 244 000a 0B46     		mov	r3, r1
 245 000c BB71     		strb	r3, [r7, #6]
 246 000e 1346     		mov	r3, r2
 247 0010 7B71     		strb	r3, [r7, #5]
 193:.\Generated_Source\PSoC5/CyLib.c ****     /* Halt CPU in debug mode if PLL is enabled */
 194:.\Generated_Source\PSoC5/CyLib.c ****     CYASSERT(0u == (CY_CLK_PLL_CFG0_REG & CY_CLK_PLL_ENABLE));
 248              		.loc 1 194 0
 249 0012 1B4B     		ldr	r3, .L17
 250 0014 1B78     		ldrb	r3, [r3]
 251 0016 DBB2     		uxtb	r3, r3
 252 0018 03F00103 		and	r3, r3, #1
 253 001c 002B     		cmp	r3, #0
 254 001e 02D0     		beq	.L14
 255              		.loc 1 194 0 is_stmt 0 discriminator 1
 256 0020 0020     		movs	r0, #0
 257 0022 FFF7FEFF 		bl	CyHalt
 258              	.L14:
 195:.\Generated_Source\PSoC5/CyLib.c **** 
 196:.\Generated_Source\PSoC5/CyLib.c ****     if((pDiv    >= CY_CLK_PLL_MIN_P_VALUE  ) &&
 259              		.loc 1 196 0 is_stmt 1
ARM GAS  C:\Users\Rolando\AppData\Local\Temp\ccmqTZg9.s 			page 9


 260 0026 FB79     		ldrb	r3, [r7, #7]	@ zero_extendqisi2
 261 0028 072B     		cmp	r3, #7
 262 002a 23D9     		bls	.L15
 263              		.loc 1 196 0 is_stmt 0 discriminator 1
 264 002c BB79     		ldrb	r3, [r7, #6]	@ zero_extendqisi2
 265 002e 102B     		cmp	r3, #16
 266 0030 20D8     		bhi	.L15
 197:.\Generated_Source\PSoC5/CyLib.c ****        (qDiv    <= CY_CLK_PLL_MAX_Q_VALUE  ) && (qDiv    >= CY_CLK_PLL_MIN_Q_VALUE  ) &&
 267              		.loc 1 197 0 is_stmt 1
 268 0032 BB79     		ldrb	r3, [r7, #6]	@ zero_extendqisi2
 269 0034 002B     		cmp	r3, #0
 270 0036 1DD0     		beq	.L15
 271              		.loc 1 197 0 is_stmt 0 discriminator 1
 272 0038 7B79     		ldrb	r3, [r7, #5]	@ zero_extendqisi2
 273 003a 002B     		cmp	r3, #0
 274 003c 1AD0     		beq	.L15
 198:.\Generated_Source\PSoC5/CyLib.c ****        (current >= CY_CLK_PLL_MIN_CUR_VALUE) && (current <= CY_CLK_PLL_MAX_CUR_VALUE))
 275              		.loc 1 198 0 is_stmt 1
 276 003e 7B79     		ldrb	r3, [r7, #5]	@ zero_extendqisi2
 277 0040 072B     		cmp	r3, #7
 278 0042 17D8     		bhi	.L15
 199:.\Generated_Source\PSoC5/CyLib.c ****     {
 200:.\Generated_Source\PSoC5/CyLib.c ****         /* Set new values */
 201:.\Generated_Source\PSoC5/CyLib.c ****         CY_CLK_PLL_P_REG = pDiv;
 279              		.loc 1 201 0
 280 0044 0F4A     		ldr	r2, .L17+4
 281 0046 FB79     		ldrb	r3, [r7, #7]
 282 0048 1370     		strb	r3, [r2]
 202:.\Generated_Source\PSoC5/CyLib.c ****         CY_CLK_PLL_Q_REG = ((uint8)(qDiv - 1u));
 283              		.loc 1 202 0
 284 004a 0F4A     		ldr	r2, .L17+8
 285 004c BB79     		ldrb	r3, [r7, #6]
 286 004e 013B     		subs	r3, r3, #1
 287 0050 DBB2     		uxtb	r3, r3
 288 0052 1370     		strb	r3, [r2]
 203:.\Generated_Source\PSoC5/CyLib.c ****         CY_CLK_PLL_CFG1_REG = (CY_CLK_PLL_CFG1_REG & CY_CLK_PLL_CURRENT_MASK) |
 289              		.loc 1 203 0
 290 0054 0D49     		ldr	r1, .L17+12
 291 0056 0D4B     		ldr	r3, .L17+12
 292 0058 1B78     		ldrb	r3, [r3]
 293 005a DBB2     		uxtb	r3, r3
 294 005c 23F07003 		bic	r3, r3, #112
 295 0060 DAB2     		uxtb	r2, r3
 204:.\Generated_Source\PSoC5/CyLib.c ****                                 ((uint8)(((uint8)(current - 1u)) << CY_CLK_PLL_CURRENT_POSITION));
 296              		.loc 1 204 0
 297 0062 7B79     		ldrb	r3, [r7, #5]
 298 0064 013B     		subs	r3, r3, #1
 299 0066 DBB2     		uxtb	r3, r3
 300 0068 1B01     		lsls	r3, r3, #4
 301 006a DBB2     		uxtb	r3, r3
 203:.\Generated_Source\PSoC5/CyLib.c ****         CY_CLK_PLL_CFG1_REG = (CY_CLK_PLL_CFG1_REG & CY_CLK_PLL_CURRENT_MASK) |
 302              		.loc 1 203 0
 303 006c 1343     		orrs	r3, r3, r2
 304 006e DBB2     		uxtb	r3, r3
 305 0070 0B70     		strb	r3, [r1]
 306 0072 02E0     		b	.L13
 307              	.L15:
ARM GAS  C:\Users\Rolando\AppData\Local\Temp\ccmqTZg9.s 			page 10


 205:.\Generated_Source\PSoC5/CyLib.c ****     }
 206:.\Generated_Source\PSoC5/CyLib.c ****     else
 207:.\Generated_Source\PSoC5/CyLib.c ****     {
 208:.\Generated_Source\PSoC5/CyLib.c ****         /***********************************************************************
 209:.\Generated_Source\PSoC5/CyLib.c ****         * Halt CPU in debug mode if:
 210:.\Generated_Source\PSoC5/CyLib.c ****         * - P divider is less than required
 211:.\Generated_Source\PSoC5/CyLib.c ****         * - Q divider is out of range
 212:.\Generated_Source\PSoC5/CyLib.c ****         * - pump current is out of range
 213:.\Generated_Source\PSoC5/CyLib.c ****         ***********************************************************************/
 214:.\Generated_Source\PSoC5/CyLib.c ****         CYASSERT(0u != 0u);
 308              		.loc 1 214 0 discriminator 1
 309 0074 0020     		movs	r0, #0
 310 0076 FFF7FEFF 		bl	CyHalt
 311              	.L13:
 215:.\Generated_Source\PSoC5/CyLib.c ****     }
 216:.\Generated_Source\PSoC5/CyLib.c **** 
 217:.\Generated_Source\PSoC5/CyLib.c **** }
 312              		.loc 1 217 0
 313 007a 0837     		adds	r7, r7, #8
 314              		.cfi_def_cfa_offset 8
 315 007c BD46     		mov	sp, r7
 316              		.cfi_def_cfa_register 13
 317              		@ sp needed
 318 007e 80BD     		pop	{r7, pc}
 319              	.L18:
 320              		.align	2
 321              	.L17:
 322 0080 20420040 		.word	1073758752
 323 0084 22420040 		.word	1073758754
 324 0088 23420040 		.word	1073758755
 325 008c 21420040 		.word	1073758753
 326              		.cfi_endproc
 327              	.LFE2:
 328              		.size	CyPLL_OUT_SetPQ, .-CyPLL_OUT_SetPQ
 329              		.section	.text.CyPLL_OUT_SetSource,"ax",%progbits
 330              		.align	2
 331              		.global	CyPLL_OUT_SetSource
 332              		.thumb
 333              		.thumb_func
 334              		.type	CyPLL_OUT_SetSource, %function
 335              	CyPLL_OUT_SetSource:
 336              	.LFB3:
 218:.\Generated_Source\PSoC5/CyLib.c **** 
 219:.\Generated_Source\PSoC5/CyLib.c **** 
 220:.\Generated_Source\PSoC5/CyLib.c **** /*******************************************************************************
 221:.\Generated_Source\PSoC5/CyLib.c **** * Function Name: CyPLL_OUT_SetSource
 222:.\Generated_Source\PSoC5/CyLib.c **** ********************************************************************************
 223:.\Generated_Source\PSoC5/CyLib.c **** *
 224:.\Generated_Source\PSoC5/CyLib.c **** * Summary:
 225:.\Generated_Source\PSoC5/CyLib.c **** *  Sets the input clock source to the PLL. The PLL must be disabled before
 226:.\Generated_Source\PSoC5/CyLib.c **** *  calling this function.
 227:.\Generated_Source\PSoC5/CyLib.c **** *
 228:.\Generated_Source\PSoC5/CyLib.c **** * Parameters:
 229:.\Generated_Source\PSoC5/CyLib.c **** *   source: One of the three available PLL clock sources
 230:.\Generated_Source\PSoC5/CyLib.c **** *    CY_PLL_SOURCE_IMO  :   IMO
 231:.\Generated_Source\PSoC5/CyLib.c **** *    CY_PLL_SOURCE_XTAL :   MHz Crystal
 232:.\Generated_Source\PSoC5/CyLib.c **** *    CY_PLL_SOURCE_DSI  :   DSI
ARM GAS  C:\Users\Rolando\AppData\Local\Temp\ccmqTZg9.s 			page 11


 233:.\Generated_Source\PSoC5/CyLib.c **** *
 234:.\Generated_Source\PSoC5/CyLib.c **** * Return:
 235:.\Generated_Source\PSoC5/CyLib.c **** *  None
 236:.\Generated_Source\PSoC5/CyLib.c **** *
 237:.\Generated_Source\PSoC5/CyLib.c **** * Side Effects:
 238:.\Generated_Source\PSoC5/CyLib.c **** *  If as result of this function execution the CPU clock frequency is increased
 239:.\Generated_Source\PSoC5/CyLib.c **** *  then the number of clock cycles the cache will wait before it samples data
 240:.\Generated_Source\PSoC5/CyLib.c **** *  coming back from Flash must be adjusted by calling CyFlash_SetWaitCycles()
 241:.\Generated_Source\PSoC5/CyLib.c **** *  with appropriate parameter. It can be optionally called if CPU clock
 242:.\Generated_Source\PSoC5/CyLib.c **** *  frequency is lowered in order to improve CPU performance.
 243:.\Generated_Source\PSoC5/CyLib.c **** *  See CyFlash_SetWaitCycles() description for more information.
 244:.\Generated_Source\PSoC5/CyLib.c **** *
 245:.\Generated_Source\PSoC5/CyLib.c **** *******************************************************************************/
 246:.\Generated_Source\PSoC5/CyLib.c **** void CyPLL_OUT_SetSource(uint8 source) 
 247:.\Generated_Source\PSoC5/CyLib.c **** {
 337              		.loc 1 247 0
 338              		.cfi_startproc
 339              		@ args = 0, pretend = 0, frame = 8
 340              		@ frame_needed = 1, uses_anonymous_args = 0
 341 0000 80B5     		push	{r7, lr}
 342              		.cfi_def_cfa_offset 8
 343              		.cfi_offset 7, -8
 344              		.cfi_offset 14, -4
 345 0002 82B0     		sub	sp, sp, #8
 346              		.cfi_def_cfa_offset 16
 347 0004 00AF     		add	r7, sp, #0
 348              		.cfi_def_cfa_register 7
 349 0006 0346     		mov	r3, r0
 350 0008 FB71     		strb	r3, [r7, #7]
 248:.\Generated_Source\PSoC5/CyLib.c ****     /* Halt CPU in debug mode if PLL is enabled */
 249:.\Generated_Source\PSoC5/CyLib.c ****     CYASSERT(0u == (CY_CLK_PLL_CFG0_REG & CY_CLK_PLL_ENABLE));
 351              		.loc 1 249 0
 352 000a 114B     		ldr	r3, .L24
 353 000c 1B78     		ldrb	r3, [r3]
 354 000e DBB2     		uxtb	r3, r3
 355 0010 03F00103 		and	r3, r3, #1
 356 0014 002B     		cmp	r3, #0
 357 0016 02D0     		beq	.L20
 358              		.loc 1 249 0 is_stmt 0 discriminator 1
 359 0018 0020     		movs	r0, #0
 360 001a FFF7FEFF 		bl	CyHalt
 361              	.L20:
 250:.\Generated_Source\PSoC5/CyLib.c **** 
 251:.\Generated_Source\PSoC5/CyLib.c ****     switch(source)
 362              		.loc 1 251 0 is_stmt 1
 363 001e FB79     		ldrb	r3, [r7, #7]	@ zero_extendqisi2
 364 0020 0033     		adds	r3, r3, #0
 365 0022 022B     		cmp	r3, #2
 366 0024 0DD8     		bhi	.L21
 252:.\Generated_Source\PSoC5/CyLib.c ****     {
 253:.\Generated_Source\PSoC5/CyLib.c ****         case CY_PLL_SOURCE_IMO:
 254:.\Generated_Source\PSoC5/CyLib.c ****         case CY_PLL_SOURCE_XTAL:
 255:.\Generated_Source\PSoC5/CyLib.c ****         case CY_PLL_SOURCE_DSI:
 256:.\Generated_Source\PSoC5/CyLib.c ****             CY_LIB_CLKDIST_CR_REG = ((CY_LIB_CLKDIST_CR_REG & CY_LIB_CLKDIST_CR_PLL_SCR_MASK) | sou
 367              		.loc 1 256 0
 368 0026 4FF04021 		mov	r1, #1073758208
 369 002a 4FF04023 		mov	r3, #1073758208
ARM GAS  C:\Users\Rolando\AppData\Local\Temp\ccmqTZg9.s 			page 12


 370 002e 1B78     		ldrb	r3, [r3]
 371 0030 DBB2     		uxtb	r3, r3
 372 0032 23F00303 		bic	r3, r3, #3
 373 0036 DAB2     		uxtb	r2, r3
 374 0038 FB79     		ldrb	r3, [r7, #7]
 375 003a 1343     		orrs	r3, r3, r2
 376 003c DBB2     		uxtb	r3, r3
 377 003e 0B70     		strb	r3, [r1]
 257:.\Generated_Source\PSoC5/CyLib.c ****         break;
 378              		.loc 1 257 0
 379 0040 03E0     		b	.L19
 380              	.L21:
 258:.\Generated_Source\PSoC5/CyLib.c **** 
 259:.\Generated_Source\PSoC5/CyLib.c ****         default:
 260:.\Generated_Source\PSoC5/CyLib.c ****             CYASSERT(0u != 0u);
 381              		.loc 1 260 0
 382 0042 0020     		movs	r0, #0
 383 0044 FFF7FEFF 		bl	CyHalt
 261:.\Generated_Source\PSoC5/CyLib.c ****         break;
 384              		.loc 1 261 0
 385 0048 00BF     		nop
 386              	.L19:
 262:.\Generated_Source\PSoC5/CyLib.c ****     }
 263:.\Generated_Source\PSoC5/CyLib.c **** }
 387              		.loc 1 263 0
 388 004a 0837     		adds	r7, r7, #8
 389              		.cfi_def_cfa_offset 8
 390 004c BD46     		mov	sp, r7
 391              		.cfi_def_cfa_register 13
 392              		@ sp needed
 393 004e 80BD     		pop	{r7, pc}
 394              	.L25:
 395              		.align	2
 396              	.L24:
 397 0050 20420040 		.word	1073758752
 398              		.cfi_endproc
 399              	.LFE3:
 400              		.size	CyPLL_OUT_SetSource, .-CyPLL_OUT_SetSource
 401              		.section	.text.CyIMO_Start,"ax",%progbits
 402              		.align	2
 403              		.global	CyIMO_Start
 404              		.thumb
 405              		.thumb_func
 406              		.type	CyIMO_Start, %function
 407              	CyIMO_Start:
 408              	.LFB4:
 264:.\Generated_Source\PSoC5/CyLib.c **** 
 265:.\Generated_Source\PSoC5/CyLib.c **** 
 266:.\Generated_Source\PSoC5/CyLib.c **** /*******************************************************************************
 267:.\Generated_Source\PSoC5/CyLib.c **** * Function Name: CyIMO_Start
 268:.\Generated_Source\PSoC5/CyLib.c **** ********************************************************************************
 269:.\Generated_Source\PSoC5/CyLib.c **** *
 270:.\Generated_Source\PSoC5/CyLib.c **** * Summary:
 271:.\Generated_Source\PSoC5/CyLib.c **** *  Enables the IMO. Optionally waits at least 6 us for it to settle.
 272:.\Generated_Source\PSoC5/CyLib.c **** *
 273:.\Generated_Source\PSoC5/CyLib.c **** * Parameters:
 274:.\Generated_Source\PSoC5/CyLib.c **** *  uint8 wait:
ARM GAS  C:\Users\Rolando\AppData\Local\Temp\ccmqTZg9.s 			page 13


 275:.\Generated_Source\PSoC5/CyLib.c **** *   0: Return immediately after configuration
 276:.\Generated_Source\PSoC5/CyLib.c **** *   1: Wait for at least 6 us for the IMO to settle.
 277:.\Generated_Source\PSoC5/CyLib.c **** *
 278:.\Generated_Source\PSoC5/CyLib.c **** * Return:
 279:.\Generated_Source\PSoC5/CyLib.c **** *  None
 280:.\Generated_Source\PSoC5/CyLib.c **** *
 281:.\Generated_Source\PSoC5/CyLib.c **** * Side Effects:
 282:.\Generated_Source\PSoC5/CyLib.c **** *  If wait is enabled: This function wses the Fast Time Wheel to time the wait.
 283:.\Generated_Source\PSoC5/CyLib.c **** *  Any other use of the Fast Time Wheel will be stopped during the period of
 284:.\Generated_Source\PSoC5/CyLib.c **** *  this function and then restored. This function also uses the 100 KHz ILO.
 285:.\Generated_Source\PSoC5/CyLib.c **** *  If not enabled, this function will enable the 100 KHz ILO for the period of
 286:.\Generated_Source\PSoC5/CyLib.c **** *  this function.
 287:.\Generated_Source\PSoC5/CyLib.c **** *
 288:.\Generated_Source\PSoC5/CyLib.c **** *  No changes to the setup of the ILO, Fast Time Wheel, Central Time Wheel or
 289:.\Generated_Source\PSoC5/CyLib.c **** *  Once Per Second interrupt may be made by interrupt routines during the period
 290:.\Generated_Source\PSoC5/CyLib.c **** *  of this function execution. The current operation of the ILO, Central Time
 291:.\Generated_Source\PSoC5/CyLib.c **** *  Wheel and Once Per Second interrupt are maintained during the operation of
 292:.\Generated_Source\PSoC5/CyLib.c **** *  this function provided the reading of the Power Manager Interrupt Status
 293:.\Generated_Source\PSoC5/CyLib.c **** *  Register is only done using the CyPmReadStatus() function.
 294:.\Generated_Source\PSoC5/CyLib.c **** *
 295:.\Generated_Source\PSoC5/CyLib.c **** *******************************************************************************/
 296:.\Generated_Source\PSoC5/CyLib.c **** void CyIMO_Start(uint8 wait) 
 297:.\Generated_Source\PSoC5/CyLib.c **** {
 409              		.loc 1 297 0
 410              		.cfi_startproc
 411              		@ args = 0, pretend = 0, frame = 16
 412              		@ frame_needed = 1, uses_anonymous_args = 0
 413 0000 80B5     		push	{r7, lr}
 414              		.cfi_def_cfa_offset 8
 415              		.cfi_offset 7, -8
 416              		.cfi_offset 14, -4
 417 0002 84B0     		sub	sp, sp, #16
 418              		.cfi_def_cfa_offset 24
 419 0004 00AF     		add	r7, sp, #0
 420              		.cfi_def_cfa_register 7
 421 0006 0346     		mov	r3, r0
 422 0008 FB71     		strb	r3, [r7, #7]
 298:.\Generated_Source\PSoC5/CyLib.c ****     uint8 pmFtwCfg2Reg;
 299:.\Generated_Source\PSoC5/CyLib.c ****     uint8 pmFtwCfg0Reg;
 300:.\Generated_Source\PSoC5/CyLib.c ****     uint8 ilo100KhzEnable;
 301:.\Generated_Source\PSoC5/CyLib.c **** 
 302:.\Generated_Source\PSoC5/CyLib.c **** 
 303:.\Generated_Source\PSoC5/CyLib.c ****     CY_LIB_PM_ACT_CFG0_REG  |= CY_LIB_PM_ACT_CFG0_IMO_EN;
 423              		.loc 1 303 0
 424 000a 1D4A     		ldr	r2, .L30
 425 000c 1C4B     		ldr	r3, .L30
 426 000e 1B78     		ldrb	r3, [r3]
 427 0010 DBB2     		uxtb	r3, r3
 428 0012 43F01003 		orr	r3, r3, #16
 429 0016 DBB2     		uxtb	r3, r3
 430 0018 1370     		strb	r3, [r2]
 304:.\Generated_Source\PSoC5/CyLib.c ****     CY_LIB_PM_STBY_CFG0_REG |= CY_LIB_PM_STBY_CFG0_IMO_EN;
 431              		.loc 1 304 0
 432 001a 1A4A     		ldr	r2, .L30+4
 433 001c 194B     		ldr	r3, .L30+4
 434 001e 1B78     		ldrb	r3, [r3]
 435 0020 DBB2     		uxtb	r3, r3
ARM GAS  C:\Users\Rolando\AppData\Local\Temp\ccmqTZg9.s 			page 14


 436 0022 43F01003 		orr	r3, r3, #16
 437 0026 DBB2     		uxtb	r3, r3
 438 0028 1370     		strb	r3, [r2]
 305:.\Generated_Source\PSoC5/CyLib.c **** 
 306:.\Generated_Source\PSoC5/CyLib.c ****     if(0u != wait)
 439              		.loc 1 306 0
 440 002a FB79     		ldrb	r3, [r7, #7]	@ zero_extendqisi2
 441 002c 002B     		cmp	r3, #0
 442 002e 23D0     		beq	.L26
 307:.\Generated_Source\PSoC5/CyLib.c ****     {
 308:.\Generated_Source\PSoC5/CyLib.c ****         /* Need to turn on the 100KHz ILO if it happens to not already be running.*/
 309:.\Generated_Source\PSoC5/CyLib.c ****         ilo100KhzEnable = CY_LIB_SLOWCLK_ILO_CR0_REG & CY_LIB_SLOWCLK_ILO_CR0_EN_100KHZ;
 443              		.loc 1 309 0
 444 0030 154B     		ldr	r3, .L30+8
 445 0032 1B78     		ldrb	r3, [r3]
 446 0034 DBB2     		uxtb	r3, r3
 447 0036 03F00403 		and	r3, r3, #4
 448 003a FB73     		strb	r3, [r7, #15]
 310:.\Generated_Source\PSoC5/CyLib.c ****         pmFtwCfg0Reg = CY_LIB_PM_TW_CFG0_REG;
 449              		.loc 1 310 0
 450 003c 134B     		ldr	r3, .L30+12
 451 003e 1B78     		ldrb	r3, [r3]
 452 0040 BB73     		strb	r3, [r7, #14]
 311:.\Generated_Source\PSoC5/CyLib.c ****         pmFtwCfg2Reg = CY_LIB_PM_TW_CFG2_REG;
 453              		.loc 1 311 0
 454 0042 134B     		ldr	r3, .L30+16
 455 0044 1B78     		ldrb	r3, [r3]
 456 0046 7B73     		strb	r3, [r7, #13]
 312:.\Generated_Source\PSoC5/CyLib.c **** 
 313:.\Generated_Source\PSoC5/CyLib.c ****         CyPmFtwSetInterval(CY_LIB_CLK_IMO_FTW_TIMEOUT);
 457              		.loc 1 313 0
 458 0048 0020     		movs	r0, #0
 459 004a FFF7FEFF 		bl	CyPmFtwSetInterval
 314:.\Generated_Source\PSoC5/CyLib.c **** 
 315:.\Generated_Source\PSoC5/CyLib.c ****         while (0u == (CY_PM_FTW_INT & CyPmReadStatus(CY_PM_FTW_INT)))
 460              		.loc 1 315 0
 461 004e 00BF     		nop
 462              	.L28:
 463              		.loc 1 315 0 is_stmt 0 discriminator 1
 464 0050 0120     		movs	r0, #1
 465 0052 FFF7FEFF 		bl	CyPmReadStatus
 466 0056 0346     		mov	r3, r0
 467 0058 03F00103 		and	r3, r3, #1
 468 005c DBB2     		uxtb	r3, r3
 469 005e 002B     		cmp	r3, #0
 470 0060 F6D0     		beq	.L28
 316:.\Generated_Source\PSoC5/CyLib.c ****         {
 317:.\Generated_Source\PSoC5/CyLib.c ****             /* Wait for the interrupt status */
 318:.\Generated_Source\PSoC5/CyLib.c ****         }
 319:.\Generated_Source\PSoC5/CyLib.c **** 
 320:.\Generated_Source\PSoC5/CyLib.c ****         if(0u == ilo100KhzEnable)
 471              		.loc 1 320 0 is_stmt 1
 472 0062 FB7B     		ldrb	r3, [r7, #15]	@ zero_extendqisi2
 473 0064 002B     		cmp	r3, #0
 474 0066 01D1     		bne	.L29
 321:.\Generated_Source\PSoC5/CyLib.c ****         {
 322:.\Generated_Source\PSoC5/CyLib.c ****             CyILO_Stop100K();
ARM GAS  C:\Users\Rolando\AppData\Local\Temp\ccmqTZg9.s 			page 15


 475              		.loc 1 322 0
 476 0068 FFF7FEFF 		bl	CyILO_Stop100K
 477              	.L29:
 323:.\Generated_Source\PSoC5/CyLib.c ****         }
 324:.\Generated_Source\PSoC5/CyLib.c **** 
 325:.\Generated_Source\PSoC5/CyLib.c ****         CY_LIB_PM_TW_CFG0_REG = pmFtwCfg0Reg;
 478              		.loc 1 325 0
 479 006c 074A     		ldr	r2, .L30+12
 480 006e BB7B     		ldrb	r3, [r7, #14]
 481 0070 1370     		strb	r3, [r2]
 326:.\Generated_Source\PSoC5/CyLib.c ****         CY_LIB_PM_TW_CFG2_REG = pmFtwCfg2Reg;
 482              		.loc 1 326 0
 483 0072 074A     		ldr	r2, .L30+16
 484 0074 7B7B     		ldrb	r3, [r7, #13]
 485 0076 1370     		strb	r3, [r2]
 486              	.L26:
 327:.\Generated_Source\PSoC5/CyLib.c ****     }
 328:.\Generated_Source\PSoC5/CyLib.c **** }
 487              		.loc 1 328 0
 488 0078 1037     		adds	r7, r7, #16
 489              		.cfi_def_cfa_offset 8
 490 007a BD46     		mov	sp, r7
 491              		.cfi_def_cfa_register 13
 492              		@ sp needed
 493 007c 80BD     		pop	{r7, pc}
 494              	.L31:
 495 007e 00BF     		.align	2
 496              	.L30:
 497 0080 A0430040 		.word	1073759136
 498 0084 B0430040 		.word	1073759152
 499 0088 00430040 		.word	1073758976
 500 008c 80430040 		.word	1073759104
 501 0090 82430040 		.word	1073759106
 502              		.cfi_endproc
 503              	.LFE4:
 504              		.size	CyIMO_Start, .-CyIMO_Start
 505              		.section	.text.CyIMO_Stop,"ax",%progbits
 506              		.align	2
 507              		.global	CyIMO_Stop
 508              		.thumb
 509              		.thumb_func
 510              		.type	CyIMO_Stop, %function
 511              	CyIMO_Stop:
 512              	.LFB5:
 329:.\Generated_Source\PSoC5/CyLib.c **** 
 330:.\Generated_Source\PSoC5/CyLib.c **** 
 331:.\Generated_Source\PSoC5/CyLib.c **** /*******************************************************************************
 332:.\Generated_Source\PSoC5/CyLib.c **** * Function Name: CyIMO_Stop
 333:.\Generated_Source\PSoC5/CyLib.c **** ********************************************************************************
 334:.\Generated_Source\PSoC5/CyLib.c **** *
 335:.\Generated_Source\PSoC5/CyLib.c **** * Summary:
 336:.\Generated_Source\PSoC5/CyLib.c **** *   Disables the IMO.
 337:.\Generated_Source\PSoC5/CyLib.c **** *
 338:.\Generated_Source\PSoC5/CyLib.c **** * Parameters:
 339:.\Generated_Source\PSoC5/CyLib.c **** *  None
 340:.\Generated_Source\PSoC5/CyLib.c **** *
 341:.\Generated_Source\PSoC5/CyLib.c **** * Return:
ARM GAS  C:\Users\Rolando\AppData\Local\Temp\ccmqTZg9.s 			page 16


 342:.\Generated_Source\PSoC5/CyLib.c **** *  None
 343:.\Generated_Source\PSoC5/CyLib.c **** *
 344:.\Generated_Source\PSoC5/CyLib.c **** *******************************************************************************/
 345:.\Generated_Source\PSoC5/CyLib.c **** void CyIMO_Stop(void) 
 346:.\Generated_Source\PSoC5/CyLib.c **** {
 513              		.loc 1 346 0
 514              		.cfi_startproc
 515              		@ args = 0, pretend = 0, frame = 0
 516              		@ frame_needed = 1, uses_anonymous_args = 0
 517              		@ link register save eliminated.
 518 0000 80B4     		push	{r7}
 519              		.cfi_def_cfa_offset 4
 520              		.cfi_offset 7, -4
 521 0002 00AF     		add	r7, sp, #0
 522              		.cfi_def_cfa_register 7
 347:.\Generated_Source\PSoC5/CyLib.c ****     CY_LIB_PM_ACT_CFG0_REG  &= ((uint8) (~CY_LIB_PM_ACT_CFG0_IMO_EN));
 523              		.loc 1 347 0
 524 0004 094A     		ldr	r2, .L33
 525 0006 094B     		ldr	r3, .L33
 526 0008 1B78     		ldrb	r3, [r3]
 527 000a DBB2     		uxtb	r3, r3
 528 000c 23F01003 		bic	r3, r3, #16
 529 0010 DBB2     		uxtb	r3, r3
 530 0012 1370     		strb	r3, [r2]
 348:.\Generated_Source\PSoC5/CyLib.c ****     CY_LIB_PM_STBY_CFG0_REG &= ((uint8) (~CY_LIB_PM_STBY_CFG0_IMO_EN));
 531              		.loc 1 348 0
 532 0014 064A     		ldr	r2, .L33+4
 533 0016 064B     		ldr	r3, .L33+4
 534 0018 1B78     		ldrb	r3, [r3]
 535 001a DBB2     		uxtb	r3, r3
 536 001c 23F01003 		bic	r3, r3, #16
 537 0020 DBB2     		uxtb	r3, r3
 538 0022 1370     		strb	r3, [r2]
 349:.\Generated_Source\PSoC5/CyLib.c **** }
 539              		.loc 1 349 0
 540 0024 BD46     		mov	sp, r7
 541              		.cfi_def_cfa_register 13
 542              		@ sp needed
 543 0026 5DF8047B 		ldr	r7, [sp], #4
 544              		.cfi_restore 7
 545              		.cfi_def_cfa_offset 0
 546 002a 7047     		bx	lr
 547              	.L34:
 548              		.align	2
 549              	.L33:
 550 002c A0430040 		.word	1073759136
 551 0030 B0430040 		.word	1073759152
 552              		.cfi_endproc
 553              	.LFE5:
 554              		.size	CyIMO_Stop, .-CyIMO_Stop
 555              		.section	.text.CyUSB_PowerOnCheck,"ax",%progbits
 556              		.align	2
 557              		.thumb
 558              		.thumb_func
 559              		.type	CyUSB_PowerOnCheck, %function
 560              	CyUSB_PowerOnCheck:
 561              	.LFB6:
ARM GAS  C:\Users\Rolando\AppData\Local\Temp\ccmqTZg9.s 			page 17


 350:.\Generated_Source\PSoC5/CyLib.c **** 
 351:.\Generated_Source\PSoC5/CyLib.c **** 
 352:.\Generated_Source\PSoC5/CyLib.c **** /*******************************************************************************
 353:.\Generated_Source\PSoC5/CyLib.c **** * Function Name: CyUSB_PowerOnCheck
 354:.\Generated_Source\PSoC5/CyLib.c **** ********************************************************************************
 355:.\Generated_Source\PSoC5/CyLib.c **** *
 356:.\Generated_Source\PSoC5/CyLib.c **** * Summary:
 357:.\Generated_Source\PSoC5/CyLib.c **** *  Returns the USB power status value. A private function to cy_boot.
 358:.\Generated_Source\PSoC5/CyLib.c **** *
 359:.\Generated_Source\PSoC5/CyLib.c **** * Parameters:
 360:.\Generated_Source\PSoC5/CyLib.c **** *   None
 361:.\Generated_Source\PSoC5/CyLib.c **** *
 362:.\Generated_Source\PSoC5/CyLib.c **** * Return:
 363:.\Generated_Source\PSoC5/CyLib.c **** *   uint8: one if the USB is enabled, 0 if not enabled.
 364:.\Generated_Source\PSoC5/CyLib.c **** *
 365:.\Generated_Source\PSoC5/CyLib.c **** *******************************************************************************/
 366:.\Generated_Source\PSoC5/CyLib.c **** static uint8 CyUSB_PowerOnCheck(void)  
 367:.\Generated_Source\PSoC5/CyLib.c **** {
 562              		.loc 1 367 0
 563              		.cfi_startproc
 564              		@ args = 0, pretend = 0, frame = 8
 565              		@ frame_needed = 1, uses_anonymous_args = 0
 566              		@ link register save eliminated.
 567 0000 80B4     		push	{r7}
 568              		.cfi_def_cfa_offset 4
 569              		.cfi_offset 7, -4
 570 0002 83B0     		sub	sp, sp, #12
 571              		.cfi_def_cfa_offset 16
 572 0004 00AF     		add	r7, sp, #0
 573              		.cfi_def_cfa_register 7
 368:.\Generated_Source\PSoC5/CyLib.c ****     uint8 poweredOn = 0u;
 574              		.loc 1 368 0
 575 0006 0023     		movs	r3, #0
 576 0008 FB71     		strb	r3, [r7, #7]
 369:.\Generated_Source\PSoC5/CyLib.c **** 
 370:.\Generated_Source\PSoC5/CyLib.c ****     /* Check whether device is in Active or AltActiv and if USB is powered on */
 371:.\Generated_Source\PSoC5/CyLib.c ****     if((((CY_PM_MODE_CSR_REG & CY_PM_MODE_CSR_MASK) == CY_PM_MODE_CSR_ACTIVE ) &&
 577              		.loc 1 371 0
 578 000a 124B     		ldr	r3, .L40
 579 000c 1B78     		ldrb	r3, [r3]
 580 000e DBB2     		uxtb	r3, r3
 581 0010 03F00703 		and	r3, r3, #7
 582 0014 002B     		cmp	r3, #0
 583 0016 06D1     		bne	.L36
 372:.\Generated_Source\PSoC5/CyLib.c ****        (0u != (CY_LIB_PM_ACT_CFG5_REG & CY_ACT_USB_ENABLED     )))  ||
 584              		.loc 1 372 0 discriminator 1
 585 0018 0F4B     		ldr	r3, .L40+4
 586 001a 1B78     		ldrb	r3, [r3]
 587 001c DBB2     		uxtb	r3, r3
 588 001e 03F00103 		and	r3, r3, #1
 371:.\Generated_Source\PSoC5/CyLib.c ****        (0u != (CY_LIB_PM_ACT_CFG5_REG & CY_ACT_USB_ENABLED     )))  ||
 589              		.loc 1 371 0 discriminator 1
 590 0022 002B     		cmp	r3, #0
 591 0024 0DD1     		bne	.L37
 592              	.L36:
 373:.\Generated_Source\PSoC5/CyLib.c ****        (((CY_PM_MODE_CSR_REG & CY_PM_MODE_CSR_MASK) == CY_PM_MODE_CSR_ALT_ACT) &&
 593              		.loc 1 373 0
ARM GAS  C:\Users\Rolando\AppData\Local\Temp\ccmqTZg9.s 			page 18


 594 0026 0B4B     		ldr	r3, .L40
 595 0028 1B78     		ldrb	r3, [r3]
 596 002a DBB2     		uxtb	r3, r3
 597 002c 03F00703 		and	r3, r3, #7
 372:.\Generated_Source\PSoC5/CyLib.c ****        (0u != (CY_LIB_PM_ACT_CFG5_REG & CY_ACT_USB_ENABLED     )))  ||
 598              		.loc 1 372 0
 599 0030 012B     		cmp	r3, #1
 600 0032 08D1     		bne	.L38
 374:.\Generated_Source\PSoC5/CyLib.c ****        (0u != (CY_LIB_PM_STBY_CFG5_REG & CY_ALT_ACT_USB_ENABLED))))
 601              		.loc 1 374 0
 602 0034 094B     		ldr	r3, .L40+8
 603 0036 1B78     		ldrb	r3, [r3]
 604 0038 DBB2     		uxtb	r3, r3
 605 003a 03F00103 		and	r3, r3, #1
 373:.\Generated_Source\PSoC5/CyLib.c ****        (((CY_PM_MODE_CSR_REG & CY_PM_MODE_CSR_MASK) == CY_PM_MODE_CSR_ALT_ACT) &&
 606              		.loc 1 373 0
 607 003e 002B     		cmp	r3, #0
 608 0040 01D0     		beq	.L38
 609              	.L37:
 375:.\Generated_Source\PSoC5/CyLib.c ****     {
 376:.\Generated_Source\PSoC5/CyLib.c ****         poweredOn = 1u;
 610              		.loc 1 376 0
 611 0042 0123     		movs	r3, #1
 612 0044 FB71     		strb	r3, [r7, #7]
 613              	.L38:
 377:.\Generated_Source\PSoC5/CyLib.c ****     }
 378:.\Generated_Source\PSoC5/CyLib.c **** 
 379:.\Generated_Source\PSoC5/CyLib.c ****     return (poweredOn);
 614              		.loc 1 379 0
 615 0046 FB79     		ldrb	r3, [r7, #7]	@ zero_extendqisi2
 380:.\Generated_Source\PSoC5/CyLib.c **** }
 616              		.loc 1 380 0
 617 0048 1846     		mov	r0, r3
 618 004a 0C37     		adds	r7, r7, #12
 619              		.cfi_def_cfa_offset 4
 620 004c BD46     		mov	sp, r7
 621              		.cfi_def_cfa_register 13
 622              		@ sp needed
 623 004e 5DF8047B 		ldr	r7, [sp], #4
 624              		.cfi_restore 7
 625              		.cfi_def_cfa_offset 0
 626 0052 7047     		bx	lr
 627              	.L41:
 628              		.align	2
 629              	.L40:
 630 0054 93430040 		.word	1073759123
 631 0058 A5430040 		.word	1073759141
 632 005c B5430040 		.word	1073759157
 633              		.cfi_endproc
 634              	.LFE6:
 635              		.size	CyUSB_PowerOnCheck, .-CyUSB_PowerOnCheck
 636              		.section	.text.CyIMO_SetTrimValue,"ax",%progbits
 637              		.align	2
 638              		.thumb
 639              		.thumb_func
 640              		.type	CyIMO_SetTrimValue, %function
 641              	CyIMO_SetTrimValue:
ARM GAS  C:\Users\Rolando\AppData\Local\Temp\ccmqTZg9.s 			page 19


 642              	.LFB7:
 381:.\Generated_Source\PSoC5/CyLib.c **** 
 382:.\Generated_Source\PSoC5/CyLib.c **** 
 383:.\Generated_Source\PSoC5/CyLib.c **** /*******************************************************************************
 384:.\Generated_Source\PSoC5/CyLib.c **** * Function Name: CyIMO_SetTrimValue
 385:.\Generated_Source\PSoC5/CyLib.c **** ********************************************************************************
 386:.\Generated_Source\PSoC5/CyLib.c **** *
 387:.\Generated_Source\PSoC5/CyLib.c **** * Summary:
 388:.\Generated_Source\PSoC5/CyLib.c **** *  Sets the IMO factory trim values.
 389:.\Generated_Source\PSoC5/CyLib.c **** *
 390:.\Generated_Source\PSoC5/CyLib.c **** * Parameters:
 391:.\Generated_Source\PSoC5/CyLib.c **** *  uint8 freq - frequency for which trims must be set
 392:.\Generated_Source\PSoC5/CyLib.c **** *
 393:.\Generated_Source\PSoC5/CyLib.c **** * Return:
 394:.\Generated_Source\PSoC5/CyLib.c **** *  None
 395:.\Generated_Source\PSoC5/CyLib.c **** *
 396:.\Generated_Source\PSoC5/CyLib.c **** *******************************************************************************/
 397:.\Generated_Source\PSoC5/CyLib.c **** static void CyIMO_SetTrimValue(uint8 freq) 
 398:.\Generated_Source\PSoC5/CyLib.c **** {
 643              		.loc 1 398 0
 644              		.cfi_startproc
 645              		@ args = 0, pretend = 0, frame = 16
 646              		@ frame_needed = 1, uses_anonymous_args = 0
 647 0000 80B5     		push	{r7, lr}
 648              		.cfi_def_cfa_offset 8
 649              		.cfi_offset 7, -8
 650              		.cfi_offset 14, -4
 651 0002 84B0     		sub	sp, sp, #16
 652              		.cfi_def_cfa_offset 24
 653 0004 00AF     		add	r7, sp, #0
 654              		.cfi_def_cfa_register 7
 655 0006 0346     		mov	r3, r0
 656 0008 FB71     		strb	r3, [r7, #7]
 399:.\Generated_Source\PSoC5/CyLib.c ****     uint8 usbPowerOn = CyUSB_PowerOnCheck();
 657              		.loc 1 399 0
 658 000a FFF7FEFF 		bl	CyUSB_PowerOnCheck
 659 000e 0346     		mov	r3, r0
 660 0010 FB73     		strb	r3, [r7, #15]
 400:.\Generated_Source\PSoC5/CyLib.c **** 
 401:.\Generated_Source\PSoC5/CyLib.c ****     /* If USB is powered */
 402:.\Generated_Source\PSoC5/CyLib.c ****     if(usbPowerOn == 1u)
 661              		.loc 1 402 0
 662 0012 FB7B     		ldrb	r3, [r7, #15]	@ zero_extendqisi2
 663 0014 012B     		cmp	r3, #1
 664 0016 07D1     		bne	.L43
 403:.\Generated_Source\PSoC5/CyLib.c ****     {
 404:.\Generated_Source\PSoC5/CyLib.c ****         /* Unlock USB write */
 405:.\Generated_Source\PSoC5/CyLib.c ****         CY_LIB_USB_CR1_REG &= ((uint8)(~CY_LIB_USB_CLK_EN));
 665              		.loc 1 405 0
 666 0018 314A     		ldr	r2, .L56
 667 001a 314B     		ldr	r3, .L56
 668 001c 1B78     		ldrb	r3, [r3]
 669 001e DBB2     		uxtb	r3, r3
 670 0020 23F00203 		bic	r3, r3, #2
 671 0024 DBB2     		uxtb	r3, r3
 672 0026 1370     		strb	r3, [r2]
 673              	.L43:
ARM GAS  C:\Users\Rolando\AppData\Local\Temp\ccmqTZg9.s 			page 20


 406:.\Generated_Source\PSoC5/CyLib.c ****     }
 407:.\Generated_Source\PSoC5/CyLib.c ****     switch(freq)
 674              		.loc 1 407 0
 675 0028 FB79     		ldrb	r3, [r7, #7]	@ zero_extendqisi2
 676 002a 082B     		cmp	r3, #8
 677 002c 50D8     		bhi	.L44
 678 002e 01A2     		adr	r2, .L46
 679 0030 52F823F0 		ldr	pc, [r2, r3, lsl #2]
 680              		.p2align 2
 681              	.L46:
 682 0034 59000000 		.word	.L45+1
 683 0038 65000000 		.word	.L47+1
 684 003c 71000000 		.word	.L48+1
 685 0040 7D000000 		.word	.L49+1
 686 0044 89000000 		.word	.L50+1
 687 0048 95000000 		.word	.L51+1
 688 004c A1000000 		.word	.L52+1
 689 0050 D1000000 		.word	.L44+1
 690 0054 AD000000 		.word	.L53+1
 691              		.p2align 1
 692              	.L45:
 408:.\Generated_Source\PSoC5/CyLib.c ****     {
 409:.\Generated_Source\PSoC5/CyLib.c ****     case CY_IMO_FREQ_3MHZ:
 410:.\Generated_Source\PSoC5/CyLib.c ****         CY_LIB_IMO_TR1_REG = CY_GET_XTND_REG8(CY_LIB_TRIM_IMO_3MHZ_PTR);
 693              		.loc 1 410 0
 694 0058 224B     		ldr	r3, .L56+4
 695 005a 234A     		ldr	r2, .L56+8
 696 005c 1278     		ldrb	r2, [r2]
 697 005e D2B2     		uxtb	r2, r2
 698 0060 1A70     		strb	r2, [r3]
 411:.\Generated_Source\PSoC5/CyLib.c ****         break;
 699              		.loc 1 411 0
 700 0062 39E0     		b	.L42
 701              	.L47:
 412:.\Generated_Source\PSoC5/CyLib.c **** 
 413:.\Generated_Source\PSoC5/CyLib.c ****     case CY_IMO_FREQ_6MHZ:
 414:.\Generated_Source\PSoC5/CyLib.c ****         CY_LIB_IMO_TR1_REG = CY_GET_XTND_REG8(CY_LIB_TRIM_IMO_6MHZ_PTR);
 702              		.loc 1 414 0
 703 0064 1F4B     		ldr	r3, .L56+4
 704 0066 214A     		ldr	r2, .L56+12
 705 0068 1278     		ldrb	r2, [r2]
 706 006a D2B2     		uxtb	r2, r2
 707 006c 1A70     		strb	r2, [r3]
 415:.\Generated_Source\PSoC5/CyLib.c ****         break;
 708              		.loc 1 415 0
 709 006e 33E0     		b	.L42
 710              	.L48:
 416:.\Generated_Source\PSoC5/CyLib.c **** 
 417:.\Generated_Source\PSoC5/CyLib.c ****     case CY_IMO_FREQ_12MHZ:
 418:.\Generated_Source\PSoC5/CyLib.c ****         CY_LIB_IMO_TR1_REG = CY_GET_XTND_REG8(CY_LIB_TRIM_IMO_12MHZ_PTR);
 711              		.loc 1 418 0
 712 0070 1C4B     		ldr	r3, .L56+4
 713 0072 1F4A     		ldr	r2, .L56+16
 714 0074 1278     		ldrb	r2, [r2]
 715 0076 D2B2     		uxtb	r2, r2
 716 0078 1A70     		strb	r2, [r3]
 419:.\Generated_Source\PSoC5/CyLib.c ****         break;
ARM GAS  C:\Users\Rolando\AppData\Local\Temp\ccmqTZg9.s 			page 21


 717              		.loc 1 419 0
 718 007a 2DE0     		b	.L42
 719              	.L49:
 420:.\Generated_Source\PSoC5/CyLib.c **** 
 421:.\Generated_Source\PSoC5/CyLib.c ****     case CY_IMO_FREQ_24MHZ:
 422:.\Generated_Source\PSoC5/CyLib.c ****         CY_LIB_IMO_TR1_REG = CY_GET_XTND_REG8(CY_LIB_TRIM_IMO_24MHZ_PTR);
 720              		.loc 1 422 0
 721 007c 194B     		ldr	r3, .L56+4
 722 007e 1D4A     		ldr	r2, .L56+20
 723 0080 1278     		ldrb	r2, [r2]
 724 0082 D2B2     		uxtb	r2, r2
 725 0084 1A70     		strb	r2, [r3]
 423:.\Generated_Source\PSoC5/CyLib.c ****         break;
 726              		.loc 1 423 0
 727 0086 27E0     		b	.L42
 728              	.L50:
 424:.\Generated_Source\PSoC5/CyLib.c **** 
 425:.\Generated_Source\PSoC5/CyLib.c ****     case CY_IMO_FREQ_48MHZ:
 426:.\Generated_Source\PSoC5/CyLib.c ****         CY_LIB_IMO_TR1_REG = CY_GET_XTND_REG8(CY_LIB_TRIM_IMO_TR1_PTR);
 729              		.loc 1 426 0
 730 0088 164B     		ldr	r3, .L56+4
 731 008a 1B4A     		ldr	r2, .L56+24
 732 008c 1278     		ldrb	r2, [r2]
 733 008e D2B2     		uxtb	r2, r2
 734 0090 1A70     		strb	r2, [r3]
 427:.\Generated_Source\PSoC5/CyLib.c ****         break;
 735              		.loc 1 427 0
 736 0092 21E0     		b	.L42
 737              	.L51:
 428:.\Generated_Source\PSoC5/CyLib.c **** 
 429:.\Generated_Source\PSoC5/CyLib.c ****     case CY_IMO_FREQ_62MHZ:
 430:.\Generated_Source\PSoC5/CyLib.c ****         CY_LIB_IMO_TR1_REG = CY_GET_XTND_REG8(CY_LIB_TRIM_IMO_67MHZ_PTR);
 738              		.loc 1 430 0
 739 0094 134B     		ldr	r3, .L56+4
 740 0096 194A     		ldr	r2, .L56+28
 741 0098 1278     		ldrb	r2, [r2]
 742 009a D2B2     		uxtb	r2, r2
 743 009c 1A70     		strb	r2, [r3]
 431:.\Generated_Source\PSoC5/CyLib.c ****         break;
 744              		.loc 1 431 0
 745 009e 1BE0     		b	.L42
 746              	.L52:
 432:.\Generated_Source\PSoC5/CyLib.c **** 
 433:.\Generated_Source\PSoC5/CyLib.c **** #if(CY_PSOC5)
 434:.\Generated_Source\PSoC5/CyLib.c ****     case CY_IMO_FREQ_74MHZ:
 435:.\Generated_Source\PSoC5/CyLib.c ****         CY_LIB_IMO_TR1_REG = CY_GET_XTND_REG8(CY_LIB_TRIM_IMO_80MHZ_PTR);
 747              		.loc 1 435 0
 748 00a0 104B     		ldr	r3, .L56+4
 749 00a2 174A     		ldr	r2, .L56+32
 750 00a4 1278     		ldrb	r2, [r2]
 751 00a6 D2B2     		uxtb	r2, r2
 752 00a8 1A70     		strb	r2, [r3]
 436:.\Generated_Source\PSoC5/CyLib.c ****         break;
 753              		.loc 1 436 0
 754 00aa 15E0     		b	.L42
 755              	.L53:
 437:.\Generated_Source\PSoC5/CyLib.c **** #endif  /* (CY_PSOC5) */
ARM GAS  C:\Users\Rolando\AppData\Local\Temp\ccmqTZg9.s 			page 22


 438:.\Generated_Source\PSoC5/CyLib.c **** 
 439:.\Generated_Source\PSoC5/CyLib.c ****     case CY_IMO_FREQ_USB:
 440:.\Generated_Source\PSoC5/CyLib.c ****         CY_LIB_IMO_TR1_REG = CY_GET_XTND_REG8(CY_LIB_TRIM_IMO_USB_PTR);
 756              		.loc 1 440 0
 757 00ac 0D4B     		ldr	r3, .L56+4
 758 00ae 154A     		ldr	r2, .L56+36
 759 00b0 1278     		ldrb	r2, [r2]
 760 00b2 D2B2     		uxtb	r2, r2
 761 00b4 1A70     		strb	r2, [r3]
 441:.\Generated_Source\PSoC5/CyLib.c **** 
 442:.\Generated_Source\PSoC5/CyLib.c ****         /* If USB is powered */
 443:.\Generated_Source\PSoC5/CyLib.c ****         if(usbPowerOn == 1u)
 762              		.loc 1 443 0
 763 00b6 FB7B     		ldrb	r3, [r7, #15]	@ zero_extendqisi2
 764 00b8 012B     		cmp	r3, #1
 765 00ba 08D1     		bne	.L55
 444:.\Generated_Source\PSoC5/CyLib.c ****         {
 445:.\Generated_Source\PSoC5/CyLib.c ****             /* Lock the USB Oscillator */
 446:.\Generated_Source\PSoC5/CyLib.c ****             CY_LIB_USB_CR1_REG |= CY_LIB_USB_CLK_EN;
 766              		.loc 1 446 0
 767 00bc 084A     		ldr	r2, .L56
 768 00be 084B     		ldr	r3, .L56
 769 00c0 1B78     		ldrb	r3, [r3]
 770 00c2 DBB2     		uxtb	r3, r3
 771 00c4 43F00203 		orr	r3, r3, #2
 772 00c8 DBB2     		uxtb	r3, r3
 773 00ca 1370     		strb	r3, [r2]
 447:.\Generated_Source\PSoC5/CyLib.c ****         }
 448:.\Generated_Source\PSoC5/CyLib.c ****         break;
 774              		.loc 1 448 0
 775 00cc 04E0     		b	.L42
 776              	.L55:
 777 00ce 03E0     		b	.L42
 778              	.L44:
 449:.\Generated_Source\PSoC5/CyLib.c **** 
 450:.\Generated_Source\PSoC5/CyLib.c ****     default:
 451:.\Generated_Source\PSoC5/CyLib.c ****             CYASSERT(0u != 0u);
 779              		.loc 1 451 0
 780 00d0 0020     		movs	r0, #0
 781 00d2 FFF7FEFF 		bl	CyHalt
 452:.\Generated_Source\PSoC5/CyLib.c ****         break;
 782              		.loc 1 452 0
 783 00d6 00BF     		nop
 784              	.L42:
 453:.\Generated_Source\PSoC5/CyLib.c ****     }
 454:.\Generated_Source\PSoC5/CyLib.c **** 
 455:.\Generated_Source\PSoC5/CyLib.c **** }
 785              		.loc 1 455 0
 786 00d8 1037     		adds	r7, r7, #16
 787              		.cfi_def_cfa_offset 8
 788 00da BD46     		mov	sp, r7
 789              		.cfi_def_cfa_register 13
 790              		@ sp needed
 791 00dc 80BD     		pop	{r7, pc}
 792              	.L57:
 793 00de 00BF     		.align	2
 794              	.L56:
ARM GAS  C:\Users\Rolando\AppData\Local\Temp\ccmqTZg9.s 			page 23


 795 00e0 09600040 		.word	1073766409
 796 00e4 A1460040 		.word	1073759905
 797 00e8 08010049 		.word	1224737032
 798 00ec 09010049 		.word	1224737033
 799 00f0 0A010049 		.word	1224737034
 800 00f4 0B010049 		.word	1224737035
 801 00f8 89010049 		.word	1224737161
 802 00fc 0C010049 		.word	1224737036
 803 0100 0D010049 		.word	1224737037
 804 0104 0F010049 		.word	1224737039
 805              		.cfi_endproc
 806              	.LFE7:
 807              		.size	CyIMO_SetTrimValue, .-CyIMO_SetTrimValue
 808              		.section	.text.CyIMO_SetFreq,"ax",%progbits
 809              		.align	2
 810              		.global	CyIMO_SetFreq
 811              		.thumb
 812              		.thumb_func
 813              		.type	CyIMO_SetFreq, %function
 814              	CyIMO_SetFreq:
 815              	.LFB8:
 456:.\Generated_Source\PSoC5/CyLib.c **** 
 457:.\Generated_Source\PSoC5/CyLib.c **** 
 458:.\Generated_Source\PSoC5/CyLib.c **** /*******************************************************************************
 459:.\Generated_Source\PSoC5/CyLib.c **** * Function Name: CyIMO_SetFreq
 460:.\Generated_Source\PSoC5/CyLib.c **** ********************************************************************************
 461:.\Generated_Source\PSoC5/CyLib.c **** *
 462:.\Generated_Source\PSoC5/CyLib.c **** * Summary:
 463:.\Generated_Source\PSoC5/CyLib.c **** *  Sets the frequency of the IMO. Changes may be made while the IMO is running.
 464:.\Generated_Source\PSoC5/CyLib.c **** *
 465:.\Generated_Source\PSoC5/CyLib.c **** * Parameters:
 466:.\Generated_Source\PSoC5/CyLib.c **** *  freq: Frequency of IMO operation
 467:.\Generated_Source\PSoC5/CyLib.c **** *       CY_IMO_FREQ_3MHZ  to set  3   MHz
 468:.\Generated_Source\PSoC5/CyLib.c **** *       CY_IMO_FREQ_6MHZ  to set  6   MHz
 469:.\Generated_Source\PSoC5/CyLib.c **** *       CY_IMO_FREQ_12MHZ to set 12   MHz
 470:.\Generated_Source\PSoC5/CyLib.c **** *       CY_IMO_FREQ_24MHZ to set 24   MHz
 471:.\Generated_Source\PSoC5/CyLib.c **** *       CY_IMO_FREQ_48MHZ to set 48   MHz
 472:.\Generated_Source\PSoC5/CyLib.c **** *       CY_IMO_FREQ_62MHZ to set 62.6 MHz
 473:.\Generated_Source\PSoC5/CyLib.c **** *       CY_IMO_FREQ_74MHZ to set 74.7 MHz (not applicable for PSoC 3)
 474:.\Generated_Source\PSoC5/CyLib.c **** *       CY_IMO_FREQ_USB   to set 24   MHz (Trimmed for USB operation)
 475:.\Generated_Source\PSoC5/CyLib.c **** *
 476:.\Generated_Source\PSoC5/CyLib.c **** * Return:
 477:.\Generated_Source\PSoC5/CyLib.c **** *  None
 478:.\Generated_Source\PSoC5/CyLib.c **** *
 479:.\Generated_Source\PSoC5/CyLib.c **** * Side Effects:
 480:.\Generated_Source\PSoC5/CyLib.c **** *  If as result of this function execution the CPU clock frequency is increased
 481:.\Generated_Source\PSoC5/CyLib.c **** *  then the number of clock cycles the cache will wait before it samples data
 482:.\Generated_Source\PSoC5/CyLib.c **** *  coming back from Flash must be adjusted by calling CyFlash_SetWaitCycles()
 483:.\Generated_Source\PSoC5/CyLib.c **** *  with appropriate parameter. It can be optionally called if CPU clock
 484:.\Generated_Source\PSoC5/CyLib.c **** *  frequency is lowered in order to improve CPU performance.
 485:.\Generated_Source\PSoC5/CyLib.c **** *  See CyFlash_SetWaitCycles() description for more information.
 486:.\Generated_Source\PSoC5/CyLib.c **** *
 487:.\Generated_Source\PSoC5/CyLib.c **** *  When the USB setting is chosen, the USB clock locking circuit is enabled.
 488:.\Generated_Source\PSoC5/CyLib.c **** *  Otherwise this circuit is disabled. The USB block must be powered before
 489:.\Generated_Source\PSoC5/CyLib.c **** *  selecting the USB setting.
 490:.\Generated_Source\PSoC5/CyLib.c **** *
 491:.\Generated_Source\PSoC5/CyLib.c **** *******************************************************************************/
ARM GAS  C:\Users\Rolando\AppData\Local\Temp\ccmqTZg9.s 			page 24


 492:.\Generated_Source\PSoC5/CyLib.c **** void CyIMO_SetFreq(uint8 freq) 
 493:.\Generated_Source\PSoC5/CyLib.c **** {
 816              		.loc 1 493 0
 817              		.cfi_startproc
 818              		@ args = 0, pretend = 0, frame = 16
 819              		@ frame_needed = 1, uses_anonymous_args = 0
 820 0000 80B5     		push	{r7, lr}
 821              		.cfi_def_cfa_offset 8
 822              		.cfi_offset 7, -8
 823              		.cfi_offset 14, -4
 824 0002 84B0     		sub	sp, sp, #16
 825              		.cfi_def_cfa_offset 24
 826 0004 00AF     		add	r7, sp, #0
 827              		.cfi_def_cfa_register 7
 828 0006 0346     		mov	r3, r0
 829 0008 FB71     		strb	r3, [r7, #7]
 494:.\Generated_Source\PSoC5/CyLib.c ****     uint8 currentFreq;
 495:.\Generated_Source\PSoC5/CyLib.c ****     uint8 nextFreq;
 496:.\Generated_Source\PSoC5/CyLib.c **** 
 497:.\Generated_Source\PSoC5/CyLib.c ****     /***************************************************************************
 498:.\Generated_Source\PSoC5/CyLib.c ****     * When changing the IMO frequency the Trim values must also be set
 499:.\Generated_Source\PSoC5/CyLib.c ****     * accordingly.This requires reading the current frequency. If the new
 500:.\Generated_Source\PSoC5/CyLib.c ****     * frequency is faster, then set the new trim and then change the frequency,
 501:.\Generated_Source\PSoC5/CyLib.c ****     * otherwise change the frequency and then set the new trim values.
 502:.\Generated_Source\PSoC5/CyLib.c ****     ***************************************************************************/
 503:.\Generated_Source\PSoC5/CyLib.c **** 
 504:.\Generated_Source\PSoC5/CyLib.c ****     currentFreq = CY_LIB_FASTCLK_IMO_CR_REG & ((uint8)(~CY_LIB_FASTCLK_IMO_CR_RANGE_MASK));
 830              		.loc 1 504 0
 831 000a 674B     		ldr	r3, .L86
 832 000c 1B78     		ldrb	r3, [r3]
 833 000e DBB2     		uxtb	r3, r3
 834 0010 03F00703 		and	r3, r3, #7
 835 0014 FB73     		strb	r3, [r7, #15]
 505:.\Generated_Source\PSoC5/CyLib.c **** 
 506:.\Generated_Source\PSoC5/CyLib.c ****     /* Check if the requested frequency is USB. */
 507:.\Generated_Source\PSoC5/CyLib.c ****     nextFreq = (freq == CY_IMO_FREQ_USB) ? CY_IMO_FREQ_24MHZ : freq;
 836              		.loc 1 507 0
 837 0016 FB79     		ldrb	r3, [r7, #7]	@ zero_extendqisi2
 838 0018 082B     		cmp	r3, #8
 839 001a 01D0     		beq	.L59
 840              		.loc 1 507 0 is_stmt 0 discriminator 1
 841 001c FB79     		ldrb	r3, [r7, #7]	@ zero_extendqisi2
 842 001e 00E0     		b	.L60
 843              	.L59:
 844              		.loc 1 507 0 discriminator 2
 845 0020 0323     		movs	r3, #3
 846              	.L60:
 847              		.loc 1 507 0 discriminator 4
 848 0022 BB73     		strb	r3, [r7, #14]
 508:.\Generated_Source\PSoC5/CyLib.c **** 
 509:.\Generated_Source\PSoC5/CyLib.c ****     switch (currentFreq)
 849              		.loc 1 509 0 is_stmt 1 discriminator 4
 850 0024 FB7B     		ldrb	r3, [r7, #15]	@ zero_extendqisi2
 851 0026 062B     		cmp	r3, #6
 852 0028 25D8     		bhi	.L61
 853 002a 01A2     		adr	r2, .L63
 854 002c 52F823F0 		ldr	pc, [r2, r3, lsl #2]
ARM GAS  C:\Users\Rolando\AppData\Local\Temp\ccmqTZg9.s 			page 25


 855              		.p2align 2
 856              	.L63:
 857 0030 4D000000 		.word	.L62+1
 858 0034 53000000 		.word	.L64+1
 859 0038 59000000 		.word	.L65+1
 860 003c 5F000000 		.word	.L66+1
 861 0040 65000000 		.word	.L67+1
 862 0044 6B000000 		.word	.L68+1
 863 0048 71000000 		.word	.L69+1
 864              		.p2align 1
 865              	.L62:
 510:.\Generated_Source\PSoC5/CyLib.c ****     {
 511:.\Generated_Source\PSoC5/CyLib.c ****     case 0u:
 512:.\Generated_Source\PSoC5/CyLib.c ****         currentFreq = CY_IMO_FREQ_12MHZ;
 866              		.loc 1 512 0
 867 004c 0223     		movs	r3, #2
 868 004e FB73     		strb	r3, [r7, #15]
 513:.\Generated_Source\PSoC5/CyLib.c ****         break;
 869              		.loc 1 513 0
 870 0050 15E0     		b	.L70
 871              	.L64:
 514:.\Generated_Source\PSoC5/CyLib.c **** 
 515:.\Generated_Source\PSoC5/CyLib.c ****     case 1u:
 516:.\Generated_Source\PSoC5/CyLib.c ****         currentFreq = CY_IMO_FREQ_6MHZ;
 872              		.loc 1 516 0
 873 0052 0123     		movs	r3, #1
 874 0054 FB73     		strb	r3, [r7, #15]
 517:.\Generated_Source\PSoC5/CyLib.c ****         break;
 875              		.loc 1 517 0
 876 0056 12E0     		b	.L70
 877              	.L65:
 518:.\Generated_Source\PSoC5/CyLib.c **** 
 519:.\Generated_Source\PSoC5/CyLib.c ****     case 2u:
 520:.\Generated_Source\PSoC5/CyLib.c ****         currentFreq = CY_IMO_FREQ_24MHZ;
 878              		.loc 1 520 0
 879 0058 0323     		movs	r3, #3
 880 005a FB73     		strb	r3, [r7, #15]
 521:.\Generated_Source\PSoC5/CyLib.c ****         break;
 881              		.loc 1 521 0
 882 005c 0FE0     		b	.L70
 883              	.L66:
 522:.\Generated_Source\PSoC5/CyLib.c **** 
 523:.\Generated_Source\PSoC5/CyLib.c ****     case 3u:
 524:.\Generated_Source\PSoC5/CyLib.c ****         currentFreq = CY_IMO_FREQ_3MHZ;
 884              		.loc 1 524 0
 885 005e 0023     		movs	r3, #0
 886 0060 FB73     		strb	r3, [r7, #15]
 525:.\Generated_Source\PSoC5/CyLib.c ****         break;
 887              		.loc 1 525 0
 888 0062 0CE0     		b	.L70
 889              	.L67:
 526:.\Generated_Source\PSoC5/CyLib.c **** 
 527:.\Generated_Source\PSoC5/CyLib.c ****     case 4u:
 528:.\Generated_Source\PSoC5/CyLib.c ****         currentFreq = CY_IMO_FREQ_48MHZ;
 890              		.loc 1 528 0
 891 0064 0423     		movs	r3, #4
 892 0066 FB73     		strb	r3, [r7, #15]
ARM GAS  C:\Users\Rolando\AppData\Local\Temp\ccmqTZg9.s 			page 26


 529:.\Generated_Source\PSoC5/CyLib.c ****         break;
 893              		.loc 1 529 0
 894 0068 09E0     		b	.L70
 895              	.L68:
 530:.\Generated_Source\PSoC5/CyLib.c **** 
 531:.\Generated_Source\PSoC5/CyLib.c ****     case 5u:
 532:.\Generated_Source\PSoC5/CyLib.c ****         currentFreq = CY_IMO_FREQ_62MHZ;
 896              		.loc 1 532 0
 897 006a 0523     		movs	r3, #5
 898 006c FB73     		strb	r3, [r7, #15]
 533:.\Generated_Source\PSoC5/CyLib.c ****         break;
 899              		.loc 1 533 0
 900 006e 06E0     		b	.L70
 901              	.L69:
 534:.\Generated_Source\PSoC5/CyLib.c **** 
 535:.\Generated_Source\PSoC5/CyLib.c **** #if(CY_PSOC5)
 536:.\Generated_Source\PSoC5/CyLib.c ****     case 6u:
 537:.\Generated_Source\PSoC5/CyLib.c ****         currentFreq = CY_IMO_FREQ_74MHZ;
 902              		.loc 1 537 0
 903 0070 0623     		movs	r3, #6
 904 0072 FB73     		strb	r3, [r7, #15]
 538:.\Generated_Source\PSoC5/CyLib.c ****         break;
 905              		.loc 1 538 0
 906 0074 03E0     		b	.L70
 907              	.L61:
 539:.\Generated_Source\PSoC5/CyLib.c **** #endif  /* (CY_PSOC5) */
 540:.\Generated_Source\PSoC5/CyLib.c **** 
 541:.\Generated_Source\PSoC5/CyLib.c ****     default:
 542:.\Generated_Source\PSoC5/CyLib.c ****         CYASSERT(0u != 0u);
 908              		.loc 1 542 0
 909 0076 0020     		movs	r0, #0
 910 0078 FFF7FEFF 		bl	CyHalt
 543:.\Generated_Source\PSoC5/CyLib.c ****         break;
 911              		.loc 1 543 0
 912 007c 00BF     		nop
 913              	.L70:
 544:.\Generated_Source\PSoC5/CyLib.c ****     }
 545:.\Generated_Source\PSoC5/CyLib.c **** 
 546:.\Generated_Source\PSoC5/CyLib.c ****     if (nextFreq >= currentFreq)
 914              		.loc 1 546 0
 915 007e BA7B     		ldrb	r2, [r7, #14]	@ zero_extendqisi2
 916 0080 FB7B     		ldrb	r3, [r7, #15]	@ zero_extendqisi2
 917 0082 9A42     		cmp	r2, r3
 918 0084 03D3     		bcc	.L71
 547:.\Generated_Source\PSoC5/CyLib.c ****     {
 548:.\Generated_Source\PSoC5/CyLib.c ****         /* Set the new trim first */
 549:.\Generated_Source\PSoC5/CyLib.c ****         CyIMO_SetTrimValue(freq);
 919              		.loc 1 549 0
 920 0086 FB79     		ldrb	r3, [r7, #7]	@ zero_extendqisi2
 921 0088 1846     		mov	r0, r3
 922 008a FFF7FEFF 		bl	CyIMO_SetTrimValue
 923              	.L71:
 550:.\Generated_Source\PSoC5/CyLib.c ****     }
 551:.\Generated_Source\PSoC5/CyLib.c **** 
 552:.\Generated_Source\PSoC5/CyLib.c ****     /* Set the usbclk_on bit when using CY_IMO_FREQ_USB, if not clear it */
 553:.\Generated_Source\PSoC5/CyLib.c ****     switch(freq)
 924              		.loc 1 553 0
ARM GAS  C:\Users\Rolando\AppData\Local\Temp\ccmqTZg9.s 			page 27


 925 008e FB79     		ldrb	r3, [r7, #7]	@ zero_extendqisi2
 926 0090 082B     		cmp	r3, #8
 927 0092 72D8     		bhi	.L72
 928 0094 01A2     		adr	r2, .L74
 929 0096 52F823F0 		ldr	pc, [r2, r3, lsl #2]
 930 009a 00BF     		.p2align 2
 931              	.L74:
 932 009c C1000000 		.word	.L73+1
 933 00a0 D9000000 		.word	.L75+1
 934 00a4 F1000000 		.word	.L76+1
 935 00a8 03010000 		.word	.L77+1
 936 00ac 1B010000 		.word	.L78+1
 937 00b0 33010000 		.word	.L79+1
 938 00b4 4B010000 		.word	.L80+1
 939 00b8 7B010000 		.word	.L72+1
 940 00bc 63010000 		.word	.L81+1
 941              		.p2align 1
 942              	.L73:
 554:.\Generated_Source\PSoC5/CyLib.c ****     {
 555:.\Generated_Source\PSoC5/CyLib.c ****     case CY_IMO_FREQ_3MHZ:
 556:.\Generated_Source\PSoC5/CyLib.c ****         CY_LIB_FASTCLK_IMO_CR_REG = ((CY_LIB_FASTCLK_IMO_CR_REG & CY_LIB_FASTCLK_IMO_CR_RANGE_MASK)
 943              		.loc 1 556 0
 944 00c0 394A     		ldr	r2, .L86
 945 00c2 394B     		ldr	r3, .L86
 946 00c4 1B78     		ldrb	r3, [r3]
 947 00c6 DBB2     		uxtb	r3, r3
 948 00c8 23F04703 		bic	r3, r3, #71
 949 00cc DBB2     		uxtb	r3, r3
 950 00ce 43F00303 		orr	r3, r3, #3
 951 00d2 DBB2     		uxtb	r3, r3
 952 00d4 1370     		strb	r3, [r2]
 557:.\Generated_Source\PSoC5/CyLib.c ****             CY_LIB_IMO_3MHZ_VALUE) & ((uint8)(~CY_LIB_IMO_USBCLK_ON_SET));
 558:.\Generated_Source\PSoC5/CyLib.c ****         break;
 953              		.loc 1 558 0
 954 00d6 54E0     		b	.L82
 955              	.L75:
 559:.\Generated_Source\PSoC5/CyLib.c **** 
 560:.\Generated_Source\PSoC5/CyLib.c ****     case CY_IMO_FREQ_6MHZ:
 561:.\Generated_Source\PSoC5/CyLib.c ****         CY_LIB_FASTCLK_IMO_CR_REG = ((CY_LIB_FASTCLK_IMO_CR_REG & CY_LIB_FASTCLK_IMO_CR_RANGE_MASK)
 956              		.loc 1 561 0
 957 00d8 334A     		ldr	r2, .L86
 958 00da 334B     		ldr	r3, .L86
 959 00dc 1B78     		ldrb	r3, [r3]
 960 00de DBB2     		uxtb	r3, r3
 961 00e0 23F04703 		bic	r3, r3, #71
 962 00e4 DBB2     		uxtb	r3, r3
 963 00e6 43F00103 		orr	r3, r3, #1
 964 00ea DBB2     		uxtb	r3, r3
 965 00ec 1370     		strb	r3, [r2]
 562:.\Generated_Source\PSoC5/CyLib.c ****             CY_LIB_IMO_6MHZ_VALUE) & ((uint8)(~CY_LIB_IMO_USBCLK_ON_SET));
 563:.\Generated_Source\PSoC5/CyLib.c ****         break;
 966              		.loc 1 563 0
 967 00ee 48E0     		b	.L82
 968              	.L76:
 564:.\Generated_Source\PSoC5/CyLib.c **** 
 565:.\Generated_Source\PSoC5/CyLib.c ****     case CY_IMO_FREQ_12MHZ:
 566:.\Generated_Source\PSoC5/CyLib.c ****         CY_LIB_FASTCLK_IMO_CR_REG = ((CY_LIB_FASTCLK_IMO_CR_REG & CY_LIB_FASTCLK_IMO_CR_RANGE_MASK)
ARM GAS  C:\Users\Rolando\AppData\Local\Temp\ccmqTZg9.s 			page 28


 969              		.loc 1 566 0
 970 00f0 2D4A     		ldr	r2, .L86
 971 00f2 2D4B     		ldr	r3, .L86
 972 00f4 1B78     		ldrb	r3, [r3]
 973 00f6 DBB2     		uxtb	r3, r3
 974 00f8 23F04703 		bic	r3, r3, #71
 975 00fc DBB2     		uxtb	r3, r3
 976 00fe 1370     		strb	r3, [r2]
 567:.\Generated_Source\PSoC5/CyLib.c ****             CY_LIB_IMO_12MHZ_VALUE) & ((uint8)(~CY_LIB_IMO_USBCLK_ON_SET));
 568:.\Generated_Source\PSoC5/CyLib.c ****         break;
 977              		.loc 1 568 0
 978 0100 3FE0     		b	.L82
 979              	.L77:
 569:.\Generated_Source\PSoC5/CyLib.c **** 
 570:.\Generated_Source\PSoC5/CyLib.c ****     case CY_IMO_FREQ_24MHZ:
 571:.\Generated_Source\PSoC5/CyLib.c ****         CY_LIB_FASTCLK_IMO_CR_REG = ((CY_LIB_FASTCLK_IMO_CR_REG & CY_LIB_FASTCLK_IMO_CR_RANGE_MASK)
 980              		.loc 1 571 0
 981 0102 294A     		ldr	r2, .L86
 982 0104 284B     		ldr	r3, .L86
 983 0106 1B78     		ldrb	r3, [r3]
 984 0108 DBB2     		uxtb	r3, r3
 985 010a 23F04703 		bic	r3, r3, #71
 986 010e DBB2     		uxtb	r3, r3
 987 0110 43F00203 		orr	r3, r3, #2
 988 0114 DBB2     		uxtb	r3, r3
 989 0116 1370     		strb	r3, [r2]
 572:.\Generated_Source\PSoC5/CyLib.c ****             CY_LIB_IMO_24MHZ_VALUE) & ((uint8)(~CY_LIB_IMO_USBCLK_ON_SET));
 573:.\Generated_Source\PSoC5/CyLib.c ****         break;
 990              		.loc 1 573 0
 991 0118 33E0     		b	.L82
 992              	.L78:
 574:.\Generated_Source\PSoC5/CyLib.c **** 
 575:.\Generated_Source\PSoC5/CyLib.c ****     case CY_IMO_FREQ_48MHZ:
 576:.\Generated_Source\PSoC5/CyLib.c ****         CY_LIB_FASTCLK_IMO_CR_REG = ((CY_LIB_FASTCLK_IMO_CR_REG & CY_LIB_FASTCLK_IMO_CR_RANGE_MASK)
 993              		.loc 1 576 0
 994 011a 234A     		ldr	r2, .L86
 995 011c 224B     		ldr	r3, .L86
 996 011e 1B78     		ldrb	r3, [r3]
 997 0120 DBB2     		uxtb	r3, r3
 998 0122 23F04703 		bic	r3, r3, #71
 999 0126 DBB2     		uxtb	r3, r3
 1000 0128 43F00403 		orr	r3, r3, #4
 1001 012c DBB2     		uxtb	r3, r3
 1002 012e 1370     		strb	r3, [r2]
 577:.\Generated_Source\PSoC5/CyLib.c ****             CY_LIB_IMO_48MHZ_VALUE) & ((uint8)(~CY_LIB_IMO_USBCLK_ON_SET));
 578:.\Generated_Source\PSoC5/CyLib.c ****         break;
 1003              		.loc 1 578 0
 1004 0130 27E0     		b	.L82
 1005              	.L79:
 579:.\Generated_Source\PSoC5/CyLib.c **** 
 580:.\Generated_Source\PSoC5/CyLib.c ****     case CY_IMO_FREQ_62MHZ:
 581:.\Generated_Source\PSoC5/CyLib.c ****         CY_LIB_FASTCLK_IMO_CR_REG = ((CY_LIB_FASTCLK_IMO_CR_REG & CY_LIB_FASTCLK_IMO_CR_RANGE_MASK)
 1006              		.loc 1 581 0
 1007 0132 1D4A     		ldr	r2, .L86
 1008 0134 1C4B     		ldr	r3, .L86
 1009 0136 1B78     		ldrb	r3, [r3]
 1010 0138 DBB2     		uxtb	r3, r3
ARM GAS  C:\Users\Rolando\AppData\Local\Temp\ccmqTZg9.s 			page 29


 1011 013a 23F04703 		bic	r3, r3, #71
 1012 013e DBB2     		uxtb	r3, r3
 1013 0140 43F00503 		orr	r3, r3, #5
 1014 0144 DBB2     		uxtb	r3, r3
 1015 0146 1370     		strb	r3, [r2]
 582:.\Generated_Source\PSoC5/CyLib.c ****             CY_LIB_IMO_62MHZ_VALUE) & ((uint8)(~CY_LIB_IMO_USBCLK_ON_SET));
 583:.\Generated_Source\PSoC5/CyLib.c ****         break;
 1016              		.loc 1 583 0
 1017 0148 1BE0     		b	.L82
 1018              	.L80:
 584:.\Generated_Source\PSoC5/CyLib.c **** 
 585:.\Generated_Source\PSoC5/CyLib.c **** #if(CY_PSOC5)
 586:.\Generated_Source\PSoC5/CyLib.c ****     case CY_IMO_FREQ_74MHZ:
 587:.\Generated_Source\PSoC5/CyLib.c ****         CY_LIB_FASTCLK_IMO_CR_REG = ((CY_LIB_FASTCLK_IMO_CR_REG & CY_LIB_FASTCLK_IMO_CR_RANGE_MASK)
 1019              		.loc 1 587 0
 1020 014a 174A     		ldr	r2, .L86
 1021 014c 164B     		ldr	r3, .L86
 1022 014e 1B78     		ldrb	r3, [r3]
 1023 0150 DBB2     		uxtb	r3, r3
 1024 0152 23F04703 		bic	r3, r3, #71
 1025 0156 DBB2     		uxtb	r3, r3
 1026 0158 43F00603 		orr	r3, r3, #6
 1027 015c DBB2     		uxtb	r3, r3
 1028 015e 1370     		strb	r3, [r2]
 588:.\Generated_Source\PSoC5/CyLib.c ****             CY_LIB_IMO_74MHZ_VALUE) & ((uint8)(~CY_LIB_IMO_USBCLK_ON_SET));
 589:.\Generated_Source\PSoC5/CyLib.c ****         break;
 1029              		.loc 1 589 0
 1030 0160 0FE0     		b	.L82
 1031              	.L81:
 590:.\Generated_Source\PSoC5/CyLib.c **** #endif  /* (CY_PSOC5) */
 591:.\Generated_Source\PSoC5/CyLib.c **** 
 592:.\Generated_Source\PSoC5/CyLib.c ****     case CY_IMO_FREQ_USB:
 593:.\Generated_Source\PSoC5/CyLib.c ****         CY_LIB_FASTCLK_IMO_CR_REG = ((CY_LIB_FASTCLK_IMO_CR_REG & CY_LIB_FASTCLK_IMO_CR_RANGE_MASK)
 1032              		.loc 1 593 0
 1033 0162 114A     		ldr	r2, .L86
 1034 0164 104B     		ldr	r3, .L86
 1035 0166 1B78     		ldrb	r3, [r3]
 1036 0168 DBB2     		uxtb	r3, r3
 1037 016a 23F04703 		bic	r3, r3, #71
 1038 016e DBB2     		uxtb	r3, r3
 1039 0170 43F04203 		orr	r3, r3, #66
 1040 0174 DBB2     		uxtb	r3, r3
 1041 0176 1370     		strb	r3, [r2]
 594:.\Generated_Source\PSoC5/CyLib.c ****             CY_LIB_IMO_24MHZ_VALUE) | CY_LIB_IMO_USBCLK_ON_SET;
 595:.\Generated_Source\PSoC5/CyLib.c ****         break;
 1042              		.loc 1 595 0
 1043 0178 03E0     		b	.L82
 1044              	.L72:
 596:.\Generated_Source\PSoC5/CyLib.c **** 
 597:.\Generated_Source\PSoC5/CyLib.c ****     default:
 598:.\Generated_Source\PSoC5/CyLib.c ****         CYASSERT(0u != 0u);
 1045              		.loc 1 598 0
 1046 017a 0020     		movs	r0, #0
 1047 017c FFF7FEFF 		bl	CyHalt
 599:.\Generated_Source\PSoC5/CyLib.c ****         break;
 1048              		.loc 1 599 0
 1049 0180 00BF     		nop
ARM GAS  C:\Users\Rolando\AppData\Local\Temp\ccmqTZg9.s 			page 30


 1050              	.L82:
 600:.\Generated_Source\PSoC5/CyLib.c ****     }
 601:.\Generated_Source\PSoC5/CyLib.c **** 
 602:.\Generated_Source\PSoC5/CyLib.c ****     /* Turn on the IMO Doubler, if switching to CY_IMO_FREQ_USB */
 603:.\Generated_Source\PSoC5/CyLib.c ****     if (freq == CY_IMO_FREQ_USB)
 1051              		.loc 1 603 0
 1052 0182 FB79     		ldrb	r3, [r7, #7]	@ zero_extendqisi2
 1053 0184 082B     		cmp	r3, #8
 1054 0186 02D1     		bne	.L83
 604:.\Generated_Source\PSoC5/CyLib.c ****     {
 605:.\Generated_Source\PSoC5/CyLib.c ****         CyIMO_EnableDoubler();
 1055              		.loc 1 605 0
 1056 0188 FFF7FEFF 		bl	CyIMO_EnableDoubler
 1057 018c 01E0     		b	.L84
 1058              	.L83:
 606:.\Generated_Source\PSoC5/CyLib.c ****     }
 607:.\Generated_Source\PSoC5/CyLib.c ****     else
 608:.\Generated_Source\PSoC5/CyLib.c ****     {
 609:.\Generated_Source\PSoC5/CyLib.c ****         CyIMO_DisableDoubler();
 1059              		.loc 1 609 0
 1060 018e FFF7FEFF 		bl	CyIMO_DisableDoubler
 1061              	.L84:
 610:.\Generated_Source\PSoC5/CyLib.c ****     }
 611:.\Generated_Source\PSoC5/CyLib.c **** 
 612:.\Generated_Source\PSoC5/CyLib.c ****     if (nextFreq < currentFreq)
 1062              		.loc 1 612 0
 1063 0192 BA7B     		ldrb	r2, [r7, #14]	@ zero_extendqisi2
 1064 0194 FB7B     		ldrb	r3, [r7, #15]	@ zero_extendqisi2
 1065 0196 9A42     		cmp	r2, r3
 1066 0198 03D2     		bcs	.L58
 613:.\Generated_Source\PSoC5/CyLib.c ****     {
 614:.\Generated_Source\PSoC5/CyLib.c ****         /* Set the new trim after setting the frequency */
 615:.\Generated_Source\PSoC5/CyLib.c ****         CyIMO_SetTrimValue(freq);
 1067              		.loc 1 615 0
 1068 019a FB79     		ldrb	r3, [r7, #7]	@ zero_extendqisi2
 1069 019c 1846     		mov	r0, r3
 1070 019e FFF7FEFF 		bl	CyIMO_SetTrimValue
 1071              	.L58:
 616:.\Generated_Source\PSoC5/CyLib.c ****     }
 617:.\Generated_Source\PSoC5/CyLib.c **** }
 1072              		.loc 1 617 0
 1073 01a2 1037     		adds	r7, r7, #16
 1074              		.cfi_def_cfa_offset 8
 1075 01a4 BD46     		mov	sp, r7
 1076              		.cfi_def_cfa_register 13
 1077              		@ sp needed
 1078 01a6 80BD     		pop	{r7, pc}
 1079              	.L87:
 1080              		.align	2
 1081              	.L86:
 1082 01a8 00420040 		.word	1073758720
 1083              		.cfi_endproc
 1084              	.LFE8:
 1085              		.size	CyIMO_SetFreq, .-CyIMO_SetFreq
 1086              		.section	.text.CyIMO_SetSource,"ax",%progbits
 1087              		.align	2
 1088              		.global	CyIMO_SetSource
ARM GAS  C:\Users\Rolando\AppData\Local\Temp\ccmqTZg9.s 			page 31


 1089              		.thumb
 1090              		.thumb_func
 1091              		.type	CyIMO_SetSource, %function
 1092              	CyIMO_SetSource:
 1093              	.LFB9:
 618:.\Generated_Source\PSoC5/CyLib.c **** 
 619:.\Generated_Source\PSoC5/CyLib.c **** 
 620:.\Generated_Source\PSoC5/CyLib.c **** /*******************************************************************************
 621:.\Generated_Source\PSoC5/CyLib.c **** * Function Name: CyIMO_SetSource
 622:.\Generated_Source\PSoC5/CyLib.c **** ********************************************************************************
 623:.\Generated_Source\PSoC5/CyLib.c **** *
 624:.\Generated_Source\PSoC5/CyLib.c **** * Summary:
 625:.\Generated_Source\PSoC5/CyLib.c **** *  Sets the source of the clock output from the IMO block.
 626:.\Generated_Source\PSoC5/CyLib.c **** *
 627:.\Generated_Source\PSoC5/CyLib.c **** *  The output from the IMO is by default the IMO itself. Optionally the MHz
 628:.\Generated_Source\PSoC5/CyLib.c **** *  Crystal or a DSI input can be the source of the IMO output instead.
 629:.\Generated_Source\PSoC5/CyLib.c **** *
 630:.\Generated_Source\PSoC5/CyLib.c **** * Parameters:
 631:.\Generated_Source\PSoC5/CyLib.c **** *   source: CY_IMO_SOURCE_DSI to set the DSI as source.
 632:.\Generated_Source\PSoC5/CyLib.c **** *           CY_IMO_SOURCE_XTAL to set the MHz as source.
 633:.\Generated_Source\PSoC5/CyLib.c **** *           CY_IMO_SOURCE_IMO to set the IMO itself.
 634:.\Generated_Source\PSoC5/CyLib.c **** *
 635:.\Generated_Source\PSoC5/CyLib.c **** * Return:
 636:.\Generated_Source\PSoC5/CyLib.c **** *  None
 637:.\Generated_Source\PSoC5/CyLib.c **** *
 638:.\Generated_Source\PSoC5/CyLib.c **** * Side Effects:
 639:.\Generated_Source\PSoC5/CyLib.c **** *  If as result of this function execution the CPU clock frequency is increased
 640:.\Generated_Source\PSoC5/CyLib.c **** *  then the number of clock cycles the cache will wait before it samples data
 641:.\Generated_Source\PSoC5/CyLib.c **** *  coming back from Flash must be adjusted by calling CyFlash_SetWaitCycles()
 642:.\Generated_Source\PSoC5/CyLib.c **** *  with appropriate parameter. It can be optionally called if CPU clock
 643:.\Generated_Source\PSoC5/CyLib.c **** *  frequency is lowered in order to improve CPU performance.
 644:.\Generated_Source\PSoC5/CyLib.c **** *  See CyFlash_SetWaitCycles() description for more information.
 645:.\Generated_Source\PSoC5/CyLib.c **** *
 646:.\Generated_Source\PSoC5/CyLib.c **** *******************************************************************************/
 647:.\Generated_Source\PSoC5/CyLib.c **** void CyIMO_SetSource(uint8 source) 
 648:.\Generated_Source\PSoC5/CyLib.c **** {
 1094              		.loc 1 648 0
 1095              		.cfi_startproc
 1096              		@ args = 0, pretend = 0, frame = 8
 1097              		@ frame_needed = 1, uses_anonymous_args = 0
 1098 0000 80B5     		push	{r7, lr}
 1099              		.cfi_def_cfa_offset 8
 1100              		.cfi_offset 7, -8
 1101              		.cfi_offset 14, -4
 1102 0002 82B0     		sub	sp, sp, #8
 1103              		.cfi_def_cfa_offset 16
 1104 0004 00AF     		add	r7, sp, #0
 1105              		.cfi_def_cfa_register 7
 1106 0006 0346     		mov	r3, r0
 1107 0008 FB71     		strb	r3, [r7, #7]
 649:.\Generated_Source\PSoC5/CyLib.c ****     switch(source)
 1108              		.loc 1 649 0
 1109 000a FB79     		ldrb	r3, [r7, #7]	@ zero_extendqisi2
 1110 000c 012B     		cmp	r3, #1
 1111 000e 17D0     		beq	.L90
 1112 0010 022B     		cmp	r3, #2
 1113 0012 02D0     		beq	.L91
ARM GAS  C:\Users\Rolando\AppData\Local\Temp\ccmqTZg9.s 			page 32


 1114 0014 002B     		cmp	r3, #0
 1115 0016 26D0     		beq	.L92
 1116 0018 2EE0     		b	.L94
 1117              	.L91:
 650:.\Generated_Source\PSoC5/CyLib.c ****     {
 651:.\Generated_Source\PSoC5/CyLib.c ****     case CY_IMO_SOURCE_DSI:
 652:.\Generated_Source\PSoC5/CyLib.c ****         CY_LIB_CLKDIST_CR_REG     &= ((uint8)(~CY_LIB_CLKDIST_CR_IMO2X));
 1118              		.loc 1 652 0
 1119 001a 4FF04022 		mov	r2, #1073758208
 1120 001e 4FF04023 		mov	r3, #1073758208
 1121 0022 1B78     		ldrb	r3, [r3]
 1122 0024 DBB2     		uxtb	r3, r3
 1123 0026 23F04003 		bic	r3, r3, #64
 1124 002a DBB2     		uxtb	r3, r3
 1125 002c 1370     		strb	r3, [r2]
 653:.\Generated_Source\PSoC5/CyLib.c ****         CY_LIB_FASTCLK_IMO_CR_REG |= CY_LIB_FASTCLK_IMO_IMO;
 1126              		.loc 1 653 0
 1127 002e 164A     		ldr	r2, .L95
 1128 0030 154B     		ldr	r3, .L95
 1129 0032 1B78     		ldrb	r3, [r3]
 1130 0034 DBB2     		uxtb	r3, r3
 1131 0036 43F02003 		orr	r3, r3, #32
 1132 003a DBB2     		uxtb	r3, r3
 1133 003c 1370     		strb	r3, [r2]
 654:.\Generated_Source\PSoC5/CyLib.c ****         break;
 1134              		.loc 1 654 0
 1135 003e 1FE0     		b	.L88
 1136              	.L90:
 655:.\Generated_Source\PSoC5/CyLib.c **** 
 656:.\Generated_Source\PSoC5/CyLib.c ****     case CY_IMO_SOURCE_XTAL:
 657:.\Generated_Source\PSoC5/CyLib.c ****         CY_LIB_CLKDIST_CR_REG     |= CY_LIB_CLKDIST_CR_IMO2X;
 1137              		.loc 1 657 0
 1138 0040 4FF04022 		mov	r2, #1073758208
 1139 0044 4FF04023 		mov	r3, #1073758208
 1140 0048 1B78     		ldrb	r3, [r3]
 1141 004a DBB2     		uxtb	r3, r3
 1142 004c 43F04003 		orr	r3, r3, #64
 1143 0050 DBB2     		uxtb	r3, r3
 1144 0052 1370     		strb	r3, [r2]
 658:.\Generated_Source\PSoC5/CyLib.c ****         CY_LIB_FASTCLK_IMO_CR_REG |= CY_LIB_FASTCLK_IMO_IMO;
 1145              		.loc 1 658 0
 1146 0054 0C4A     		ldr	r2, .L95
 1147 0056 0C4B     		ldr	r3, .L95
 1148 0058 1B78     		ldrb	r3, [r3]
 1149 005a DBB2     		uxtb	r3, r3
 1150 005c 43F02003 		orr	r3, r3, #32
 1151 0060 DBB2     		uxtb	r3, r3
 1152 0062 1370     		strb	r3, [r2]
 659:.\Generated_Source\PSoC5/CyLib.c ****         break;
 1153              		.loc 1 659 0
 1154 0064 0CE0     		b	.L88
 1155              	.L92:
 660:.\Generated_Source\PSoC5/CyLib.c **** 
 661:.\Generated_Source\PSoC5/CyLib.c ****     case CY_IMO_SOURCE_IMO:
 662:.\Generated_Source\PSoC5/CyLib.c ****         CY_LIB_FASTCLK_IMO_CR_REG &= ((uint8)(~CY_LIB_FASTCLK_IMO_IMO));
 1156              		.loc 1 662 0
 1157 0066 084A     		ldr	r2, .L95
ARM GAS  C:\Users\Rolando\AppData\Local\Temp\ccmqTZg9.s 			page 33


 1158 0068 074B     		ldr	r3, .L95
 1159 006a 1B78     		ldrb	r3, [r3]
 1160 006c DBB2     		uxtb	r3, r3
 1161 006e 23F02003 		bic	r3, r3, #32
 1162 0072 DBB2     		uxtb	r3, r3
 1163 0074 1370     		strb	r3, [r2]
 663:.\Generated_Source\PSoC5/CyLib.c ****         break;
 1164              		.loc 1 663 0
 1165 0076 03E0     		b	.L88
 1166              	.L94:
 664:.\Generated_Source\PSoC5/CyLib.c **** 
 665:.\Generated_Source\PSoC5/CyLib.c ****     default:
 666:.\Generated_Source\PSoC5/CyLib.c ****         /* Incorrect source value */
 667:.\Generated_Source\PSoC5/CyLib.c ****         CYASSERT(0u != 0u);
 1167              		.loc 1 667 0
 1168 0078 0020     		movs	r0, #0
 1169 007a FFF7FEFF 		bl	CyHalt
 668:.\Generated_Source\PSoC5/CyLib.c ****         break;
 1170              		.loc 1 668 0
 1171 007e 00BF     		nop
 1172              	.L88:
 669:.\Generated_Source\PSoC5/CyLib.c ****     }
 670:.\Generated_Source\PSoC5/CyLib.c **** }
 1173              		.loc 1 670 0
 1174 0080 0837     		adds	r7, r7, #8
 1175              		.cfi_def_cfa_offset 8
 1176 0082 BD46     		mov	sp, r7
 1177              		.cfi_def_cfa_register 13
 1178              		@ sp needed
 1179 0084 80BD     		pop	{r7, pc}
 1180              	.L96:
 1181 0086 00BF     		.align	2
 1182              	.L95:
 1183 0088 00420040 		.word	1073758720
 1184              		.cfi_endproc
 1185              	.LFE9:
 1186              		.size	CyIMO_SetSource, .-CyIMO_SetSource
 1187              		.section	.text.CyIMO_EnableDoubler,"ax",%progbits
 1188              		.align	2
 1189              		.global	CyIMO_EnableDoubler
 1190              		.thumb
 1191              		.thumb_func
 1192              		.type	CyIMO_EnableDoubler, %function
 1193              	CyIMO_EnableDoubler:
 1194              	.LFB10:
 671:.\Generated_Source\PSoC5/CyLib.c **** 
 672:.\Generated_Source\PSoC5/CyLib.c **** 
 673:.\Generated_Source\PSoC5/CyLib.c **** /*******************************************************************************
 674:.\Generated_Source\PSoC5/CyLib.c **** * Function Name: CyIMO_EnableDoubler
 675:.\Generated_Source\PSoC5/CyLib.c **** ********************************************************************************
 676:.\Generated_Source\PSoC5/CyLib.c **** *
 677:.\Generated_Source\PSoC5/CyLib.c **** * Summary:
 678:.\Generated_Source\PSoC5/CyLib.c **** *  Enables the IMO doubler.  The 2x frequency clock is used to convert a 24 MHz
 679:.\Generated_Source\PSoC5/CyLib.c **** *  input to a 48 MHz output for use by the USB block.
 680:.\Generated_Source\PSoC5/CyLib.c **** *
 681:.\Generated_Source\PSoC5/CyLib.c **** * Parameters:
 682:.\Generated_Source\PSoC5/CyLib.c **** *  None
ARM GAS  C:\Users\Rolando\AppData\Local\Temp\ccmqTZg9.s 			page 34


 683:.\Generated_Source\PSoC5/CyLib.c **** *
 684:.\Generated_Source\PSoC5/CyLib.c **** * Return:
 685:.\Generated_Source\PSoC5/CyLib.c **** *  None
 686:.\Generated_Source\PSoC5/CyLib.c **** *
 687:.\Generated_Source\PSoC5/CyLib.c **** *******************************************************************************/
 688:.\Generated_Source\PSoC5/CyLib.c **** void CyIMO_EnableDoubler(void) 
 689:.\Generated_Source\PSoC5/CyLib.c **** {
 1195              		.loc 1 689 0
 1196              		.cfi_startproc
 1197              		@ args = 0, pretend = 0, frame = 0
 1198              		@ frame_needed = 1, uses_anonymous_args = 0
 1199              		@ link register save eliminated.
 1200 0000 80B4     		push	{r7}
 1201              		.cfi_def_cfa_offset 4
 1202              		.cfi_offset 7, -4
 1203 0002 00AF     		add	r7, sp, #0
 1204              		.cfi_def_cfa_register 7
 690:.\Generated_Source\PSoC5/CyLib.c ****     /* Set the FASTCLK_IMO_CR_PTR regigster's 4th bit */
 691:.\Generated_Source\PSoC5/CyLib.c ****     CY_LIB_FASTCLK_IMO_CR_REG |= CY_LIB_FASTCLK_IMO_DOUBLER;
 1205              		.loc 1 691 0
 1206 0004 054A     		ldr	r2, .L98
 1207 0006 054B     		ldr	r3, .L98
 1208 0008 1B78     		ldrb	r3, [r3]
 1209 000a DBB2     		uxtb	r3, r3
 1210 000c 43F01003 		orr	r3, r3, #16
 1211 0010 DBB2     		uxtb	r3, r3
 1212 0012 1370     		strb	r3, [r2]
 692:.\Generated_Source\PSoC5/CyLib.c **** }
 1213              		.loc 1 692 0
 1214 0014 BD46     		mov	sp, r7
 1215              		.cfi_def_cfa_register 13
 1216              		@ sp needed
 1217 0016 5DF8047B 		ldr	r7, [sp], #4
 1218              		.cfi_restore 7
 1219              		.cfi_def_cfa_offset 0
 1220 001a 7047     		bx	lr
 1221              	.L99:
 1222              		.align	2
 1223              	.L98:
 1224 001c 00420040 		.word	1073758720
 1225              		.cfi_endproc
 1226              	.LFE10:
 1227              		.size	CyIMO_EnableDoubler, .-CyIMO_EnableDoubler
 1228              		.section	.text.CyIMO_DisableDoubler,"ax",%progbits
 1229              		.align	2
 1230              		.global	CyIMO_DisableDoubler
 1231              		.thumb
 1232              		.thumb_func
 1233              		.type	CyIMO_DisableDoubler, %function
 1234              	CyIMO_DisableDoubler:
 1235              	.LFB11:
 693:.\Generated_Source\PSoC5/CyLib.c **** 
 694:.\Generated_Source\PSoC5/CyLib.c **** 
 695:.\Generated_Source\PSoC5/CyLib.c **** /*******************************************************************************
 696:.\Generated_Source\PSoC5/CyLib.c **** * Function Name: CyIMO_DisableDoubler
 697:.\Generated_Source\PSoC5/CyLib.c **** ********************************************************************************
 698:.\Generated_Source\PSoC5/CyLib.c **** *
ARM GAS  C:\Users\Rolando\AppData\Local\Temp\ccmqTZg9.s 			page 35


 699:.\Generated_Source\PSoC5/CyLib.c **** * Summary:
 700:.\Generated_Source\PSoC5/CyLib.c **** *   Disables the IMO doubler.
 701:.\Generated_Source\PSoC5/CyLib.c **** *
 702:.\Generated_Source\PSoC5/CyLib.c **** * Parameters:
 703:.\Generated_Source\PSoC5/CyLib.c **** *  None
 704:.\Generated_Source\PSoC5/CyLib.c **** *
 705:.\Generated_Source\PSoC5/CyLib.c **** * Return:
 706:.\Generated_Source\PSoC5/CyLib.c **** *  None
 707:.\Generated_Source\PSoC5/CyLib.c **** *
 708:.\Generated_Source\PSoC5/CyLib.c **** *******************************************************************************/
 709:.\Generated_Source\PSoC5/CyLib.c **** void CyIMO_DisableDoubler(void) 
 710:.\Generated_Source\PSoC5/CyLib.c **** {
 1236              		.loc 1 710 0
 1237              		.cfi_startproc
 1238              		@ args = 0, pretend = 0, frame = 0
 1239              		@ frame_needed = 1, uses_anonymous_args = 0
 1240              		@ link register save eliminated.
 1241 0000 80B4     		push	{r7}
 1242              		.cfi_def_cfa_offset 4
 1243              		.cfi_offset 7, -4
 1244 0002 00AF     		add	r7, sp, #0
 1245              		.cfi_def_cfa_register 7
 711:.\Generated_Source\PSoC5/CyLib.c ****     CY_LIB_FASTCLK_IMO_CR_REG &= ((uint8)(~CY_LIB_FASTCLK_IMO_DOUBLER));
 1246              		.loc 1 711 0
 1247 0004 054A     		ldr	r2, .L101
 1248 0006 054B     		ldr	r3, .L101
 1249 0008 1B78     		ldrb	r3, [r3]
 1250 000a DBB2     		uxtb	r3, r3
 1251 000c 23F01003 		bic	r3, r3, #16
 1252 0010 DBB2     		uxtb	r3, r3
 1253 0012 1370     		strb	r3, [r2]
 712:.\Generated_Source\PSoC5/CyLib.c **** }
 1254              		.loc 1 712 0
 1255 0014 BD46     		mov	sp, r7
 1256              		.cfi_def_cfa_register 13
 1257              		@ sp needed
 1258 0016 5DF8047B 		ldr	r7, [sp], #4
 1259              		.cfi_restore 7
 1260              		.cfi_def_cfa_offset 0
 1261 001a 7047     		bx	lr
 1262              	.L102:
 1263              		.align	2
 1264              	.L101:
 1265 001c 00420040 		.word	1073758720
 1266              		.cfi_endproc
 1267              	.LFE11:
 1268              		.size	CyIMO_DisableDoubler, .-CyIMO_DisableDoubler
 1269              		.section	.text.CyMasterClk_SetSource,"ax",%progbits
 1270              		.align	2
 1271              		.global	CyMasterClk_SetSource
 1272              		.thumb
 1273              		.thumb_func
 1274              		.type	CyMasterClk_SetSource, %function
 1275              	CyMasterClk_SetSource:
 1276              	.LFB12:
 713:.\Generated_Source\PSoC5/CyLib.c **** 
 714:.\Generated_Source\PSoC5/CyLib.c **** 
ARM GAS  C:\Users\Rolando\AppData\Local\Temp\ccmqTZg9.s 			page 36


 715:.\Generated_Source\PSoC5/CyLib.c **** /*******************************************************************************
 716:.\Generated_Source\PSoC5/CyLib.c **** * Function Name: CyMasterClk_SetSource
 717:.\Generated_Source\PSoC5/CyLib.c **** ********************************************************************************
 718:.\Generated_Source\PSoC5/CyLib.c **** *
 719:.\Generated_Source\PSoC5/CyLib.c **** * Summary:
 720:.\Generated_Source\PSoC5/CyLib.c **** *  Sets the source of the master clock.
 721:.\Generated_Source\PSoC5/CyLib.c **** *
 722:.\Generated_Source\PSoC5/CyLib.c **** * Parameters:
 723:.\Generated_Source\PSoC5/CyLib.c **** *   source: One of the four available Master clock sources.
 724:.\Generated_Source\PSoC5/CyLib.c **** *     CY_MASTER_SOURCE_IMO
 725:.\Generated_Source\PSoC5/CyLib.c **** *     CY_MASTER_SOURCE_PLL
 726:.\Generated_Source\PSoC5/CyLib.c **** *     CY_MASTER_SOURCE_XTAL
 727:.\Generated_Source\PSoC5/CyLib.c **** *     CY_MASTER_SOURCE_DSI
 728:.\Generated_Source\PSoC5/CyLib.c **** *
 729:.\Generated_Source\PSoC5/CyLib.c **** * Return:
 730:.\Generated_Source\PSoC5/CyLib.c **** *  None
 731:.\Generated_Source\PSoC5/CyLib.c **** *
 732:.\Generated_Source\PSoC5/CyLib.c **** * Side Effects:
 733:.\Generated_Source\PSoC5/CyLib.c **** *  The current source and the new source must both be running and stable before
 734:.\Generated_Source\PSoC5/CyLib.c **** *  calling this function.
 735:.\Generated_Source\PSoC5/CyLib.c **** *
 736:.\Generated_Source\PSoC5/CyLib.c **** *  If as result of this function execution the CPU clock frequency is increased
 737:.\Generated_Source\PSoC5/CyLib.c **** *  then the number of clock cycles the cache will wait before it samples data
 738:.\Generated_Source\PSoC5/CyLib.c **** *  coming back from Flash must be adjusted by calling CyFlash_SetWaitCycles()
 739:.\Generated_Source\PSoC5/CyLib.c **** *  with appropriate parameter. It can be optionally called if CPU clock
 740:.\Generated_Source\PSoC5/CyLib.c **** *  frequency is lowered in order to improve CPU performance.
 741:.\Generated_Source\PSoC5/CyLib.c **** *  See CyFlash_SetWaitCycles() description for more information.
 742:.\Generated_Source\PSoC5/CyLib.c **** *
 743:.\Generated_Source\PSoC5/CyLib.c **** *******************************************************************************/
 744:.\Generated_Source\PSoC5/CyLib.c **** void CyMasterClk_SetSource(uint8 source) 
 745:.\Generated_Source\PSoC5/CyLib.c **** {
 1277              		.loc 1 745 0
 1278              		.cfi_startproc
 1279              		@ args = 0, pretend = 0, frame = 8
 1280              		@ frame_needed = 1, uses_anonymous_args = 0
 1281              		@ link register save eliminated.
 1282 0000 80B4     		push	{r7}
 1283              		.cfi_def_cfa_offset 4
 1284              		.cfi_offset 7, -4
 1285 0002 83B0     		sub	sp, sp, #12
 1286              		.cfi_def_cfa_offset 16
 1287 0004 00AF     		add	r7, sp, #0
 1288              		.cfi_def_cfa_register 7
 1289 0006 0346     		mov	r3, r0
 1290 0008 FB71     		strb	r3, [r7, #7]
 746:.\Generated_Source\PSoC5/CyLib.c ****     CY_LIB_CLKDIST_MSTR1_REG = (CY_LIB_CLKDIST_MSTR1_REG & MASTER_CLK_SRC_CLEAR) |
 1291              		.loc 1 746 0
 1292 000a 0949     		ldr	r1, .L104
 1293 000c 084B     		ldr	r3, .L104
 1294 000e 1B78     		ldrb	r3, [r3]
 1295 0010 DBB2     		uxtb	r3, r3
 1296 0012 23F00303 		bic	r3, r3, #3
 1297 0016 DAB2     		uxtb	r2, r3
 1298 0018 FB79     		ldrb	r3, [r7, #7]
 1299 001a 03F00303 		and	r3, r3, #3
 1300 001e DBB2     		uxtb	r3, r3
 1301 0020 1343     		orrs	r3, r3, r2
ARM GAS  C:\Users\Rolando\AppData\Local\Temp\ccmqTZg9.s 			page 37


 1302 0022 DBB2     		uxtb	r3, r3
 1303 0024 0B70     		strb	r3, [r1]
 747:.\Generated_Source\PSoC5/CyLib.c ****                                 (source & ((uint8)(~MASTER_CLK_SRC_CLEAR)));
 748:.\Generated_Source\PSoC5/CyLib.c **** }
 1304              		.loc 1 748 0
 1305 0026 0C37     		adds	r7, r7, #12
 1306              		.cfi_def_cfa_offset 4
 1307 0028 BD46     		mov	sp, r7
 1308              		.cfi_def_cfa_register 13
 1309              		@ sp needed
 1310 002a 5DF8047B 		ldr	r7, [sp], #4
 1311              		.cfi_restore 7
 1312              		.cfi_def_cfa_offset 0
 1313 002e 7047     		bx	lr
 1314              	.L105:
 1315              		.align	2
 1316              	.L104:
 1317 0030 05400040 		.word	1073758213
 1318              		.cfi_endproc
 1319              	.LFE12:
 1320              		.size	CyMasterClk_SetSource, .-CyMasterClk_SetSource
 1321              		.section	.text.CyMasterClk_SetDivider,"ax",%progbits
 1322              		.align	2
 1323              		.global	CyMasterClk_SetDivider
 1324              		.thumb
 1325              		.thumb_func
 1326              		.type	CyMasterClk_SetDivider, %function
 1327              	CyMasterClk_SetDivider:
 1328              	.LFB13:
 749:.\Generated_Source\PSoC5/CyLib.c **** 
 750:.\Generated_Source\PSoC5/CyLib.c **** 
 751:.\Generated_Source\PSoC5/CyLib.c **** /*******************************************************************************
 752:.\Generated_Source\PSoC5/CyLib.c **** * Function Name: CyMasterClk_SetDivider
 753:.\Generated_Source\PSoC5/CyLib.c **** ********************************************************************************
 754:.\Generated_Source\PSoC5/CyLib.c **** *
 755:.\Generated_Source\PSoC5/CyLib.c **** * Summary:
 756:.\Generated_Source\PSoC5/CyLib.c **** *  Sets the divider value used to generate Master Clock.
 757:.\Generated_Source\PSoC5/CyLib.c **** *
 758:.\Generated_Source\PSoC5/CyLib.c **** * Parameters:
 759:.\Generated_Source\PSoC5/CyLib.c **** *  uint8 divider:
 760:.\Generated_Source\PSoC5/CyLib.c **** *   Valid range [0-255]. The clock will be divided by this value + 1.
 761:.\Generated_Source\PSoC5/CyLib.c **** *   For example to divide by 2 this parameter should be set to 1.
 762:.\Generated_Source\PSoC5/CyLib.c **** *
 763:.\Generated_Source\PSoC5/CyLib.c **** * Return:
 764:.\Generated_Source\PSoC5/CyLib.c **** *  None
 765:.\Generated_Source\PSoC5/CyLib.c **** *
 766:.\Generated_Source\PSoC5/CyLib.c **** * Side Effects:
 767:.\Generated_Source\PSoC5/CyLib.c **** *  If as result of this function execution the CPU clock frequency is increased
 768:.\Generated_Source\PSoC5/CyLib.c **** *  then the number of clock cycles the cache will wait before it samples data
 769:.\Generated_Source\PSoC5/CyLib.c **** *  coming back from Flash must be adjusted by calling CyFlash_SetWaitCycles()
 770:.\Generated_Source\PSoC5/CyLib.c **** *  with appropriate parameter. It can be optionally called if CPU clock
 771:.\Generated_Source\PSoC5/CyLib.c **** *  frequency is lowered in order to improve CPU performance.
 772:.\Generated_Source\PSoC5/CyLib.c **** *  See CyFlash_SetWaitCycles() description for more information.
 773:.\Generated_Source\PSoC5/CyLib.c **** *
 774:.\Generated_Source\PSoC5/CyLib.c **** *  When changing the Master or Bus clock divider value from div-by-n to div-by-1
 775:.\Generated_Source\PSoC5/CyLib.c **** *  the first clock cycle output after the div-by-1 can be up to 4 ns shorter
 776:.\Generated_Source\PSoC5/CyLib.c **** *  than the final/expected div-by-1 period.
ARM GAS  C:\Users\Rolando\AppData\Local\Temp\ccmqTZg9.s 			page 38


 777:.\Generated_Source\PSoC5/CyLib.c **** *
 778:.\Generated_Source\PSoC5/CyLib.c **** *******************************************************************************/
 779:.\Generated_Source\PSoC5/CyLib.c **** void CyMasterClk_SetDivider(uint8 divider) 
 780:.\Generated_Source\PSoC5/CyLib.c **** {
 1329              		.loc 1 780 0
 1330              		.cfi_startproc
 1331              		@ args = 0, pretend = 0, frame = 8
 1332              		@ frame_needed = 1, uses_anonymous_args = 0
 1333              		@ link register save eliminated.
 1334 0000 80B4     		push	{r7}
 1335              		.cfi_def_cfa_offset 4
 1336              		.cfi_offset 7, -4
 1337 0002 83B0     		sub	sp, sp, #12
 1338              		.cfi_def_cfa_offset 16
 1339 0004 00AF     		add	r7, sp, #0
 1340              		.cfi_def_cfa_register 7
 1341 0006 0346     		mov	r3, r0
 1342 0008 FB71     		strb	r3, [r7, #7]
 781:.\Generated_Source\PSoC5/CyLib.c ****     CY_LIB_CLKDIST_MSTR0_REG = divider;
 1343              		.loc 1 781 0
 1344 000a 044A     		ldr	r2, .L107
 1345 000c FB79     		ldrb	r3, [r7, #7]
 1346 000e 1370     		strb	r3, [r2]
 782:.\Generated_Source\PSoC5/CyLib.c **** }
 1347              		.loc 1 782 0
 1348 0010 0C37     		adds	r7, r7, #12
 1349              		.cfi_def_cfa_offset 4
 1350 0012 BD46     		mov	sp, r7
 1351              		.cfi_def_cfa_register 13
 1352              		@ sp needed
 1353 0014 5DF8047B 		ldr	r7, [sp], #4
 1354              		.cfi_restore 7
 1355              		.cfi_def_cfa_offset 0
 1356 0018 7047     		bx	lr
 1357              	.L108:
 1358 001a 00BF     		.align	2
 1359              	.L107:
 1360 001c 04400040 		.word	1073758212
 1361              		.cfi_endproc
 1362              	.LFE13:
 1363              		.size	CyMasterClk_SetDivider, .-CyMasterClk_SetDivider
 1364              		.section	.text.CyBusClk_Internal_SetDivider,"ax",%progbits
 1365              		.align	2
 1366              		.thumb
 1367              		.thumb_func
 1368              		.type	CyBusClk_Internal_SetDivider, %function
 1369              	CyBusClk_Internal_SetDivider:
 1370              	.LFB14:
 783:.\Generated_Source\PSoC5/CyLib.c **** 
 784:.\Generated_Source\PSoC5/CyLib.c **** 
 785:.\Generated_Source\PSoC5/CyLib.c **** /*******************************************************************************
 786:.\Generated_Source\PSoC5/CyLib.c **** * Function Name: CyBusClk_Internal_SetDivider
 787:.\Generated_Source\PSoC5/CyLib.c **** ********************************************************************************
 788:.\Generated_Source\PSoC5/CyLib.c **** *
 789:.\Generated_Source\PSoC5/CyLib.c **** * Summary:
 790:.\Generated_Source\PSoC5/CyLib.c **** *  Function used by CyBusClk_SetDivider(). For internal use only.
 791:.\Generated_Source\PSoC5/CyLib.c **** *
ARM GAS  C:\Users\Rolando\AppData\Local\Temp\ccmqTZg9.s 			page 39


 792:.\Generated_Source\PSoC5/CyLib.c **** * Parameters:
 793:.\Generated_Source\PSoC5/CyLib.c **** *   divider: Valid range [0-65535].
 794:.\Generated_Source\PSoC5/CyLib.c **** *   The clock will be divided by this value + 1.
 795:.\Generated_Source\PSoC5/CyLib.c **** *   For example to divide by 2 this parameter should be set to 1.
 796:.\Generated_Source\PSoC5/CyLib.c **** *
 797:.\Generated_Source\PSoC5/CyLib.c **** * Return:
 798:.\Generated_Source\PSoC5/CyLib.c **** *  None
 799:.\Generated_Source\PSoC5/CyLib.c **** *
 800:.\Generated_Source\PSoC5/CyLib.c **** *******************************************************************************/
 801:.\Generated_Source\PSoC5/CyLib.c **** static void CyBusClk_Internal_SetDivider(uint16 divider)
 802:.\Generated_Source\PSoC5/CyLib.c **** {
 1371              		.loc 1 802 0
 1372              		.cfi_startproc
 1373              		@ args = 0, pretend = 0, frame = 8
 1374              		@ frame_needed = 1, uses_anonymous_args = 0
 1375              		@ link register save eliminated.
 1376 0000 80B4     		push	{r7}
 1377              		.cfi_def_cfa_offset 4
 1378              		.cfi_offset 7, -4
 1379 0002 83B0     		sub	sp, sp, #12
 1380              		.cfi_def_cfa_offset 16
 1381 0004 00AF     		add	r7, sp, #0
 1382              		.cfi_def_cfa_register 7
 1383 0006 0346     		mov	r3, r0
 1384 0008 FB80     		strh	r3, [r7, #6]	@ movhi
 803:.\Generated_Source\PSoC5/CyLib.c ****     /* Mask bits to enable shadow loads  */
 804:.\Generated_Source\PSoC5/CyLib.c ****     CY_LIB_CLKDIST_AMASK_REG &= CY_LIB_CLKDIST_AMASK_MASK;
 1385              		.loc 1 804 0
 1386 000a 154A     		ldr	r2, .L110
 1387 000c 144B     		ldr	r3, .L110
 1388 000e 1B78     		ldrb	r3, [r3]
 1389 0010 DBB2     		uxtb	r3, r3
 1390 0012 23F00F03 		bic	r3, r3, #15
 1391 0016 DBB2     		uxtb	r3, r3
 1392 0018 1370     		strb	r3, [r2]
 805:.\Generated_Source\PSoC5/CyLib.c ****     CY_LIB_CLKDIST_DMASK_REG  = CY_LIB_CLKDIST_DMASK_MASK;
 1393              		.loc 1 805 0
 1394 001a 124B     		ldr	r3, .L110+4
 1395 001c 0022     		movs	r2, #0
 1396 001e 1A70     		strb	r2, [r3]
 806:.\Generated_Source\PSoC5/CyLib.c **** 
 807:.\Generated_Source\PSoC5/CyLib.c ****     /* Enable mask bits to enable shadow loads */
 808:.\Generated_Source\PSoC5/CyLib.c ****     CY_LIB_CLKDIST_BCFG2_REG |= CY_LIB_CLKDIST_BCFG2_MASK;
 1397              		.loc 1 808 0
 1398 0020 114A     		ldr	r2, .L110+8
 1399 0022 114B     		ldr	r3, .L110+8
 1400 0024 1B78     		ldrb	r3, [r3]
 1401 0026 DBB2     		uxtb	r3, r3
 1402 0028 63F07F03 		orn	r3, r3, #127
 1403 002c DBB2     		uxtb	r3, r3
 1404 002e 1370     		strb	r3, [r2]
 809:.\Generated_Source\PSoC5/CyLib.c **** 
 810:.\Generated_Source\PSoC5/CyLib.c ****     /* Update Shadow Divider Value Register with the new divider */
 811:.\Generated_Source\PSoC5/CyLib.c ****     CY_LIB_CLKDIST_WRK_LSB_REG = LO8(divider);
 1405              		.loc 1 811 0
 1406 0030 0E4B     		ldr	r3, .L110+12
 1407 0032 FA88     		ldrh	r2, [r7, #6]	@ movhi
ARM GAS  C:\Users\Rolando\AppData\Local\Temp\ccmqTZg9.s 			page 40


 1408 0034 D2B2     		uxtb	r2, r2
 1409 0036 1A70     		strb	r2, [r3]
 812:.\Generated_Source\PSoC5/CyLib.c ****     CY_LIB_CLKDIST_WRK_MSB_REG = HI8(divider);
 1410              		.loc 1 812 0
 1411 0038 0D4A     		ldr	r2, .L110+16
 1412 003a FB88     		ldrh	r3, [r7, #6]
 1413 003c 1B0A     		lsrs	r3, r3, #8
 1414 003e 9BB2     		uxth	r3, r3
 1415 0040 DBB2     		uxtb	r3, r3
 1416 0042 1370     		strb	r3, [r2]
 813:.\Generated_Source\PSoC5/CyLib.c **** 
 814:.\Generated_Source\PSoC5/CyLib.c **** 
 815:.\Generated_Source\PSoC5/CyLib.c ****     /***************************************************************************
 816:.\Generated_Source\PSoC5/CyLib.c ****     * Copy shadow value defined in Shadow Divider Value Register
 817:.\Generated_Source\PSoC5/CyLib.c ****     * (CY_LIB_CLKDIST_WRK_LSB_REG and CY_LIB_CLKDIST_WRK_MSB_REG) to all
 818:.\Generated_Source\PSoC5/CyLib.c ****     * dividers selected in Analog and Digital Clock Mask Registers
 819:.\Generated_Source\PSoC5/CyLib.c ****     * (CY_LIB_CLKDIST_AMASK_REG and CY_LIB_CLKDIST_DMASK_REG).
 820:.\Generated_Source\PSoC5/CyLib.c ****     ***************************************************************************/
 821:.\Generated_Source\PSoC5/CyLib.c ****     CY_LIB_CLKDIST_LD_REG |= CY_LIB_CLKDIST_LD_LOAD;
 1417              		.loc 1 821 0
 1418 0044 0B4A     		ldr	r2, .L110+20
 1419 0046 0B4B     		ldr	r3, .L110+20
 1420 0048 1B78     		ldrb	r3, [r3]
 1421 004a DBB2     		uxtb	r3, r3
 1422 004c 43F00103 		orr	r3, r3, #1
 1423 0050 DBB2     		uxtb	r3, r3
 1424 0052 1370     		strb	r3, [r2]
 822:.\Generated_Source\PSoC5/CyLib.c **** }
 1425              		.loc 1 822 0
 1426 0054 0C37     		adds	r7, r7, #12
 1427              		.cfi_def_cfa_offset 4
 1428 0056 BD46     		mov	sp, r7
 1429              		.cfi_def_cfa_register 13
 1430              		@ sp needed
 1431 0058 5DF8047B 		ldr	r7, [sp], #4
 1432              		.cfi_restore 7
 1433              		.cfi_def_cfa_offset 0
 1434 005c 7047     		bx	lr
 1435              	.L111:
 1436 005e 00BF     		.align	2
 1437              	.L110:
 1438 0060 14400040 		.word	1073758228
 1439 0064 10400040 		.word	1073758224
 1440 0068 08400040 		.word	1073758216
 1441 006c 02400040 		.word	1073758210
 1442 0070 03400040 		.word	1073758211
 1443 0074 01400040 		.word	1073758209
 1444              		.cfi_endproc
 1445              	.LFE14:
 1446              		.size	CyBusClk_Internal_SetDivider, .-CyBusClk_Internal_SetDivider
 1447              		.section	.text.CyBusClk_SetDivider,"ax",%progbits
 1448              		.align	2
 1449              		.global	CyBusClk_SetDivider
 1450              		.thumb
 1451              		.thumb_func
 1452              		.type	CyBusClk_SetDivider, %function
 1453              	CyBusClk_SetDivider:
ARM GAS  C:\Users\Rolando\AppData\Local\Temp\ccmqTZg9.s 			page 41


 1454              	.LFB15:
 823:.\Generated_Source\PSoC5/CyLib.c **** 
 824:.\Generated_Source\PSoC5/CyLib.c **** 
 825:.\Generated_Source\PSoC5/CyLib.c **** /*******************************************************************************
 826:.\Generated_Source\PSoC5/CyLib.c **** * Function Name: CyBusClk_SetDivider
 827:.\Generated_Source\PSoC5/CyLib.c **** ********************************************************************************
 828:.\Generated_Source\PSoC5/CyLib.c **** *
 829:.\Generated_Source\PSoC5/CyLib.c **** * Summary:
 830:.\Generated_Source\PSoC5/CyLib.c **** *  Sets the divider value used to generate Bus Clock.
 831:.\Generated_Source\PSoC5/CyLib.c **** *
 832:.\Generated_Source\PSoC5/CyLib.c **** * Parameters:
 833:.\Generated_Source\PSoC5/CyLib.c **** *  divider: Valid range [0-65535]. The clock will be divided by this value + 1.
 834:.\Generated_Source\PSoC5/CyLib.c **** *  For example to divide by 2 this parameter should be set to 1.
 835:.\Generated_Source\PSoC5/CyLib.c **** *
 836:.\Generated_Source\PSoC5/CyLib.c **** * Return:
 837:.\Generated_Source\PSoC5/CyLib.c **** *  None
 838:.\Generated_Source\PSoC5/CyLib.c **** *
 839:.\Generated_Source\PSoC5/CyLib.c **** * Side Effects:
 840:.\Generated_Source\PSoC5/CyLib.c **** *  If as result of this function execution the CPU clock frequency is increased
 841:.\Generated_Source\PSoC5/CyLib.c **** *  then the number of clock cycles the cache will wait before it samples data
 842:.\Generated_Source\PSoC5/CyLib.c **** *  coming back from Flash must be adjusted by calling CyFlash_SetWaitCycles()
 843:.\Generated_Source\PSoC5/CyLib.c **** *  with appropriate parameter. It can be optionally called if CPU clock
 844:.\Generated_Source\PSoC5/CyLib.c **** *  frequency is lowered in order to improve CPU performance.
 845:.\Generated_Source\PSoC5/CyLib.c **** *  See CyFlash_SetWaitCycles() description for more information.
 846:.\Generated_Source\PSoC5/CyLib.c **** *
 847:.\Generated_Source\PSoC5/CyLib.c **** *******************************************************************************/
 848:.\Generated_Source\PSoC5/CyLib.c **** void CyBusClk_SetDivider(uint16 divider) 
 849:.\Generated_Source\PSoC5/CyLib.c **** {
 1455              		.loc 1 849 0
 1456              		.cfi_startproc
 1457              		@ args = 0, pretend = 0, frame = 16
 1458              		@ frame_needed = 1, uses_anonymous_args = 0
 1459 0000 80B5     		push	{r7, lr}
 1460              		.cfi_def_cfa_offset 8
 1461              		.cfi_offset 7, -8
 1462              		.cfi_offset 14, -4
 1463 0002 84B0     		sub	sp, sp, #16
 1464              		.cfi_def_cfa_offset 24
 1465 0004 00AF     		add	r7, sp, #0
 1466              		.cfi_def_cfa_register 7
 1467 0006 0346     		mov	r3, r0
 1468 0008 FB80     		strh	r3, [r7, #6]	@ movhi
 850:.\Generated_Source\PSoC5/CyLib.c ****     uint8  masterClkDiv;
 851:.\Generated_Source\PSoC5/CyLib.c ****     uint16 busClkDiv;
 852:.\Generated_Source\PSoC5/CyLib.c ****     uint8 interruptState;
 853:.\Generated_Source\PSoC5/CyLib.c **** 
 854:.\Generated_Source\PSoC5/CyLib.c ****     interruptState = CyEnterCriticalSection();
 1469              		.loc 1 854 0
 1470 000a FFF7FEFF 		bl	CyEnterCriticalSection
 1471 000e 0346     		mov	r3, r0
 1472 0010 FB73     		strb	r3, [r7, #15]
 855:.\Generated_Source\PSoC5/CyLib.c **** 
 856:.\Generated_Source\PSoC5/CyLib.c ****     /* Work around to set the bus clock divider value */
 857:.\Generated_Source\PSoC5/CyLib.c ****     busClkDiv = (uint16)((uint16)CY_LIB_CLKDIST_BCFG_MSB_REG << 8u);
 1473              		.loc 1 857 0
 1474 0012 244B     		ldr	r3, .L119
 1475 0014 1B78     		ldrb	r3, [r3]
ARM GAS  C:\Users\Rolando\AppData\Local\Temp\ccmqTZg9.s 			page 42


 1476 0016 DBB2     		uxtb	r3, r3
 1477 0018 9BB2     		uxth	r3, r3
 1478 001a 1B02     		lsls	r3, r3, #8
 1479 001c BB81     		strh	r3, [r7, #12]	@ movhi
 858:.\Generated_Source\PSoC5/CyLib.c ****     busClkDiv |= CY_LIB_CLKDIST_BCFG_LSB_REG;
 1480              		.loc 1 858 0
 1481 001e 224B     		ldr	r3, .L119+4
 1482 0020 1B78     		ldrb	r3, [r3]
 1483 0022 DBB2     		uxtb	r3, r3
 1484 0024 9AB2     		uxth	r2, r3
 1485 0026 BB89     		ldrh	r3, [r7, #12]	@ movhi
 1486 0028 1343     		orrs	r3, r3, r2
 1487 002a BB81     		strh	r3, [r7, #12]	@ movhi
 859:.\Generated_Source\PSoC5/CyLib.c **** 
 860:.\Generated_Source\PSoC5/CyLib.c ****     if ((divider == 0u) || (busClkDiv == 0u))
 1488              		.loc 1 860 0
 1489 002c FB88     		ldrh	r3, [r7, #6]
 1490 002e 002B     		cmp	r3, #0
 1491 0030 02D0     		beq	.L113
 1492              		.loc 1 860 0 is_stmt 0 discriminator 1
 1493 0032 BB89     		ldrh	r3, [r7, #12]
 1494 0034 002B     		cmp	r3, #0
 1495 0036 29D1     		bne	.L114
 1496              	.L113:
 861:.\Generated_Source\PSoC5/CyLib.c ****     {
 862:.\Generated_Source\PSoC5/CyLib.c ****         /* Save away the master clock divider value */
 863:.\Generated_Source\PSoC5/CyLib.c ****         masterClkDiv = CY_LIB_CLKDIST_MSTR0_REG;
 1497              		.loc 1 863 0 is_stmt 1
 1498 0038 1C4B     		ldr	r3, .L119+8
 1499 003a 1B78     		ldrb	r3, [r3]
 1500 003c FB72     		strb	r3, [r7, #11]
 864:.\Generated_Source\PSoC5/CyLib.c **** 
 865:.\Generated_Source\PSoC5/CyLib.c ****         if (masterClkDiv < CY_LIB_CLKDIST_MASTERCLK_DIV)
 1501              		.loc 1 865 0
 1502 003e FB7A     		ldrb	r3, [r7, #11]	@ zero_extendqisi2
 1503 0040 062B     		cmp	r3, #6
 1504 0042 02D8     		bhi	.L115
 866:.\Generated_Source\PSoC5/CyLib.c ****         {
 867:.\Generated_Source\PSoC5/CyLib.c ****             /* Set master clock divider to 7 */
 868:.\Generated_Source\PSoC5/CyLib.c ****             CyMasterClk_SetDivider(CY_LIB_CLKDIST_MASTERCLK_DIV);
 1505              		.loc 1 868 0
 1506 0044 0720     		movs	r0, #7
 1507 0046 FFF7FEFF 		bl	CyMasterClk_SetDivider
 1508              	.L115:
 869:.\Generated_Source\PSoC5/CyLib.c ****         }
 870:.\Generated_Source\PSoC5/CyLib.c **** 
 871:.\Generated_Source\PSoC5/CyLib.c ****         if (divider == 0u)
 1509              		.loc 1 871 0
 1510 004a FB88     		ldrh	r3, [r7, #6]
 1511 004c 002B     		cmp	r3, #0
 1512 004e 0CD1     		bne	.L116
 872:.\Generated_Source\PSoC5/CyLib.c ****         {
 873:.\Generated_Source\PSoC5/CyLib.c ****             /* Set the SSS bit and the divider register desired value */
 874:.\Generated_Source\PSoC5/CyLib.c ****             CY_LIB_CLKDIST_BCFG2_REG |= CY_LIB_CLKDIST_BCFG2_SSS;
 1513              		.loc 1 874 0
 1514 0050 174A     		ldr	r2, .L119+12
 1515 0052 174B     		ldr	r3, .L119+12
ARM GAS  C:\Users\Rolando\AppData\Local\Temp\ccmqTZg9.s 			page 43


 1516 0054 1B78     		ldrb	r3, [r3]
 1517 0056 DBB2     		uxtb	r3, r3
 1518 0058 43F04003 		orr	r3, r3, #64
 1519 005c DBB2     		uxtb	r3, r3
 1520 005e 1370     		strb	r3, [r2]
 875:.\Generated_Source\PSoC5/CyLib.c ****             CyBusClk_Internal_SetDivider(divider);
 1521              		.loc 1 875 0
 1522 0060 FB88     		ldrh	r3, [r7, #6]
 1523 0062 1846     		mov	r0, r3
 1524 0064 FFF7FEFF 		bl	CyBusClk_Internal_SetDivider
 1525 0068 0BE0     		b	.L117
 1526              	.L116:
 876:.\Generated_Source\PSoC5/CyLib.c ****         }
 877:.\Generated_Source\PSoC5/CyLib.c ****         else
 878:.\Generated_Source\PSoC5/CyLib.c ****         {
 879:.\Generated_Source\PSoC5/CyLib.c ****             CyBusClk_Internal_SetDivider(divider);
 1527              		.loc 1 879 0
 1528 006a FB88     		ldrh	r3, [r7, #6]
 1529 006c 1846     		mov	r0, r3
 1530 006e FFF7FEFF 		bl	CyBusClk_Internal_SetDivider
 880:.\Generated_Source\PSoC5/CyLib.c ****             CY_LIB_CLKDIST_BCFG2_REG &= ((uint8)(~CY_LIB_CLKDIST_BCFG2_SSS));
 1531              		.loc 1 880 0
 1532 0072 0F4A     		ldr	r2, .L119+12
 1533 0074 0E4B     		ldr	r3, .L119+12
 1534 0076 1B78     		ldrb	r3, [r3]
 1535 0078 DBB2     		uxtb	r3, r3
 1536 007a 23F04003 		bic	r3, r3, #64
 1537 007e DBB2     		uxtb	r3, r3
 1538 0080 1370     		strb	r3, [r2]
 1539              	.L117:
 881:.\Generated_Source\PSoC5/CyLib.c ****         }
 882:.\Generated_Source\PSoC5/CyLib.c **** 
 883:.\Generated_Source\PSoC5/CyLib.c ****         /* Restore the master clock */
 884:.\Generated_Source\PSoC5/CyLib.c ****         CyMasterClk_SetDivider(masterClkDiv);
 1540              		.loc 1 884 0
 1541 0082 FB7A     		ldrb	r3, [r7, #11]	@ zero_extendqisi2
 1542 0084 1846     		mov	r0, r3
 1543 0086 FFF7FEFF 		bl	CyMasterClk_SetDivider
 1544 008a 03E0     		b	.L118
 1545              	.L114:
 885:.\Generated_Source\PSoC5/CyLib.c ****     }
 886:.\Generated_Source\PSoC5/CyLib.c ****     else
 887:.\Generated_Source\PSoC5/CyLib.c ****     {
 888:.\Generated_Source\PSoC5/CyLib.c ****         CyBusClk_Internal_SetDivider(divider);
 1546              		.loc 1 888 0
 1547 008c FB88     		ldrh	r3, [r7, #6]
 1548 008e 1846     		mov	r0, r3
 1549 0090 FFF7FEFF 		bl	CyBusClk_Internal_SetDivider
 1550              	.L118:
 889:.\Generated_Source\PSoC5/CyLib.c ****     }
 890:.\Generated_Source\PSoC5/CyLib.c **** 
 891:.\Generated_Source\PSoC5/CyLib.c ****     CyExitCriticalSection(interruptState);
 1551              		.loc 1 891 0
 1552 0094 FB7B     		ldrb	r3, [r7, #15]	@ zero_extendqisi2
 1553 0096 1846     		mov	r0, r3
 1554 0098 FFF7FEFF 		bl	CyExitCriticalSection
 892:.\Generated_Source\PSoC5/CyLib.c **** }
ARM GAS  C:\Users\Rolando\AppData\Local\Temp\ccmqTZg9.s 			page 44


 1555              		.loc 1 892 0
 1556 009c 1037     		adds	r7, r7, #16
 1557              		.cfi_def_cfa_offset 8
 1558 009e BD46     		mov	sp, r7
 1559              		.cfi_def_cfa_register 13
 1560              		@ sp needed
 1561 00a0 80BD     		pop	{r7, pc}
 1562              	.L120:
 1563 00a2 00BF     		.align	2
 1564              	.L119:
 1565 00a4 07400040 		.word	1073758215
 1566 00a8 06400040 		.word	1073758214
 1567 00ac 04400040 		.word	1073758212
 1568 00b0 08400040 		.word	1073758216
 1569              		.cfi_endproc
 1570              	.LFE15:
 1571              		.size	CyBusClk_SetDivider, .-CyBusClk_SetDivider
 1572              		.section	.text.CyUsbClk_SetSource,"ax",%progbits
 1573              		.align	2
 1574              		.global	CyUsbClk_SetSource
 1575              		.thumb
 1576              		.thumb_func
 1577              		.type	CyUsbClk_SetSource, %function
 1578              	CyUsbClk_SetSource:
 1579              	.LFB16:
 893:.\Generated_Source\PSoC5/CyLib.c **** 
 894:.\Generated_Source\PSoC5/CyLib.c **** 
 895:.\Generated_Source\PSoC5/CyLib.c **** #if(CY_PSOC3)
 896:.\Generated_Source\PSoC5/CyLib.c **** 
 897:.\Generated_Source\PSoC5/CyLib.c ****     /*******************************************************************************
 898:.\Generated_Source\PSoC5/CyLib.c ****     * Function Name: CyCpuClk_SetDivider
 899:.\Generated_Source\PSoC5/CyLib.c ****     ********************************************************************************
 900:.\Generated_Source\PSoC5/CyLib.c ****     *
 901:.\Generated_Source\PSoC5/CyLib.c ****     * Summary:
 902:.\Generated_Source\PSoC5/CyLib.c ****     *  Sets the divider value used to generate the CPU Clock. Only applicable for
 903:.\Generated_Source\PSoC5/CyLib.c ****     *  PSoC 3 parts.
 904:.\Generated_Source\PSoC5/CyLib.c ****     *
 905:.\Generated_Source\PSoC5/CyLib.c ****     * Parameters:
 906:.\Generated_Source\PSoC5/CyLib.c ****     *  divider: Valid range [0-15]. The clock will be divided by this value + 1.
 907:.\Generated_Source\PSoC5/CyLib.c ****     *  For example to divide by 2 this parameter should be set to 1.
 908:.\Generated_Source\PSoC5/CyLib.c ****     *
 909:.\Generated_Source\PSoC5/CyLib.c ****     * Return:
 910:.\Generated_Source\PSoC5/CyLib.c ****     *  None
 911:.\Generated_Source\PSoC5/CyLib.c ****     *
 912:.\Generated_Source\PSoC5/CyLib.c ****     * Side Effects:
 913:.\Generated_Source\PSoC5/CyLib.c ****     *  If as result of this function execution the CPU clock frequency is increased
 914:.\Generated_Source\PSoC5/CyLib.c ****     *  then the number of clock cycles the cache will wait before it samples data
 915:.\Generated_Source\PSoC5/CyLib.c ****     *  coming back from Flash must be adjusted by calling CyFlash_SetWaitCycles()
 916:.\Generated_Source\PSoC5/CyLib.c ****     *  with appropriate parameter. It can be optionally called if CPU clock
 917:.\Generated_Source\PSoC5/CyLib.c ****     *  frequency is lowered in order to improve CPU performance.
 918:.\Generated_Source\PSoC5/CyLib.c ****     *  See CyFlash_SetWaitCycles() description for more information.
 919:.\Generated_Source\PSoC5/CyLib.c ****     *
 920:.\Generated_Source\PSoC5/CyLib.c ****     *******************************************************************************/
 921:.\Generated_Source\PSoC5/CyLib.c ****     void CyCpuClk_SetDivider(uint8 divider) 
 922:.\Generated_Source\PSoC5/CyLib.c ****     {
 923:.\Generated_Source\PSoC5/CyLib.c ****             CY_LIB_CLKDIST_MSTR1_REG = (CY_LIB_CLKDIST_MSTR1_REG & CY_LIB_CLKDIST_MSTR1_DIV_MASK) |
 924:.\Generated_Source\PSoC5/CyLib.c ****                                 ((uint8)(divider << CY_LIB_CLKDIST_DIV_POSITION));
ARM GAS  C:\Users\Rolando\AppData\Local\Temp\ccmqTZg9.s 			page 45


 925:.\Generated_Source\PSoC5/CyLib.c ****     }
 926:.\Generated_Source\PSoC5/CyLib.c **** 
 927:.\Generated_Source\PSoC5/CyLib.c **** #endif /* (CY_PSOC3) */
 928:.\Generated_Source\PSoC5/CyLib.c **** 
 929:.\Generated_Source\PSoC5/CyLib.c **** 
 930:.\Generated_Source\PSoC5/CyLib.c **** /*******************************************************************************
 931:.\Generated_Source\PSoC5/CyLib.c **** * Function Name: CyUsbClk_SetSource
 932:.\Generated_Source\PSoC5/CyLib.c **** ********************************************************************************
 933:.\Generated_Source\PSoC5/CyLib.c **** *
 934:.\Generated_Source\PSoC5/CyLib.c **** * Summary:
 935:.\Generated_Source\PSoC5/CyLib.c **** *  Sets the source of the USB clock.
 936:.\Generated_Source\PSoC5/CyLib.c **** *
 937:.\Generated_Source\PSoC5/CyLib.c **** * Parameters:
 938:.\Generated_Source\PSoC5/CyLib.c **** *  source: One of the four available USB clock sources
 939:.\Generated_Source\PSoC5/CyLib.c **** *    CY_LIB_USB_CLK_IMO2X     - IMO 2x
 940:.\Generated_Source\PSoC5/CyLib.c **** *    CY_LIB_USB_CLK_IMO       - IMO
 941:.\Generated_Source\PSoC5/CyLib.c **** *    CY_LIB_USB_CLK_PLL       - PLL
 942:.\Generated_Source\PSoC5/CyLib.c **** *    CY_LIB_USB_CLK_DSI       - DSI
 943:.\Generated_Source\PSoC5/CyLib.c **** *
 944:.\Generated_Source\PSoC5/CyLib.c **** * Return:
 945:.\Generated_Source\PSoC5/CyLib.c **** *  None
 946:.\Generated_Source\PSoC5/CyLib.c **** *
 947:.\Generated_Source\PSoC5/CyLib.c **** *******************************************************************************/
 948:.\Generated_Source\PSoC5/CyLib.c **** void CyUsbClk_SetSource(uint8 source) 
 949:.\Generated_Source\PSoC5/CyLib.c **** {
 1580              		.loc 1 949 0
 1581              		.cfi_startproc
 1582              		@ args = 0, pretend = 0, frame = 8
 1583              		@ frame_needed = 1, uses_anonymous_args = 0
 1584              		@ link register save eliminated.
 1585 0000 80B4     		push	{r7}
 1586              		.cfi_def_cfa_offset 4
 1587              		.cfi_offset 7, -4
 1588 0002 83B0     		sub	sp, sp, #12
 1589              		.cfi_def_cfa_offset 16
 1590 0004 00AF     		add	r7, sp, #0
 1591              		.cfi_def_cfa_register 7
 1592 0006 0346     		mov	r3, r0
 1593 0008 FB71     		strb	r3, [r7, #7]
 950:.\Generated_Source\PSoC5/CyLib.c ****     CY_LIB_CLKDIST_UCFG_REG = (CY_LIB_CLKDIST_UCFG_REG & ((uint8)(~CY_LIB_CLKDIST_UCFG_SRC_SEL_MASK
 1594              		.loc 1 950 0
 1595 000a 0949     		ldr	r1, .L122
 1596 000c 084B     		ldr	r3, .L122
 1597 000e 1B78     		ldrb	r3, [r3]
 1598 0010 DBB2     		uxtb	r3, r3
 1599 0012 23F00303 		bic	r3, r3, #3
 1600 0016 DAB2     		uxtb	r2, r3
 1601 0018 FB79     		ldrb	r3, [r7, #7]
 1602 001a 03F00303 		and	r3, r3, #3
 1603 001e DBB2     		uxtb	r3, r3
 1604 0020 1343     		orrs	r3, r3, r2
 1605 0022 DBB2     		uxtb	r3, r3
 1606 0024 0B70     		strb	r3, [r1]
 951:.\Generated_Source\PSoC5/CyLib.c ****                         (CY_LIB_CLKDIST_UCFG_SRC_SEL_MASK & source);
 952:.\Generated_Source\PSoC5/CyLib.c **** }
 1607              		.loc 1 952 0
 1608 0026 0C37     		adds	r7, r7, #12
ARM GAS  C:\Users\Rolando\AppData\Local\Temp\ccmqTZg9.s 			page 46


 1609              		.cfi_def_cfa_offset 4
 1610 0028 BD46     		mov	sp, r7
 1611              		.cfi_def_cfa_register 13
 1612              		@ sp needed
 1613 002a 5DF8047B 		ldr	r7, [sp], #4
 1614              		.cfi_restore 7
 1615              		.cfi_def_cfa_offset 0
 1616 002e 7047     		bx	lr
 1617              	.L123:
 1618              		.align	2
 1619              	.L122:
 1620 0030 09400040 		.word	1073758217
 1621              		.cfi_endproc
 1622              	.LFE16:
 1623              		.size	CyUsbClk_SetSource, .-CyUsbClk_SetSource
 1624              		.section	.text.CyILO_Start1K,"ax",%progbits
 1625              		.align	2
 1626              		.global	CyILO_Start1K
 1627              		.thumb
 1628              		.thumb_func
 1629              		.type	CyILO_Start1K, %function
 1630              	CyILO_Start1K:
 1631              	.LFB17:
 953:.\Generated_Source\PSoC5/CyLib.c **** 
 954:.\Generated_Source\PSoC5/CyLib.c **** 
 955:.\Generated_Source\PSoC5/CyLib.c **** /*******************************************************************************
 956:.\Generated_Source\PSoC5/CyLib.c **** * Function Name: CyILO_Start1K
 957:.\Generated_Source\PSoC5/CyLib.c **** ********************************************************************************
 958:.\Generated_Source\PSoC5/CyLib.c **** *
 959:.\Generated_Source\PSoC5/CyLib.c **** * Summary:
 960:.\Generated_Source\PSoC5/CyLib.c **** *  Enables the ILO 1 KHz oscillator.
 961:.\Generated_Source\PSoC5/CyLib.c **** *
 962:.\Generated_Source\PSoC5/CyLib.c **** *  Note The ILO 1 KHz oscillator is always enabled by default, regardless of the
 963:.\Generated_Source\PSoC5/CyLib.c **** *  selection in the Clock Editor. Therefore, this API is only needed if the
 964:.\Generated_Source\PSoC5/CyLib.c **** *  oscillator was turned off manually.
 965:.\Generated_Source\PSoC5/CyLib.c **** *
 966:.\Generated_Source\PSoC5/CyLib.c **** * Parameters:
 967:.\Generated_Source\PSoC5/CyLib.c **** *  None
 968:.\Generated_Source\PSoC5/CyLib.c **** *
 969:.\Generated_Source\PSoC5/CyLib.c **** * Return:
 970:.\Generated_Source\PSoC5/CyLib.c **** *  None
 971:.\Generated_Source\PSoC5/CyLib.c **** *
 972:.\Generated_Source\PSoC5/CyLib.c **** *******************************************************************************/
 973:.\Generated_Source\PSoC5/CyLib.c **** void CyILO_Start1K(void) 
 974:.\Generated_Source\PSoC5/CyLib.c **** {
 1632              		.loc 1 974 0
 1633              		.cfi_startproc
 1634              		@ args = 0, pretend = 0, frame = 0
 1635              		@ frame_needed = 1, uses_anonymous_args = 0
 1636              		@ link register save eliminated.
 1637 0000 80B4     		push	{r7}
 1638              		.cfi_def_cfa_offset 4
 1639              		.cfi_offset 7, -4
 1640 0002 00AF     		add	r7, sp, #0
 1641              		.cfi_def_cfa_register 7
 975:.\Generated_Source\PSoC5/CyLib.c ****     /* Set the bit 1 of ILO RS */
 976:.\Generated_Source\PSoC5/CyLib.c ****     CY_LIB_SLOWCLK_ILO_CR0_REG |= CY_LIB_SLOWCLK_ILO_CR0_EN_1KHZ;
ARM GAS  C:\Users\Rolando\AppData\Local\Temp\ccmqTZg9.s 			page 47


 1642              		.loc 1 976 0
 1643 0004 054A     		ldr	r2, .L125
 1644 0006 054B     		ldr	r3, .L125
 1645 0008 1B78     		ldrb	r3, [r3]
 1646 000a DBB2     		uxtb	r3, r3
 1647 000c 43F00203 		orr	r3, r3, #2
 1648 0010 DBB2     		uxtb	r3, r3
 1649 0012 1370     		strb	r3, [r2]
 977:.\Generated_Source\PSoC5/CyLib.c **** }
 1650              		.loc 1 977 0
 1651 0014 BD46     		mov	sp, r7
 1652              		.cfi_def_cfa_register 13
 1653              		@ sp needed
 1654 0016 5DF8047B 		ldr	r7, [sp], #4
 1655              		.cfi_restore 7
 1656              		.cfi_def_cfa_offset 0
 1657 001a 7047     		bx	lr
 1658              	.L126:
 1659              		.align	2
 1660              	.L125:
 1661 001c 00430040 		.word	1073758976
 1662              		.cfi_endproc
 1663              	.LFE17:
 1664              		.size	CyILO_Start1K, .-CyILO_Start1K
 1665              		.section	.text.CyILO_Stop1K,"ax",%progbits
 1666              		.align	2
 1667              		.global	CyILO_Stop1K
 1668              		.thumb
 1669              		.thumb_func
 1670              		.type	CyILO_Stop1K, %function
 1671              	CyILO_Stop1K:
 1672              	.LFB18:
 978:.\Generated_Source\PSoC5/CyLib.c **** 
 979:.\Generated_Source\PSoC5/CyLib.c **** 
 980:.\Generated_Source\PSoC5/CyLib.c **** /*******************************************************************************
 981:.\Generated_Source\PSoC5/CyLib.c **** * Function Name: CyILO_Stop1K
 982:.\Generated_Source\PSoC5/CyLib.c **** ********************************************************************************
 983:.\Generated_Source\PSoC5/CyLib.c **** *
 984:.\Generated_Source\PSoC5/CyLib.c **** * Summary:
 985:.\Generated_Source\PSoC5/CyLib.c **** *  Disables the ILO 1 KHz oscillator.
 986:.\Generated_Source\PSoC5/CyLib.c **** *
 987:.\Generated_Source\PSoC5/CyLib.c **** *  Note The ILO 1 KHz oscillator must be enabled if Sleep or Hibernate low power
 988:.\Generated_Source\PSoC5/CyLib.c **** *  mode APIs are expected to be used. For more information, refer to the Power
 989:.\Generated_Source\PSoC5/CyLib.c **** *  Management section of this document.
 990:.\Generated_Source\PSoC5/CyLib.c **** *
 991:.\Generated_Source\PSoC5/CyLib.c **** * Parameters:
 992:.\Generated_Source\PSoC5/CyLib.c **** *  None
 993:.\Generated_Source\PSoC5/CyLib.c **** *
 994:.\Generated_Source\PSoC5/CyLib.c **** * Return:
 995:.\Generated_Source\PSoC5/CyLib.c **** *  None
 996:.\Generated_Source\PSoC5/CyLib.c **** *
 997:.\Generated_Source\PSoC5/CyLib.c **** * Side Effects:
 998:.\Generated_Source\PSoC5/CyLib.c **** *  PSoC5: Stopping the ILO 1 kHz could break the active WDT functionality.
 999:.\Generated_Source\PSoC5/CyLib.c **** *
1000:.\Generated_Source\PSoC5/CyLib.c **** *******************************************************************************/
1001:.\Generated_Source\PSoC5/CyLib.c **** void CyILO_Stop1K(void) 
1002:.\Generated_Source\PSoC5/CyLib.c **** {
ARM GAS  C:\Users\Rolando\AppData\Local\Temp\ccmqTZg9.s 			page 48


 1673              		.loc 1 1002 0
 1674              		.cfi_startproc
 1675              		@ args = 0, pretend = 0, frame = 0
 1676              		@ frame_needed = 1, uses_anonymous_args = 0
 1677              		@ link register save eliminated.
 1678 0000 80B4     		push	{r7}
 1679              		.cfi_def_cfa_offset 4
 1680              		.cfi_offset 7, -4
 1681 0002 00AF     		add	r7, sp, #0
 1682              		.cfi_def_cfa_register 7
1003:.\Generated_Source\PSoC5/CyLib.c ****     /* Clear the bit 1 of ILO RS */
1004:.\Generated_Source\PSoC5/CyLib.c ****     CY_LIB_SLOWCLK_ILO_CR0_REG &= ((uint8)(~CY_LIB_SLOWCLK_ILO_CR0_EN_1KHZ));
 1683              		.loc 1 1004 0
 1684 0004 054A     		ldr	r2, .L128
 1685 0006 054B     		ldr	r3, .L128
 1686 0008 1B78     		ldrb	r3, [r3]
 1687 000a DBB2     		uxtb	r3, r3
 1688 000c 23F00203 		bic	r3, r3, #2
 1689 0010 DBB2     		uxtb	r3, r3
 1690 0012 1370     		strb	r3, [r2]
1005:.\Generated_Source\PSoC5/CyLib.c **** }
 1691              		.loc 1 1005 0
 1692 0014 BD46     		mov	sp, r7
 1693              		.cfi_def_cfa_register 13
 1694              		@ sp needed
 1695 0016 5DF8047B 		ldr	r7, [sp], #4
 1696              		.cfi_restore 7
 1697              		.cfi_def_cfa_offset 0
 1698 001a 7047     		bx	lr
 1699              	.L129:
 1700              		.align	2
 1701              	.L128:
 1702 001c 00430040 		.word	1073758976
 1703              		.cfi_endproc
 1704              	.LFE18:
 1705              		.size	CyILO_Stop1K, .-CyILO_Stop1K
 1706              		.section	.text.CyILO_Start100K,"ax",%progbits
 1707              		.align	2
 1708              		.global	CyILO_Start100K
 1709              		.thumb
 1710              		.thumb_func
 1711              		.type	CyILO_Start100K, %function
 1712              	CyILO_Start100K:
 1713              	.LFB19:
1006:.\Generated_Source\PSoC5/CyLib.c **** 
1007:.\Generated_Source\PSoC5/CyLib.c **** 
1008:.\Generated_Source\PSoC5/CyLib.c **** /*******************************************************************************
1009:.\Generated_Source\PSoC5/CyLib.c **** * Function Name: CyILO_Start100K
1010:.\Generated_Source\PSoC5/CyLib.c **** ********************************************************************************
1011:.\Generated_Source\PSoC5/CyLib.c **** *
1012:.\Generated_Source\PSoC5/CyLib.c **** * Summary:
1013:.\Generated_Source\PSoC5/CyLib.c **** *  Enables the ILO 100 KHz oscillator.
1014:.\Generated_Source\PSoC5/CyLib.c **** *
1015:.\Generated_Source\PSoC5/CyLib.c **** * Parameters:
1016:.\Generated_Source\PSoC5/CyLib.c **** *  None
1017:.\Generated_Source\PSoC5/CyLib.c **** *
1018:.\Generated_Source\PSoC5/CyLib.c **** * Return:
ARM GAS  C:\Users\Rolando\AppData\Local\Temp\ccmqTZg9.s 			page 49


1019:.\Generated_Source\PSoC5/CyLib.c **** *  None
1020:.\Generated_Source\PSoC5/CyLib.c **** *
1021:.\Generated_Source\PSoC5/CyLib.c **** *******************************************************************************/
1022:.\Generated_Source\PSoC5/CyLib.c **** void CyILO_Start100K(void) 
1023:.\Generated_Source\PSoC5/CyLib.c **** {
 1714              		.loc 1 1023 0
 1715              		.cfi_startproc
 1716              		@ args = 0, pretend = 0, frame = 0
 1717              		@ frame_needed = 1, uses_anonymous_args = 0
 1718              		@ link register save eliminated.
 1719 0000 80B4     		push	{r7}
 1720              		.cfi_def_cfa_offset 4
 1721              		.cfi_offset 7, -4
 1722 0002 00AF     		add	r7, sp, #0
 1723              		.cfi_def_cfa_register 7
1024:.\Generated_Source\PSoC5/CyLib.c ****     CY_LIB_SLOWCLK_ILO_CR0_REG |= CY_LIB_SLOWCLK_ILO_CR0_EN_100KHZ;
 1724              		.loc 1 1024 0
 1725 0004 054A     		ldr	r2, .L131
 1726 0006 054B     		ldr	r3, .L131
 1727 0008 1B78     		ldrb	r3, [r3]
 1728 000a DBB2     		uxtb	r3, r3
 1729 000c 43F00403 		orr	r3, r3, #4
 1730 0010 DBB2     		uxtb	r3, r3
 1731 0012 1370     		strb	r3, [r2]
1025:.\Generated_Source\PSoC5/CyLib.c **** }
 1732              		.loc 1 1025 0
 1733 0014 BD46     		mov	sp, r7
 1734              		.cfi_def_cfa_register 13
 1735              		@ sp needed
 1736 0016 5DF8047B 		ldr	r7, [sp], #4
 1737              		.cfi_restore 7
 1738              		.cfi_def_cfa_offset 0
 1739 001a 7047     		bx	lr
 1740              	.L132:
 1741              		.align	2
 1742              	.L131:
 1743 001c 00430040 		.word	1073758976
 1744              		.cfi_endproc
 1745              	.LFE19:
 1746              		.size	CyILO_Start100K, .-CyILO_Start100K
 1747              		.section	.text.CyILO_Stop100K,"ax",%progbits
 1748              		.align	2
 1749              		.global	CyILO_Stop100K
 1750              		.thumb
 1751              		.thumb_func
 1752              		.type	CyILO_Stop100K, %function
 1753              	CyILO_Stop100K:
 1754              	.LFB20:
1026:.\Generated_Source\PSoC5/CyLib.c **** 
1027:.\Generated_Source\PSoC5/CyLib.c **** 
1028:.\Generated_Source\PSoC5/CyLib.c **** /*******************************************************************************
1029:.\Generated_Source\PSoC5/CyLib.c **** * Function Name: CyILO_Stop100K
1030:.\Generated_Source\PSoC5/CyLib.c **** ********************************************************************************
1031:.\Generated_Source\PSoC5/CyLib.c **** *
1032:.\Generated_Source\PSoC5/CyLib.c **** * Summary:
1033:.\Generated_Source\PSoC5/CyLib.c **** *  Disables the ILO 100 KHz oscillator.
1034:.\Generated_Source\PSoC5/CyLib.c **** *
ARM GAS  C:\Users\Rolando\AppData\Local\Temp\ccmqTZg9.s 			page 50


1035:.\Generated_Source\PSoC5/CyLib.c **** * Parameters:
1036:.\Generated_Source\PSoC5/CyLib.c **** *  None
1037:.\Generated_Source\PSoC5/CyLib.c **** *
1038:.\Generated_Source\PSoC5/CyLib.c **** * Return:
1039:.\Generated_Source\PSoC5/CyLib.c **** *  None
1040:.\Generated_Source\PSoC5/CyLib.c **** *
1041:.\Generated_Source\PSoC5/CyLib.c **** *******************************************************************************/
1042:.\Generated_Source\PSoC5/CyLib.c **** void CyILO_Stop100K(void) 
1043:.\Generated_Source\PSoC5/CyLib.c **** {
 1755              		.loc 1 1043 0
 1756              		.cfi_startproc
 1757              		@ args = 0, pretend = 0, frame = 0
 1758              		@ frame_needed = 1, uses_anonymous_args = 0
 1759              		@ link register save eliminated.
 1760 0000 80B4     		push	{r7}
 1761              		.cfi_def_cfa_offset 4
 1762              		.cfi_offset 7, -4
 1763 0002 00AF     		add	r7, sp, #0
 1764              		.cfi_def_cfa_register 7
1044:.\Generated_Source\PSoC5/CyLib.c ****     CY_LIB_SLOWCLK_ILO_CR0_REG &= ((uint8)(~CY_LIB_SLOWCLK_ILO_CR0_EN_100KHZ));
 1765              		.loc 1 1044 0
 1766 0004 054A     		ldr	r2, .L134
 1767 0006 054B     		ldr	r3, .L134
 1768 0008 1B78     		ldrb	r3, [r3]
 1769 000a DBB2     		uxtb	r3, r3
 1770 000c 23F00403 		bic	r3, r3, #4
 1771 0010 DBB2     		uxtb	r3, r3
 1772 0012 1370     		strb	r3, [r2]
1045:.\Generated_Source\PSoC5/CyLib.c **** }
 1773              		.loc 1 1045 0
 1774 0014 BD46     		mov	sp, r7
 1775              		.cfi_def_cfa_register 13
 1776              		@ sp needed
 1777 0016 5DF8047B 		ldr	r7, [sp], #4
 1778              		.cfi_restore 7
 1779              		.cfi_def_cfa_offset 0
 1780 001a 7047     		bx	lr
 1781              	.L135:
 1782              		.align	2
 1783              	.L134:
 1784 001c 00430040 		.word	1073758976
 1785              		.cfi_endproc
 1786              	.LFE20:
 1787              		.size	CyILO_Stop100K, .-CyILO_Stop100K
 1788              		.section	.text.CyILO_Enable33K,"ax",%progbits
 1789              		.align	2
 1790              		.global	CyILO_Enable33K
 1791              		.thumb
 1792              		.thumb_func
 1793              		.type	CyILO_Enable33K, %function
 1794              	CyILO_Enable33K:
 1795              	.LFB21:
1046:.\Generated_Source\PSoC5/CyLib.c **** 
1047:.\Generated_Source\PSoC5/CyLib.c **** 
1048:.\Generated_Source\PSoC5/CyLib.c **** /*******************************************************************************
1049:.\Generated_Source\PSoC5/CyLib.c **** * Function Name: CyILO_Enable33K
1050:.\Generated_Source\PSoC5/CyLib.c **** ********************************************************************************
ARM GAS  C:\Users\Rolando\AppData\Local\Temp\ccmqTZg9.s 			page 51


1051:.\Generated_Source\PSoC5/CyLib.c **** *
1052:.\Generated_Source\PSoC5/CyLib.c **** * Summary:
1053:.\Generated_Source\PSoC5/CyLib.c **** *  Enables the ILO 33 KHz divider.
1054:.\Generated_Source\PSoC5/CyLib.c **** *
1055:.\Generated_Source\PSoC5/CyLib.c **** *  Note that the 33 KHz clock is generated from the 100 KHz oscillator,
1056:.\Generated_Source\PSoC5/CyLib.c **** *  so it must also be running in order to generate the 33 KHz output.
1057:.\Generated_Source\PSoC5/CyLib.c **** *
1058:.\Generated_Source\PSoC5/CyLib.c **** * Parameters:
1059:.\Generated_Source\PSoC5/CyLib.c **** *  None
1060:.\Generated_Source\PSoC5/CyLib.c **** *
1061:.\Generated_Source\PSoC5/CyLib.c **** * Return:
1062:.\Generated_Source\PSoC5/CyLib.c **** *  None
1063:.\Generated_Source\PSoC5/CyLib.c **** *
1064:.\Generated_Source\PSoC5/CyLib.c **** *******************************************************************************/
1065:.\Generated_Source\PSoC5/CyLib.c **** void CyILO_Enable33K(void) 
1066:.\Generated_Source\PSoC5/CyLib.c **** {
 1796              		.loc 1 1066 0
 1797              		.cfi_startproc
 1798              		@ args = 0, pretend = 0, frame = 0
 1799              		@ frame_needed = 1, uses_anonymous_args = 0
 1800              		@ link register save eliminated.
 1801 0000 80B4     		push	{r7}
 1802              		.cfi_def_cfa_offset 4
 1803              		.cfi_offset 7, -4
 1804 0002 00AF     		add	r7, sp, #0
 1805              		.cfi_def_cfa_register 7
1067:.\Generated_Source\PSoC5/CyLib.c ****     /* Set the bit 5 of ILO RS */
1068:.\Generated_Source\PSoC5/CyLib.c ****     CY_LIB_SLOWCLK_ILO_CR0_REG |= CY_LIB_SLOWCLK_ILO_CR0_EN_33KHZ;
 1806              		.loc 1 1068 0
 1807 0004 054A     		ldr	r2, .L137
 1808 0006 054B     		ldr	r3, .L137
 1809 0008 1B78     		ldrb	r3, [r3]
 1810 000a DBB2     		uxtb	r3, r3
 1811 000c 43F02003 		orr	r3, r3, #32
 1812 0010 DBB2     		uxtb	r3, r3
 1813 0012 1370     		strb	r3, [r2]
1069:.\Generated_Source\PSoC5/CyLib.c **** }
 1814              		.loc 1 1069 0
 1815 0014 BD46     		mov	sp, r7
 1816              		.cfi_def_cfa_register 13
 1817              		@ sp needed
 1818 0016 5DF8047B 		ldr	r7, [sp], #4
 1819              		.cfi_restore 7
 1820              		.cfi_def_cfa_offset 0
 1821 001a 7047     		bx	lr
 1822              	.L138:
 1823              		.align	2
 1824              	.L137:
 1825 001c 00430040 		.word	1073758976
 1826              		.cfi_endproc
 1827              	.LFE21:
 1828              		.size	CyILO_Enable33K, .-CyILO_Enable33K
 1829              		.section	.text.CyILO_Disable33K,"ax",%progbits
 1830              		.align	2
 1831              		.global	CyILO_Disable33K
 1832              		.thumb
 1833              		.thumb_func
ARM GAS  C:\Users\Rolando\AppData\Local\Temp\ccmqTZg9.s 			page 52


 1834              		.type	CyILO_Disable33K, %function
 1835              	CyILO_Disable33K:
 1836              	.LFB22:
1070:.\Generated_Source\PSoC5/CyLib.c **** 
1071:.\Generated_Source\PSoC5/CyLib.c **** 
1072:.\Generated_Source\PSoC5/CyLib.c **** /*******************************************************************************
1073:.\Generated_Source\PSoC5/CyLib.c **** * Function Name: CyILO_Disable33K
1074:.\Generated_Source\PSoC5/CyLib.c **** ********************************************************************************
1075:.\Generated_Source\PSoC5/CyLib.c **** *
1076:.\Generated_Source\PSoC5/CyLib.c **** * Summary:
1077:.\Generated_Source\PSoC5/CyLib.c **** *  Disables the ILO 33 KHz divider.
1078:.\Generated_Source\PSoC5/CyLib.c **** *
1079:.\Generated_Source\PSoC5/CyLib.c **** *  Note that the 33 KHz clock is generated from the 100 KHz oscillator, but this
1080:.\Generated_Source\PSoC5/CyLib.c **** *  API does not disable the 100 KHz clock.
1081:.\Generated_Source\PSoC5/CyLib.c **** *
1082:.\Generated_Source\PSoC5/CyLib.c **** * Parameters:
1083:.\Generated_Source\PSoC5/CyLib.c **** *  None
1084:.\Generated_Source\PSoC5/CyLib.c **** *
1085:.\Generated_Source\PSoC5/CyLib.c **** * Return:
1086:.\Generated_Source\PSoC5/CyLib.c **** *  None
1087:.\Generated_Source\PSoC5/CyLib.c **** *
1088:.\Generated_Source\PSoC5/CyLib.c **** *******************************************************************************/
1089:.\Generated_Source\PSoC5/CyLib.c **** void CyILO_Disable33K(void) 
1090:.\Generated_Source\PSoC5/CyLib.c **** {
 1837              		.loc 1 1090 0
 1838              		.cfi_startproc
 1839              		@ args = 0, pretend = 0, frame = 0
 1840              		@ frame_needed = 1, uses_anonymous_args = 0
 1841              		@ link register save eliminated.
 1842 0000 80B4     		push	{r7}
 1843              		.cfi_def_cfa_offset 4
 1844              		.cfi_offset 7, -4
 1845 0002 00AF     		add	r7, sp, #0
 1846              		.cfi_def_cfa_register 7
1091:.\Generated_Source\PSoC5/CyLib.c ****     CY_LIB_SLOWCLK_ILO_CR0_REG &= ((uint8)(~CY_LIB_SLOWCLK_ILO_CR0_EN_33KHZ));
 1847              		.loc 1 1091 0
 1848 0004 054A     		ldr	r2, .L140
 1849 0006 054B     		ldr	r3, .L140
 1850 0008 1B78     		ldrb	r3, [r3]
 1851 000a DBB2     		uxtb	r3, r3
 1852 000c 23F02003 		bic	r3, r3, #32
 1853 0010 DBB2     		uxtb	r3, r3
 1854 0012 1370     		strb	r3, [r2]
1092:.\Generated_Source\PSoC5/CyLib.c **** }
 1855              		.loc 1 1092 0
 1856 0014 BD46     		mov	sp, r7
 1857              		.cfi_def_cfa_register 13
 1858              		@ sp needed
 1859 0016 5DF8047B 		ldr	r7, [sp], #4
 1860              		.cfi_restore 7
 1861              		.cfi_def_cfa_offset 0
 1862 001a 7047     		bx	lr
 1863              	.L141:
 1864              		.align	2
 1865              	.L140:
 1866 001c 00430040 		.word	1073758976
 1867              		.cfi_endproc
ARM GAS  C:\Users\Rolando\AppData\Local\Temp\ccmqTZg9.s 			page 53


 1868              	.LFE22:
 1869              		.size	CyILO_Disable33K, .-CyILO_Disable33K
 1870              		.section	.text.CyILO_SetSource,"ax",%progbits
 1871              		.align	2
 1872              		.global	CyILO_SetSource
 1873              		.thumb
 1874              		.thumb_func
 1875              		.type	CyILO_SetSource, %function
 1876              	CyILO_SetSource:
 1877              	.LFB23:
1093:.\Generated_Source\PSoC5/CyLib.c **** 
1094:.\Generated_Source\PSoC5/CyLib.c **** 
1095:.\Generated_Source\PSoC5/CyLib.c **** /*******************************************************************************
1096:.\Generated_Source\PSoC5/CyLib.c **** * Function Name: CyILO_SetSource
1097:.\Generated_Source\PSoC5/CyLib.c **** ********************************************************************************
1098:.\Generated_Source\PSoC5/CyLib.c **** *
1099:.\Generated_Source\PSoC5/CyLib.c **** * Summary:
1100:.\Generated_Source\PSoC5/CyLib.c **** *  Sets the source of the clock output from the ILO block.
1101:.\Generated_Source\PSoC5/CyLib.c **** *
1102:.\Generated_Source\PSoC5/CyLib.c **** * Parameters:
1103:.\Generated_Source\PSoC5/CyLib.c **** *  source: One of the three available ILO output sources
1104:.\Generated_Source\PSoC5/CyLib.c **** *       Value        Define                Source
1105:.\Generated_Source\PSoC5/CyLib.c **** *       0            CY_ILO_SOURCE_100K    ILO 100 KHz
1106:.\Generated_Source\PSoC5/CyLib.c **** *       1            CY_ILO_SOURCE_33K     ILO 33 KHz
1107:.\Generated_Source\PSoC5/CyLib.c **** *       2            CY_ILO_SOURCE_1K      ILO 1 KHz
1108:.\Generated_Source\PSoC5/CyLib.c **** *
1109:.\Generated_Source\PSoC5/CyLib.c **** * Return:
1110:.\Generated_Source\PSoC5/CyLib.c **** *  None
1111:.\Generated_Source\PSoC5/CyLib.c **** *
1112:.\Generated_Source\PSoC5/CyLib.c **** *******************************************************************************/
1113:.\Generated_Source\PSoC5/CyLib.c **** void CyILO_SetSource(uint8 source) 
1114:.\Generated_Source\PSoC5/CyLib.c **** {
 1878              		.loc 1 1114 0
 1879              		.cfi_startproc
 1880              		@ args = 0, pretend = 0, frame = 8
 1881              		@ frame_needed = 1, uses_anonymous_args = 0
 1882              		@ link register save eliminated.
 1883 0000 80B4     		push	{r7}
 1884              		.cfi_def_cfa_offset 4
 1885              		.cfi_offset 7, -4
 1886 0002 83B0     		sub	sp, sp, #12
 1887              		.cfi_def_cfa_offset 16
 1888 0004 00AF     		add	r7, sp, #0
 1889              		.cfi_def_cfa_register 7
 1890 0006 0346     		mov	r3, r0
 1891 0008 FB71     		strb	r3, [r7, #7]
1115:.\Generated_Source\PSoC5/CyLib.c ****     CY_LIB_CLKDIST_CR_REG = (CY_LIB_CLKDIST_CR_REG & CY_ILO_SOURCE_BITS_CLEAR) |
 1892              		.loc 1 1115 0
 1893 000a 4FF04021 		mov	r1, #1073758208
 1894 000e 4FF04023 		mov	r3, #1073758208
 1895 0012 1B78     		ldrb	r3, [r3]
 1896 0014 DBB2     		uxtb	r3, r3
 1897 0016 23F00C03 		bic	r3, r3, #12
 1898 001a DAB2     		uxtb	r2, r3
1116:.\Generated_Source\PSoC5/CyLib.c ****                     (((uint8) (source << 2u)) & ((uint8)(~CY_ILO_SOURCE_BITS_CLEAR)));
 1899              		.loc 1 1116 0
 1900 001c FB79     		ldrb	r3, [r7, #7]
ARM GAS  C:\Users\Rolando\AppData\Local\Temp\ccmqTZg9.s 			page 54


 1901 001e 9B00     		lsls	r3, r3, #2
 1902 0020 DBB2     		uxtb	r3, r3
1115:.\Generated_Source\PSoC5/CyLib.c ****     CY_LIB_CLKDIST_CR_REG = (CY_LIB_CLKDIST_CR_REG & CY_ILO_SOURCE_BITS_CLEAR) |
 1903              		.loc 1 1115 0
 1904 0022 03F00C03 		and	r3, r3, #12
 1905 0026 DBB2     		uxtb	r3, r3
 1906 0028 1343     		orrs	r3, r3, r2
 1907 002a DBB2     		uxtb	r3, r3
 1908 002c 0B70     		strb	r3, [r1]
1117:.\Generated_Source\PSoC5/CyLib.c **** }
 1909              		.loc 1 1117 0
 1910 002e 0C37     		adds	r7, r7, #12
 1911              		.cfi_def_cfa_offset 4
 1912 0030 BD46     		mov	sp, r7
 1913              		.cfi_def_cfa_register 13
 1914              		@ sp needed
 1915 0032 5DF8047B 		ldr	r7, [sp], #4
 1916              		.cfi_restore 7
 1917              		.cfi_def_cfa_offset 0
 1918 0036 7047     		bx	lr
 1919              		.cfi_endproc
 1920              	.LFE23:
 1921              		.size	CyILO_SetSource, .-CyILO_SetSource
 1922              		.section	.text.CyILO_SetPowerMode,"ax",%progbits
 1923              		.align	2
 1924              		.global	CyILO_SetPowerMode
 1925              		.thumb
 1926              		.thumb_func
 1927              		.type	CyILO_SetPowerMode, %function
 1928              	CyILO_SetPowerMode:
 1929              	.LFB24:
1118:.\Generated_Source\PSoC5/CyLib.c **** 
1119:.\Generated_Source\PSoC5/CyLib.c **** 
1120:.\Generated_Source\PSoC5/CyLib.c **** /*******************************************************************************
1121:.\Generated_Source\PSoC5/CyLib.c **** * Function Name: CyILO_SetPowerMode
1122:.\Generated_Source\PSoC5/CyLib.c **** ********************************************************************************
1123:.\Generated_Source\PSoC5/CyLib.c **** *
1124:.\Generated_Source\PSoC5/CyLib.c **** * Summary:
1125:.\Generated_Source\PSoC5/CyLib.c **** *  Sets the power mode used by the ILO during power down. Allows for lower power
1126:.\Generated_Source\PSoC5/CyLib.c **** *  down power usage resulting in a slower startup time.
1127:.\Generated_Source\PSoC5/CyLib.c **** *
1128:.\Generated_Source\PSoC5/CyLib.c **** * Parameters:
1129:.\Generated_Source\PSoC5/CyLib.c **** *  uint8 mode
1130:.\Generated_Source\PSoC5/CyLib.c **** *   CY_ILO_FAST_START - Faster start-up, internal bias left on when powered down
1131:.\Generated_Source\PSoC5/CyLib.c **** *   CY_ILO_SLOW_START - Slower start-up, internal bias off when powered down
1132:.\Generated_Source\PSoC5/CyLib.c **** *
1133:.\Generated_Source\PSoC5/CyLib.c **** * Return:
1134:.\Generated_Source\PSoC5/CyLib.c **** *   Prevous power mode state.
1135:.\Generated_Source\PSoC5/CyLib.c **** *
1136:.\Generated_Source\PSoC5/CyLib.c **** *******************************************************************************/
1137:.\Generated_Source\PSoC5/CyLib.c **** uint8 CyILO_SetPowerMode(uint8 mode) 
1138:.\Generated_Source\PSoC5/CyLib.c **** {
 1930              		.loc 1 1138 0
 1931              		.cfi_startproc
 1932              		@ args = 0, pretend = 0, frame = 16
 1933              		@ frame_needed = 1, uses_anonymous_args = 0
 1934              		@ link register save eliminated.
ARM GAS  C:\Users\Rolando\AppData\Local\Temp\ccmqTZg9.s 			page 55


 1935 0000 80B4     		push	{r7}
 1936              		.cfi_def_cfa_offset 4
 1937              		.cfi_offset 7, -4
 1938 0002 85B0     		sub	sp, sp, #20
 1939              		.cfi_def_cfa_offset 24
 1940 0004 00AF     		add	r7, sp, #0
 1941              		.cfi_def_cfa_register 7
 1942 0006 0346     		mov	r3, r0
 1943 0008 FB71     		strb	r3, [r7, #7]
1139:.\Generated_Source\PSoC5/CyLib.c ****     uint8 state;
1140:.\Generated_Source\PSoC5/CyLib.c **** 
1141:.\Generated_Source\PSoC5/CyLib.c ****     /* Get current state. */
1142:.\Generated_Source\PSoC5/CyLib.c ****     state = CY_LIB_SLOWCLK_ILO_CR0_REG;
 1944              		.loc 1 1142 0
 1945 000a 0F4B     		ldr	r3, .L147
 1946 000c 1B78     		ldrb	r3, [r3]
 1947 000e FB73     		strb	r3, [r7, #15]
1143:.\Generated_Source\PSoC5/CyLib.c **** 
1144:.\Generated_Source\PSoC5/CyLib.c ****     /* Set the the oscillator power mode. */
1145:.\Generated_Source\PSoC5/CyLib.c ****     if(mode != CY_ILO_FAST_START)
 1948              		.loc 1 1145 0
 1949 0010 FB79     		ldrb	r3, [r7, #7]	@ zero_extendqisi2
 1950 0012 002B     		cmp	r3, #0
 1951 0014 06D0     		beq	.L144
1146:.\Generated_Source\PSoC5/CyLib.c ****     {
1147:.\Generated_Source\PSoC5/CyLib.c ****         CY_LIB_SLOWCLK_ILO_CR0_REG = (state | CY_ILO_CONTROL_PD_MODE);
 1952              		.loc 1 1147 0
 1953 0016 0C4A     		ldr	r2, .L147
 1954 0018 FB7B     		ldrb	r3, [r7, #15]
 1955 001a 43F01003 		orr	r3, r3, #16
 1956 001e DBB2     		uxtb	r3, r3
 1957 0020 1370     		strb	r3, [r2]
 1958 0022 05E0     		b	.L145
 1959              	.L144:
1148:.\Generated_Source\PSoC5/CyLib.c ****     }
1149:.\Generated_Source\PSoC5/CyLib.c ****     else
1150:.\Generated_Source\PSoC5/CyLib.c ****     {
1151:.\Generated_Source\PSoC5/CyLib.c ****         CY_LIB_SLOWCLK_ILO_CR0_REG = (state & ((uint8)(~CY_ILO_CONTROL_PD_MODE)));
 1960              		.loc 1 1151 0
 1961 0024 084A     		ldr	r2, .L147
 1962 0026 FB7B     		ldrb	r3, [r7, #15]
 1963 0028 23F01003 		bic	r3, r3, #16
 1964 002c DBB2     		uxtb	r3, r3
 1965 002e 1370     		strb	r3, [r2]
 1966              	.L145:
1152:.\Generated_Source\PSoC5/CyLib.c ****     }
1153:.\Generated_Source\PSoC5/CyLib.c **** 
1154:.\Generated_Source\PSoC5/CyLib.c ****     /* Return the old mode. */
1155:.\Generated_Source\PSoC5/CyLib.c ****     return ((state & CY_ILO_CONTROL_PD_MODE) >> CY_ILO_CONTROL_PD_POSITION);
 1967              		.loc 1 1155 0
 1968 0030 FB7B     		ldrb	r3, [r7, #15]	@ zero_extendqisi2
 1969 0032 03F01003 		and	r3, r3, #16
 1970 0036 1B09     		lsrs	r3, r3, #4
 1971 0038 DBB2     		uxtb	r3, r3
1156:.\Generated_Source\PSoC5/CyLib.c **** }
 1972              		.loc 1 1156 0
 1973 003a 1846     		mov	r0, r3
ARM GAS  C:\Users\Rolando\AppData\Local\Temp\ccmqTZg9.s 			page 56


 1974 003c 1437     		adds	r7, r7, #20
 1975              		.cfi_def_cfa_offset 4
 1976 003e BD46     		mov	sp, r7
 1977              		.cfi_def_cfa_register 13
 1978              		@ sp needed
 1979 0040 5DF8047B 		ldr	r7, [sp], #4
 1980              		.cfi_restore 7
 1981              		.cfi_def_cfa_offset 0
 1982 0044 7047     		bx	lr
 1983              	.L148:
 1984 0046 00BF     		.align	2
 1985              	.L147:
 1986 0048 00430040 		.word	1073758976
 1987              		.cfi_endproc
 1988              	.LFE24:
 1989              		.size	CyILO_SetPowerMode, .-CyILO_SetPowerMode
 1990              		.section	.text.CyXTAL_32KHZ_Start,"ax",%progbits
 1991              		.align	2
 1992              		.global	CyXTAL_32KHZ_Start
 1993              		.thumb
 1994              		.thumb_func
 1995              		.type	CyXTAL_32KHZ_Start, %function
 1996              	CyXTAL_32KHZ_Start:
 1997              	.LFB25:
1157:.\Generated_Source\PSoC5/CyLib.c **** 
1158:.\Generated_Source\PSoC5/CyLib.c **** 
1159:.\Generated_Source\PSoC5/CyLib.c **** /*******************************************************************************
1160:.\Generated_Source\PSoC5/CyLib.c **** * Function Name: CyXTAL_32KHZ_Start
1161:.\Generated_Source\PSoC5/CyLib.c **** ********************************************************************************
1162:.\Generated_Source\PSoC5/CyLib.c **** *
1163:.\Generated_Source\PSoC5/CyLib.c **** * Summary:
1164:.\Generated_Source\PSoC5/CyLib.c **** *  Enables the 32 KHz Crystal Oscillator.
1165:.\Generated_Source\PSoC5/CyLib.c **** *
1166:.\Generated_Source\PSoC5/CyLib.c **** * Parameters:
1167:.\Generated_Source\PSoC5/CyLib.c **** *  None
1168:.\Generated_Source\PSoC5/CyLib.c **** *
1169:.\Generated_Source\PSoC5/CyLib.c **** * Return:
1170:.\Generated_Source\PSoC5/CyLib.c **** *  None
1171:.\Generated_Source\PSoC5/CyLib.c **** *
1172:.\Generated_Source\PSoC5/CyLib.c **** *******************************************************************************/
1173:.\Generated_Source\PSoC5/CyLib.c **** void CyXTAL_32KHZ_Start(void) 
1174:.\Generated_Source\PSoC5/CyLib.c **** {
 1998              		.loc 1 1174 0
 1999              		.cfi_startproc
 2000              		@ args = 0, pretend = 0, frame = 8
 2001              		@ frame_needed = 1, uses_anonymous_args = 0
 2002 0000 80B5     		push	{r7, lr}
 2003              		.cfi_def_cfa_offset 8
 2004              		.cfi_offset 7, -8
 2005              		.cfi_offset 14, -4
 2006 0002 82B0     		sub	sp, sp, #8
 2007              		.cfi_def_cfa_offset 16
 2008 0004 00AF     		add	r7, sp, #0
 2009              		.cfi_def_cfa_register 7
1175:.\Generated_Source\PSoC5/CyLib.c ****     volatile uint16 i;
1176:.\Generated_Source\PSoC5/CyLib.c **** 
1177:.\Generated_Source\PSoC5/CyLib.c ****     CY_CLK_XTAL32_TST_REG = CY_CLK_XTAL32_TST_DEFAULT;
ARM GAS  C:\Users\Rolando\AppData\Local\Temp\ccmqTZg9.s 			page 57


 2010              		.loc 1 1177 0
 2011 0006 1B4B     		ldr	r3, .L154
 2012 0008 F322     		movs	r2, #243
 2013 000a 1A70     		strb	r2, [r3]
1178:.\Generated_Source\PSoC5/CyLib.c ****     CY_CLK_XTAL32_TR_REG  = CY_CLK_XTAL32_TR_STARTUP;
 2014              		.loc 1 1178 0
 2015 000c 1A4B     		ldr	r3, .L154+4
 2016 000e 0322     		movs	r2, #3
 2017 0010 1A70     		strb	r2, [r3]
1179:.\Generated_Source\PSoC5/CyLib.c ****     CY_CLK_XTAL32_CFG_REG = (CY_CLK_XTAL32_CFG_REG & ((uint8)(~CY_CLK_XTAL32_CFG_LP_MASK))) |
 2018              		.loc 1 1179 0
 2019 0012 1A4A     		ldr	r2, .L154+8
 2020 0014 194B     		ldr	r3, .L154+8
 2021 0016 1B78     		ldrb	r3, [r3]
 2022 0018 DBB2     		uxtb	r3, r3
 2023 001a 23F00C03 		bic	r3, r3, #12
 2024 001e DBB2     		uxtb	r3, r3
 2025 0020 43F00403 		orr	r3, r3, #4
 2026 0024 DBB2     		uxtb	r3, r3
 2027 0026 1370     		strb	r3, [r2]
1180:.\Generated_Source\PSoC5/CyLib.c ****                                 CY_CLK_XTAL32_CFG_LP_DEFAULT;
1181:.\Generated_Source\PSoC5/CyLib.c **** 
1182:.\Generated_Source\PSoC5/CyLib.c ****     #if(CY_PSOC3)
1183:.\Generated_Source\PSoC5/CyLib.c ****         CY_CLK_XTAL32_CR_REG |= CY_CLK_XTAL32_CR_PDBEN;
1184:.\Generated_Source\PSoC5/CyLib.c ****     #endif  /* (CY_PSOC3) */
1185:.\Generated_Source\PSoC5/CyLib.c **** 
1186:.\Generated_Source\PSoC5/CyLib.c ****     /* Enable operation of the 32K Crystal Oscillator */
1187:.\Generated_Source\PSoC5/CyLib.c ****     CY_CLK_XTAL32_CR_REG |= CY_CLK_XTAL32_CR_EN;
 2028              		.loc 1 1187 0
 2029 0028 154A     		ldr	r2, .L154+12
 2030 002a 154B     		ldr	r3, .L154+12
 2031 002c 1B78     		ldrb	r3, [r3]
 2032 002e DBB2     		uxtb	r3, r3
 2033 0030 43F00103 		orr	r3, r3, #1
 2034 0034 DBB2     		uxtb	r3, r3
 2035 0036 1370     		strb	r3, [r2]
1188:.\Generated_Source\PSoC5/CyLib.c **** 
1189:.\Generated_Source\PSoC5/CyLib.c ****     for (i = 1000u; i > 0u; i--)
 2036              		.loc 1 1189 0
 2037 0038 4FF47A73 		mov	r3, #1000
 2038 003c FB80     		strh	r3, [r7, #6]	@ movhi
 2039 003e 12E0     		b	.L150
 2040              	.L153:
1190:.\Generated_Source\PSoC5/CyLib.c ****     {
1191:.\Generated_Source\PSoC5/CyLib.c ****         if(0u != (CyXTAL_32KHZ_ReadStatus() & CY_XTAL32K_ANA_STAT))
 2041              		.loc 1 1191 0
 2042 0040 FFF7FEFF 		bl	CyXTAL_32KHZ_ReadStatus
 2043 0044 0346     		mov	r3, r0
 2044 0046 03F02003 		and	r3, r3, #32
 2045 004a 002B     		cmp	r3, #0
 2046 004c 03D0     		beq	.L151
1192:.\Generated_Source\PSoC5/CyLib.c ****         {
1193:.\Generated_Source\PSoC5/CyLib.c ****             /* Ready - switch to the hign power mode */
1194:.\Generated_Source\PSoC5/CyLib.c ****             (void) CyXTAL_32KHZ_SetPowerMode(0u);
 2047              		.loc 1 1194 0
 2048 004e 0020     		movs	r0, #0
 2049 0050 FFF7FEFF 		bl	CyXTAL_32KHZ_SetPowerMode
ARM GAS  C:\Users\Rolando\AppData\Local\Temp\ccmqTZg9.s 			page 58


1195:.\Generated_Source\PSoC5/CyLib.c **** 
1196:.\Generated_Source\PSoC5/CyLib.c ****             break;
 2050              		.loc 1 1196 0
 2051 0054 0BE0     		b	.L149
 2052              	.L151:
1197:.\Generated_Source\PSoC5/CyLib.c ****         }
1198:.\Generated_Source\PSoC5/CyLib.c ****         CyDelayUs(1u);
 2053              		.loc 1 1198 0 discriminator 2
 2054 0056 0120     		movs	r0, #1
 2055 0058 FFF7FEFF 		bl	CyDelayUs
1189:.\Generated_Source\PSoC5/CyLib.c ****     {
 2056              		.loc 1 1189 0 discriminator 2
 2057 005c FB88     		ldrh	r3, [r7, #6]	@ movhi
 2058 005e 9BB2     		uxth	r3, r3
 2059 0060 013B     		subs	r3, r3, #1
 2060 0062 9BB2     		uxth	r3, r3
 2061 0064 FB80     		strh	r3, [r7, #6]	@ movhi
 2062              	.L150:
1189:.\Generated_Source\PSoC5/CyLib.c ****     {
 2063              		.loc 1 1189 0 is_stmt 0 discriminator 1
 2064 0066 FB88     		ldrh	r3, [r7, #6]	@ movhi
 2065 0068 9BB2     		uxth	r3, r3
 2066 006a 002B     		cmp	r3, #0
 2067 006c E8D1     		bne	.L153
 2068              	.L149:
1199:.\Generated_Source\PSoC5/CyLib.c ****     }
1200:.\Generated_Source\PSoC5/CyLib.c **** }
 2069              		.loc 1 1200 0 is_stmt 1
 2070 006e 0837     		adds	r7, r7, #8
 2071              		.cfi_def_cfa_offset 8
 2072 0070 BD46     		mov	sp, r7
 2073              		.cfi_def_cfa_register 13
 2074              		@ sp needed
 2075 0072 80BD     		pop	{r7, pc}
 2076              	.L155:
 2077              		.align	2
 2078              	.L154:
 2079 0074 0A430040 		.word	1073758986
 2080 0078 98460040 		.word	1073759896
 2081 007c 09430040 		.word	1073758985
 2082 0080 08430040 		.word	1073758984
 2083              		.cfi_endproc
 2084              	.LFE25:
 2085              		.size	CyXTAL_32KHZ_Start, .-CyXTAL_32KHZ_Start
 2086              		.section	.text.CyXTAL_32KHZ_Stop,"ax",%progbits
 2087              		.align	2
 2088              		.global	CyXTAL_32KHZ_Stop
 2089              		.thumb
 2090              		.thumb_func
 2091              		.type	CyXTAL_32KHZ_Stop, %function
 2092              	CyXTAL_32KHZ_Stop:
 2093              	.LFB26:
1201:.\Generated_Source\PSoC5/CyLib.c **** 
1202:.\Generated_Source\PSoC5/CyLib.c **** 
1203:.\Generated_Source\PSoC5/CyLib.c **** /*******************************************************************************
1204:.\Generated_Source\PSoC5/CyLib.c **** * Function Name: CyXTAL_32KHZ_Stop
1205:.\Generated_Source\PSoC5/CyLib.c **** ********************************************************************************
ARM GAS  C:\Users\Rolando\AppData\Local\Temp\ccmqTZg9.s 			page 59


1206:.\Generated_Source\PSoC5/CyLib.c **** *
1207:.\Generated_Source\PSoC5/CyLib.c **** * Summary:
1208:.\Generated_Source\PSoC5/CyLib.c **** *  Disables the 32KHz Crystal Oscillator.
1209:.\Generated_Source\PSoC5/CyLib.c **** *
1210:.\Generated_Source\PSoC5/CyLib.c **** * Parameters:
1211:.\Generated_Source\PSoC5/CyLib.c **** *  None
1212:.\Generated_Source\PSoC5/CyLib.c **** *
1213:.\Generated_Source\PSoC5/CyLib.c **** * Return:
1214:.\Generated_Source\PSoC5/CyLib.c **** *  None
1215:.\Generated_Source\PSoC5/CyLib.c **** *
1216:.\Generated_Source\PSoC5/CyLib.c **** *******************************************************************************/
1217:.\Generated_Source\PSoC5/CyLib.c **** void CyXTAL_32KHZ_Stop(void) 
1218:.\Generated_Source\PSoC5/CyLib.c **** {
 2094              		.loc 1 1218 0
 2095              		.cfi_startproc
 2096              		@ args = 0, pretend = 0, frame = 0
 2097              		@ frame_needed = 1, uses_anonymous_args = 0
 2098              		@ link register save eliminated.
 2099 0000 80B4     		push	{r7}
 2100              		.cfi_def_cfa_offset 4
 2101              		.cfi_offset 7, -4
 2102 0002 00AF     		add	r7, sp, #0
 2103              		.cfi_def_cfa_register 7
1219:.\Generated_Source\PSoC5/CyLib.c ****     CY_CLK_XTAL32_TST_REG  = CY_CLK_XTAL32_TST_DEFAULT;
 2104              		.loc 1 1219 0
 2105 0004 0E4B     		ldr	r3, .L157
 2106 0006 F322     		movs	r2, #243
 2107 0008 1A70     		strb	r2, [r3]
1220:.\Generated_Source\PSoC5/CyLib.c ****     CY_CLK_XTAL32_TR_REG   = CY_CLK_XTAL32_TR_POWERDOWN;
 2108              		.loc 1 1220 0
 2109 000a 0E4B     		ldr	r3, .L157+4
 2110 000c 0022     		movs	r2, #0
 2111 000e 1A70     		strb	r2, [r3]
1221:.\Generated_Source\PSoC5/CyLib.c ****     CY_CLK_XTAL32_CFG_REG = (CY_CLK_XTAL32_CFG_REG & ((uint8)(~CY_CLK_XTAL32_CFG_LP_MASK))) |
 2112              		.loc 1 1221 0
 2113 0010 0D4A     		ldr	r2, .L157+8
 2114 0012 0D4B     		ldr	r3, .L157+8
 2115 0014 1B78     		ldrb	r3, [r3]
 2116 0016 DBB2     		uxtb	r3, r3
 2117 0018 23F00C03 		bic	r3, r3, #12
 2118 001c DBB2     		uxtb	r3, r3
 2119 001e 43F00403 		orr	r3, r3, #4
 2120 0022 DBB2     		uxtb	r3, r3
 2121 0024 1370     		strb	r3, [r2]
1222:.\Generated_Source\PSoC5/CyLib.c ****                              CY_CLK_XTAL32_CFG_LP_DEFAULT;
1223:.\Generated_Source\PSoC5/CyLib.c ****     CY_CLK_XTAL32_CR_REG &= ((uint8)(~(CY_CLK_XTAL32_CR_EN | CY_CLK_XTAL32_CR_LPM)));
 2122              		.loc 1 1223 0
 2123 0026 094A     		ldr	r2, .L157+12
 2124 0028 084B     		ldr	r3, .L157+12
 2125 002a 1B78     		ldrb	r3, [r3]
 2126 002c DBB2     		uxtb	r3, r3
 2127 002e 23F00303 		bic	r3, r3, #3
 2128 0032 DBB2     		uxtb	r3, r3
 2129 0034 1370     		strb	r3, [r2]
1224:.\Generated_Source\PSoC5/CyLib.c **** 
1225:.\Generated_Source\PSoC5/CyLib.c ****     #if(CY_PSOC3)
1226:.\Generated_Source\PSoC5/CyLib.c ****         CY_CLK_XTAL32_CR_REG &= ((uint8)(~CY_CLK_XTAL32_CR_PDBEN));
ARM GAS  C:\Users\Rolando\AppData\Local\Temp\ccmqTZg9.s 			page 60


1227:.\Generated_Source\PSoC5/CyLib.c ****     #endif  /* (CY_PSOC3) */
1228:.\Generated_Source\PSoC5/CyLib.c **** }
 2130              		.loc 1 1228 0
 2131 0036 BD46     		mov	sp, r7
 2132              		.cfi_def_cfa_register 13
 2133              		@ sp needed
 2134 0038 5DF8047B 		ldr	r7, [sp], #4
 2135              		.cfi_restore 7
 2136              		.cfi_def_cfa_offset 0
 2137 003c 7047     		bx	lr
 2138              	.L158:
 2139 003e 00BF     		.align	2
 2140              	.L157:
 2141 0040 0A430040 		.word	1073758986
 2142 0044 98460040 		.word	1073759896
 2143 0048 09430040 		.word	1073758985
 2144 004c 08430040 		.word	1073758984
 2145              		.cfi_endproc
 2146              	.LFE26:
 2147              		.size	CyXTAL_32KHZ_Stop, .-CyXTAL_32KHZ_Stop
 2148              		.section	.text.CyXTAL_32KHZ_ReadStatus,"ax",%progbits
 2149              		.align	2
 2150              		.global	CyXTAL_32KHZ_ReadStatus
 2151              		.thumb
 2152              		.thumb_func
 2153              		.type	CyXTAL_32KHZ_ReadStatus, %function
 2154              	CyXTAL_32KHZ_ReadStatus:
 2155              	.LFB27:
1229:.\Generated_Source\PSoC5/CyLib.c **** 
1230:.\Generated_Source\PSoC5/CyLib.c **** 
1231:.\Generated_Source\PSoC5/CyLib.c **** /*******************************************************************************
1232:.\Generated_Source\PSoC5/CyLib.c **** * Function Name: CyXTAL_32KHZ_ReadStatus
1233:.\Generated_Source\PSoC5/CyLib.c **** ********************************************************************************
1234:.\Generated_Source\PSoC5/CyLib.c **** *
1235:.\Generated_Source\PSoC5/CyLib.c **** * Summary:
1236:.\Generated_Source\PSoC5/CyLib.c **** *  Returns status of the 32 KHz oscillator.
1237:.\Generated_Source\PSoC5/CyLib.c **** *
1238:.\Generated_Source\PSoC5/CyLib.c **** * Parameters:
1239:.\Generated_Source\PSoC5/CyLib.c **** *  None
1240:.\Generated_Source\PSoC5/CyLib.c **** *
1241:.\Generated_Source\PSoC5/CyLib.c **** * Return:
1242:.\Generated_Source\PSoC5/CyLib.c **** *  Value     Define                    Source
1243:.\Generated_Source\PSoC5/CyLib.c **** *  20        CY_XTAL32K_ANA_STAT       Analog measurement
1244:.\Generated_Source\PSoC5/CyLib.c **** *                                       1: Stable
1245:.\Generated_Source\PSoC5/CyLib.c **** *                                       0: Not stable
1246:.\Generated_Source\PSoC5/CyLib.c **** *
1247:.\Generated_Source\PSoC5/CyLib.c **** *******************************************************************************/
1248:.\Generated_Source\PSoC5/CyLib.c **** uint8 CyXTAL_32KHZ_ReadStatus(void) 
1249:.\Generated_Source\PSoC5/CyLib.c **** {
 2156              		.loc 1 1249 0
 2157              		.cfi_startproc
 2158              		@ args = 0, pretend = 0, frame = 0
 2159              		@ frame_needed = 1, uses_anonymous_args = 0
 2160              		@ link register save eliminated.
 2161 0000 80B4     		push	{r7}
 2162              		.cfi_def_cfa_offset 4
 2163              		.cfi_offset 7, -4
ARM GAS  C:\Users\Rolando\AppData\Local\Temp\ccmqTZg9.s 			page 61


 2164 0002 00AF     		add	r7, sp, #0
 2165              		.cfi_def_cfa_register 7
1250:.\Generated_Source\PSoC5/CyLib.c ****     return(CY_CLK_XTAL32_CR_REG & CY_XTAL32K_ANA_STAT);
 2166              		.loc 1 1250 0
 2167 0004 054B     		ldr	r3, .L161
 2168 0006 1B78     		ldrb	r3, [r3]
 2169 0008 DBB2     		uxtb	r3, r3
 2170 000a 03F02003 		and	r3, r3, #32
 2171 000e DBB2     		uxtb	r3, r3
1251:.\Generated_Source\PSoC5/CyLib.c **** }
 2172              		.loc 1 1251 0
 2173 0010 1846     		mov	r0, r3
 2174 0012 BD46     		mov	sp, r7
 2175              		.cfi_def_cfa_register 13
 2176              		@ sp needed
 2177 0014 5DF8047B 		ldr	r7, [sp], #4
 2178              		.cfi_restore 7
 2179              		.cfi_def_cfa_offset 0
 2180 0018 7047     		bx	lr
 2181              	.L162:
 2182 001a 00BF     		.align	2
 2183              	.L161:
 2184 001c 08430040 		.word	1073758984
 2185              		.cfi_endproc
 2186              	.LFE27:
 2187              		.size	CyXTAL_32KHZ_ReadStatus, .-CyXTAL_32KHZ_ReadStatus
 2188              		.section	.text.CyXTAL_32KHZ_SetPowerMode,"ax",%progbits
 2189              		.align	2
 2190              		.global	CyXTAL_32KHZ_SetPowerMode
 2191              		.thumb
 2192              		.thumb_func
 2193              		.type	CyXTAL_32KHZ_SetPowerMode, %function
 2194              	CyXTAL_32KHZ_SetPowerMode:
 2195              	.LFB28:
1252:.\Generated_Source\PSoC5/CyLib.c **** 
1253:.\Generated_Source\PSoC5/CyLib.c **** 
1254:.\Generated_Source\PSoC5/CyLib.c **** /*******************************************************************************
1255:.\Generated_Source\PSoC5/CyLib.c **** * Function Name: CyXTAL_32KHZ_SetPowerMode
1256:.\Generated_Source\PSoC5/CyLib.c **** ********************************************************************************
1257:.\Generated_Source\PSoC5/CyLib.c **** *
1258:.\Generated_Source\PSoC5/CyLib.c **** * Summary:
1259:.\Generated_Source\PSoC5/CyLib.c **** *  Sets the power mode for the 32 KHz oscillator used during sleep mode.
1260:.\Generated_Source\PSoC5/CyLib.c **** *  Allows for lower power during sleep when there are fewer sources of noise.
1261:.\Generated_Source\PSoC5/CyLib.c **** *  During active mode the oscillator is always run in high power mode.
1262:.\Generated_Source\PSoC5/CyLib.c **** *
1263:.\Generated_Source\PSoC5/CyLib.c **** * Parameters:
1264:.\Generated_Source\PSoC5/CyLib.c **** *  uint8 mode
1265:.\Generated_Source\PSoC5/CyLib.c **** *       0: High power mode
1266:.\Generated_Source\PSoC5/CyLib.c **** *       1: Low power mode during sleep
1267:.\Generated_Source\PSoC5/CyLib.c **** *
1268:.\Generated_Source\PSoC5/CyLib.c **** * Return:
1269:.\Generated_Source\PSoC5/CyLib.c **** *  Previous power mode.
1270:.\Generated_Source\PSoC5/CyLib.c **** *
1271:.\Generated_Source\PSoC5/CyLib.c **** *******************************************************************************/
1272:.\Generated_Source\PSoC5/CyLib.c **** uint8 CyXTAL_32KHZ_SetPowerMode(uint8 mode) 
1273:.\Generated_Source\PSoC5/CyLib.c **** {
 2196              		.loc 1 1273 0
ARM GAS  C:\Users\Rolando\AppData\Local\Temp\ccmqTZg9.s 			page 62


 2197              		.cfi_startproc
 2198              		@ args = 0, pretend = 0, frame = 16
 2199              		@ frame_needed = 1, uses_anonymous_args = 0
 2200 0000 80B5     		push	{r7, lr}
 2201              		.cfi_def_cfa_offset 8
 2202              		.cfi_offset 7, -8
 2203              		.cfi_offset 14, -4
 2204 0002 84B0     		sub	sp, sp, #16
 2205              		.cfi_def_cfa_offset 24
 2206 0004 00AF     		add	r7, sp, #0
 2207              		.cfi_def_cfa_register 7
 2208 0006 0346     		mov	r3, r0
 2209 0008 FB71     		strb	r3, [r7, #7]
1274:.\Generated_Source\PSoC5/CyLib.c ****     uint8 state = (0u != (CY_CLK_XTAL32_CR_REG & CY_CLK_XTAL32_CR_LPM)) ? 1u : 0u;
 2210              		.loc 1 1274 0
 2211 000a 264B     		ldr	r3, .L169
 2212 000c 1B78     		ldrb	r3, [r3]
 2213 000e DBB2     		uxtb	r3, r3
 2214 0010 03F00203 		and	r3, r3, #2
 2215 0014 002B     		cmp	r3, #0
 2216 0016 01D0     		beq	.L164
 2217              		.loc 1 1274 0 is_stmt 0 discriminator 1
 2218 0018 0123     		movs	r3, #1
 2219 001a 00E0     		b	.L165
 2220              	.L164:
 2221              		.loc 1 1274 0 discriminator 2
 2222 001c 0023     		movs	r3, #0
 2223              	.L165:
 2224              		.loc 1 1274 0 discriminator 4
 2225 001e FB73     		strb	r3, [r7, #15]
1275:.\Generated_Source\PSoC5/CyLib.c **** 
1276:.\Generated_Source\PSoC5/CyLib.c ****     CY_CLK_XTAL32_TST_REG = CY_CLK_XTAL32_TST_DEFAULT;
 2226              		.loc 1 1276 0 is_stmt 1 discriminator 4
 2227 0020 214B     		ldr	r3, .L169+4
 2228 0022 F322     		movs	r2, #243
 2229 0024 1A70     		strb	r2, [r3]
1277:.\Generated_Source\PSoC5/CyLib.c **** 
1278:.\Generated_Source\PSoC5/CyLib.c ****     if(1u == mode)
 2230              		.loc 1 1278 0 discriminator 4
 2231 0026 FB79     		ldrb	r3, [r7, #7]	@ zero_extendqisi2
 2232 0028 012B     		cmp	r3, #1
 2233 002a 1CD1     		bne	.L166
1279:.\Generated_Source\PSoC5/CyLib.c ****     {
1280:.\Generated_Source\PSoC5/CyLib.c ****         /* Low power mode during Sleep */
1281:.\Generated_Source\PSoC5/CyLib.c ****         CY_CLK_XTAL32_TR_REG  = CY_CLK_XTAL32_TR_LOW_POWER;
 2234              		.loc 1 1281 0
 2235 002c 1F4B     		ldr	r3, .L169+8
 2236 002e 0122     		movs	r2, #1
 2237 0030 1A70     		strb	r2, [r3]
1282:.\Generated_Source\PSoC5/CyLib.c ****         CyDelayUs(10u);
 2238              		.loc 1 1282 0
 2239 0032 0A20     		movs	r0, #10
 2240 0034 FFF7FEFF 		bl	CyDelayUs
1283:.\Generated_Source\PSoC5/CyLib.c ****         CY_CLK_XTAL32_CFG_REG = (CY_CLK_XTAL32_CFG_REG & ((uint8)(~CY_CLK_XTAL32_CFG_LP_MASK))) |
 2241              		.loc 1 1283 0
 2242 0038 1D4A     		ldr	r2, .L169+12
 2243 003a 1D4B     		ldr	r3, .L169+12
ARM GAS  C:\Users\Rolando\AppData\Local\Temp\ccmqTZg9.s 			page 63


 2244 003c 1B78     		ldrb	r3, [r3]
 2245 003e DBB2     		uxtb	r3, r3
 2246 0040 23F00C03 		bic	r3, r3, #12
 2247 0044 DBB2     		uxtb	r3, r3
 2248 0046 43F00803 		orr	r3, r3, #8
 2249 004a DBB2     		uxtb	r3, r3
 2250 004c 1370     		strb	r3, [r2]
1284:.\Generated_Source\PSoC5/CyLib.c ****                                 CY_CLK_XTAL32_CFG_LP_LOWPOWER;
1285:.\Generated_Source\PSoC5/CyLib.c ****         CyDelayUs(20u);
 2251              		.loc 1 1285 0
 2252 004e 1420     		movs	r0, #20
 2253 0050 FFF7FEFF 		bl	CyDelayUs
1286:.\Generated_Source\PSoC5/CyLib.c ****         CY_CLK_XTAL32_CR_REG |= CY_CLK_XTAL32_CR_LPM;
 2254              		.loc 1 1286 0
 2255 0054 134A     		ldr	r2, .L169
 2256 0056 134B     		ldr	r3, .L169
 2257 0058 1B78     		ldrb	r3, [r3]
 2258 005a DBB2     		uxtb	r3, r3
 2259 005c 43F00203 		orr	r3, r3, #2
 2260 0060 DBB2     		uxtb	r3, r3
 2261 0062 1370     		strb	r3, [r2]
 2262 0064 18E0     		b	.L167
 2263              	.L166:
1287:.\Generated_Source\PSoC5/CyLib.c ****     }
1288:.\Generated_Source\PSoC5/CyLib.c ****     else
1289:.\Generated_Source\PSoC5/CyLib.c ****     {
1290:.\Generated_Source\PSoC5/CyLib.c ****         /* High power mode */
1291:.\Generated_Source\PSoC5/CyLib.c ****         CY_CLK_XTAL32_TR_REG  = CY_CLK_XTAL32_TR_HIGH_POWER;
 2264              		.loc 1 1291 0
 2265 0066 114B     		ldr	r3, .L169+8
 2266 0068 0622     		movs	r2, #6
 2267 006a 1A70     		strb	r2, [r3]
1292:.\Generated_Source\PSoC5/CyLib.c ****         CyDelayUs(10u);
 2268              		.loc 1 1292 0
 2269 006c 0A20     		movs	r0, #10
 2270 006e FFF7FEFF 		bl	CyDelayUs
1293:.\Generated_Source\PSoC5/CyLib.c ****         CY_CLK_XTAL32_CFG_REG = (CY_CLK_XTAL32_CFG_REG & ((uint8)(~CY_CLK_XTAL32_CFG_LP_MASK))) |
 2271              		.loc 1 1293 0
 2272 0072 0F4A     		ldr	r2, .L169+12
 2273 0074 0E4B     		ldr	r3, .L169+12
 2274 0076 1B78     		ldrb	r3, [r3]
 2275 0078 DBB2     		uxtb	r3, r3
 2276 007a 23F00C03 		bic	r3, r3, #12
 2277 007e DBB2     		uxtb	r3, r3
 2278 0080 43F00403 		orr	r3, r3, #4
 2279 0084 DBB2     		uxtb	r3, r3
 2280 0086 1370     		strb	r3, [r2]
1294:.\Generated_Source\PSoC5/CyLib.c ****                                 CY_CLK_XTAL32_CFG_LP_DEFAULT;
1295:.\Generated_Source\PSoC5/CyLib.c ****         CY_CLK_XTAL32_CR_REG &= ((uint8)(~CY_CLK_XTAL32_CR_LPM));
 2281              		.loc 1 1295 0
 2282 0088 064A     		ldr	r2, .L169
 2283 008a 064B     		ldr	r3, .L169
 2284 008c 1B78     		ldrb	r3, [r3]
 2285 008e DBB2     		uxtb	r3, r3
 2286 0090 23F00203 		bic	r3, r3, #2
 2287 0094 DBB2     		uxtb	r3, r3
 2288 0096 1370     		strb	r3, [r2]
ARM GAS  C:\Users\Rolando\AppData\Local\Temp\ccmqTZg9.s 			page 64


 2289              	.L167:
1296:.\Generated_Source\PSoC5/CyLib.c ****     }
1297:.\Generated_Source\PSoC5/CyLib.c **** 
1298:.\Generated_Source\PSoC5/CyLib.c ****     return(state);
 2290              		.loc 1 1298 0
 2291 0098 FB7B     		ldrb	r3, [r7, #15]	@ zero_extendqisi2
1299:.\Generated_Source\PSoC5/CyLib.c **** }
 2292              		.loc 1 1299 0
 2293 009a 1846     		mov	r0, r3
 2294 009c 1037     		adds	r7, r7, #16
 2295              		.cfi_def_cfa_offset 8
 2296 009e BD46     		mov	sp, r7
 2297              		.cfi_def_cfa_register 13
 2298              		@ sp needed
 2299 00a0 80BD     		pop	{r7, pc}
 2300              	.L170:
 2301 00a2 00BF     		.align	2
 2302              	.L169:
 2303 00a4 08430040 		.word	1073758984
 2304 00a8 0A430040 		.word	1073758986
 2305 00ac 98460040 		.word	1073759896
 2306 00b0 09430040 		.word	1073758985
 2307              		.cfi_endproc
 2308              	.LFE28:
 2309              		.size	CyXTAL_32KHZ_SetPowerMode, .-CyXTAL_32KHZ_SetPowerMode
 2310              		.section	.text.CyXTAL_Start,"ax",%progbits
 2311              		.align	2
 2312              		.global	CyXTAL_Start
 2313              		.thumb
 2314              		.thumb_func
 2315              		.type	CyXTAL_Start, %function
 2316              	CyXTAL_Start:
 2317              	.LFB29:
1300:.\Generated_Source\PSoC5/CyLib.c **** 
1301:.\Generated_Source\PSoC5/CyLib.c **** 
1302:.\Generated_Source\PSoC5/CyLib.c **** /*******************************************************************************
1303:.\Generated_Source\PSoC5/CyLib.c **** * Function Name: CyXTAL_Start
1304:.\Generated_Source\PSoC5/CyLib.c **** ********************************************************************************
1305:.\Generated_Source\PSoC5/CyLib.c **** *
1306:.\Generated_Source\PSoC5/CyLib.c **** * Summary:
1307:.\Generated_Source\PSoC5/CyLib.c **** *  Enables the megahertz crystal.
1308:.\Generated_Source\PSoC5/CyLib.c **** *
1309:.\Generated_Source\PSoC5/CyLib.c **** *  PSoC 3:
1310:.\Generated_Source\PSoC5/CyLib.c **** *  Waits until the XERR bit is low (no error) for a millisecond or until the
1311:.\Generated_Source\PSoC5/CyLib.c **** *  number of milliseconds specified by the wait parameter has expired.
1312:.\Generated_Source\PSoC5/CyLib.c **** *
1313:.\Generated_Source\PSoC5/CyLib.c **** * Parameters:
1314:.\Generated_Source\PSoC5/CyLib.c **** *   wait: Valid range [0-255].
1315:.\Generated_Source\PSoC5/CyLib.c **** *   This is the timeout value in milliseconds.
1316:.\Generated_Source\PSoC5/CyLib.c **** *   The appropriate value is crystal specific.
1317:.\Generated_Source\PSoC5/CyLib.c **** *
1318:.\Generated_Source\PSoC5/CyLib.c **** * Return:
1319:.\Generated_Source\PSoC5/CyLib.c **** *   CYRET_SUCCESS - Completed successfully
1320:.\Generated_Source\PSoC5/CyLib.c **** *   CYRET_TIMEOUT - Timeout occurred without detecting a low value on XERR.
1321:.\Generated_Source\PSoC5/CyLib.c **** *
1322:.\Generated_Source\PSoC5/CyLib.c **** * Side Effects and Restrictions:
1323:.\Generated_Source\PSoC5/CyLib.c **** *  If wait is enabled (non-zero wait). Uses the Fast Timewheel to time the wait.
ARM GAS  C:\Users\Rolando\AppData\Local\Temp\ccmqTZg9.s 			page 65


1324:.\Generated_Source\PSoC5/CyLib.c **** *  Any other use of the Fast Timewheel (FTW) will be stopped during the period
1325:.\Generated_Source\PSoC5/CyLib.c **** *  of this function and then restored.
1326:.\Generated_Source\PSoC5/CyLib.c **** *
1327:.\Generated_Source\PSoC5/CyLib.c **** *  Uses the 100KHz ILO.  If not enabled, this function will enable the 100KHz
1328:.\Generated_Source\PSoC5/CyLib.c **** *  ILO for the period of this function. No changes to the setup of the ILO,
1329:.\Generated_Source\PSoC5/CyLib.c **** *  Fast Timewheel, Central Timewheel or Once Per Second interrupt may be made
1330:.\Generated_Source\PSoC5/CyLib.c **** *  by interrupt routines during the period of this function.
1331:.\Generated_Source\PSoC5/CyLib.c **** *
1332:.\Generated_Source\PSoC5/CyLib.c **** *  The current operation of the ILO, Central Timewheel and Once Per Second
1333:.\Generated_Source\PSoC5/CyLib.c **** *  interrupt are maintained during the operation of this function provided the
1334:.\Generated_Source\PSoC5/CyLib.c **** *  reading of the Power Manager Interrupt Status Register is only done using the
1335:.\Generated_Source\PSoC5/CyLib.c **** *  CyPmReadStatus() function.
1336:.\Generated_Source\PSoC5/CyLib.c **** *
1337:.\Generated_Source\PSoC5/CyLib.c **** *******************************************************************************/
1338:.\Generated_Source\PSoC5/CyLib.c **** cystatus CyXTAL_Start(uint8 wait) 
1339:.\Generated_Source\PSoC5/CyLib.c **** {
 2318              		.loc 1 1339 0
 2319              		.cfi_startproc
 2320              		@ args = 0, pretend = 0, frame = 24
 2321              		@ frame_needed = 1, uses_anonymous_args = 0
 2322 0000 80B5     		push	{r7, lr}
 2323              		.cfi_def_cfa_offset 8
 2324              		.cfi_offset 7, -8
 2325              		.cfi_offset 14, -4
 2326 0002 86B0     		sub	sp, sp, #24
 2327              		.cfi_def_cfa_offset 32
 2328 0004 00AF     		add	r7, sp, #0
 2329              		.cfi_def_cfa_register 7
 2330 0006 0346     		mov	r3, r0
 2331 0008 FB71     		strb	r3, [r7, #7]
1340:.\Generated_Source\PSoC5/CyLib.c ****     cystatus status = CYRET_SUCCESS;
 2332              		.loc 1 1340 0
 2333 000a 0023     		movs	r3, #0
 2334 000c 7B61     		str	r3, [r7, #20]
1341:.\Generated_Source\PSoC5/CyLib.c ****     volatile uint8  timeout = wait;
 2335              		.loc 1 1341 0
 2336 000e FB79     		ldrb	r3, [r7, #7]
 2337 0010 3B74     		strb	r3, [r7, #16]
1342:.\Generated_Source\PSoC5/CyLib.c ****     volatile uint8 count;
1343:.\Generated_Source\PSoC5/CyLib.c ****     uint8 iloEnableState;
1344:.\Generated_Source\PSoC5/CyLib.c ****     uint8 pmTwCfg0Tmp;
1345:.\Generated_Source\PSoC5/CyLib.c ****     uint8 pmTwCfg2Tmp;
1346:.\Generated_Source\PSoC5/CyLib.c **** 
1347:.\Generated_Source\PSoC5/CyLib.c **** 
1348:.\Generated_Source\PSoC5/CyLib.c ****     /* Enables the MHz crystal oscillator circuit  */
1349:.\Generated_Source\PSoC5/CyLib.c ****     CY_CLK_XMHZ_CSR_REG |= CY_CLK_XMHZ_CSR_ENABLE;
 2338              		.loc 1 1349 0
 2339 0012 2B4A     		ldr	r2, .L182
 2340 0014 2A4B     		ldr	r3, .L182
 2341 0016 1B78     		ldrb	r3, [r3]
 2342 0018 DBB2     		uxtb	r3, r3
 2343 001a 43F00103 		orr	r3, r3, #1
 2344 001e DBB2     		uxtb	r3, r3
 2345 0020 1370     		strb	r3, [r2]
1350:.\Generated_Source\PSoC5/CyLib.c **** 
1351:.\Generated_Source\PSoC5/CyLib.c **** 
1352:.\Generated_Source\PSoC5/CyLib.c ****     if(wait > 0u)
ARM GAS  C:\Users\Rolando\AppData\Local\Temp\ccmqTZg9.s 			page 66


 2346              		.loc 1 1352 0
 2347 0022 FB79     		ldrb	r3, [r7, #7]	@ zero_extendqisi2
 2348 0024 002B     		cmp	r3, #0
 2349 0026 46D0     		beq	.L172
1353:.\Generated_Source\PSoC5/CyLib.c ****     {
1354:.\Generated_Source\PSoC5/CyLib.c ****         /* Save 100 KHz ILO, FTW interval, enable and interrupt enable */
1355:.\Generated_Source\PSoC5/CyLib.c ****         iloEnableState = CY_LIB_SLOWCLK_ILO_CR0_REG;
 2350              		.loc 1 1355 0
 2351 0028 264B     		ldr	r3, .L182+4
 2352 002a 1B78     		ldrb	r3, [r3]
 2353 002c FB74     		strb	r3, [r7, #19]
1356:.\Generated_Source\PSoC5/CyLib.c ****         pmTwCfg0Tmp = CY_LIB_PM_TW_CFG0_REG;
 2354              		.loc 1 1356 0
 2355 002e 264B     		ldr	r3, .L182+8
 2356 0030 1B78     		ldrb	r3, [r3]
 2357 0032 BB74     		strb	r3, [r7, #18]
1357:.\Generated_Source\PSoC5/CyLib.c ****         pmTwCfg2Tmp = CY_LIB_PM_TW_CFG2_REG;
 2358              		.loc 1 1357 0
 2359 0034 254B     		ldr	r3, .L182+12
 2360 0036 1B78     		ldrb	r3, [r3]
 2361 0038 7B74     		strb	r3, [r7, #17]
1358:.\Generated_Source\PSoC5/CyLib.c **** 
1359:.\Generated_Source\PSoC5/CyLib.c ****         /* Set 250 us interval */
1360:.\Generated_Source\PSoC5/CyLib.c ****         CyPmFtwSetInterval(CY_CLK_XMHZ_FTW_INTERVAL);
 2362              		.loc 1 1360 0
 2363 003a 1820     		movs	r0, #24
 2364 003c FFF7FEFF 		bl	CyPmFtwSetInterval
1361:.\Generated_Source\PSoC5/CyLib.c ****         status = CYRET_TIMEOUT;
 2365              		.loc 1 1361 0
 2366 0040 1023     		movs	r3, #16
 2367 0042 7B61     		str	r3, [r7, #20]
1362:.\Generated_Source\PSoC5/CyLib.c **** 
1363:.\Generated_Source\PSoC5/CyLib.c **** 
1364:.\Generated_Source\PSoC5/CyLib.c ****         for( ; timeout > 0u; timeout--)
 2368              		.loc 1 1364 0
 2369 0044 26E0     		b	.L173
 2370              	.L179:
1365:.\Generated_Source\PSoC5/CyLib.c ****         {
1366:.\Generated_Source\PSoC5/CyLib.c ****             /* Read XERR bit to clear it */
1367:.\Generated_Source\PSoC5/CyLib.c ****             (void) CY_CLK_XMHZ_CSR_REG;
 2371              		.loc 1 1367 0
 2372 0046 1E4B     		ldr	r3, .L182
 2373 0048 1B78     		ldrb	r3, [r3]
1368:.\Generated_Source\PSoC5/CyLib.c **** 
1369:.\Generated_Source\PSoC5/CyLib.c ****             /* Wait for a millisecond - 4 x 250 us */
1370:.\Generated_Source\PSoC5/CyLib.c ****             for(count = 4u; count > 0u; count--)
 2374              		.loc 1 1370 0
 2375 004a 0423     		movs	r3, #4
 2376 004c FB73     		strb	r3, [r7, #15]
 2377 004e 0EE0     		b	.L174
 2378              	.L176:
1371:.\Generated_Source\PSoC5/CyLib.c ****             {
1372:.\Generated_Source\PSoC5/CyLib.c ****                 while(0u == (CY_PM_FTW_INT & CyPmReadStatus(CY_PM_FTW_INT)))
 2379              		.loc 1 1372 0
 2380 0050 00BF     		nop
 2381              	.L175:
 2382              		.loc 1 1372 0 is_stmt 0 discriminator 1
ARM GAS  C:\Users\Rolando\AppData\Local\Temp\ccmqTZg9.s 			page 67


 2383 0052 0120     		movs	r0, #1
 2384 0054 FFF7FEFF 		bl	CyPmReadStatus
 2385 0058 0346     		mov	r3, r0
 2386 005a 03F00103 		and	r3, r3, #1
 2387 005e DBB2     		uxtb	r3, r3
 2388 0060 002B     		cmp	r3, #0
 2389 0062 F6D0     		beq	.L175
1370:.\Generated_Source\PSoC5/CyLib.c ****             {
 2390              		.loc 1 1370 0 is_stmt 1 discriminator 2
 2391 0064 FB7B     		ldrb	r3, [r7, #15]
 2392 0066 DBB2     		uxtb	r3, r3
 2393 0068 013B     		subs	r3, r3, #1
 2394 006a DBB2     		uxtb	r3, r3
 2395 006c FB73     		strb	r3, [r7, #15]
 2396              	.L174:
1370:.\Generated_Source\PSoC5/CyLib.c ****             {
 2397              		.loc 1 1370 0 is_stmt 0 discriminator 1
 2398 006e FB7B     		ldrb	r3, [r7, #15]
 2399 0070 DBB2     		uxtb	r3, r3
 2400 0072 002B     		cmp	r3, #0
 2401 0074 ECD1     		bne	.L176
1373:.\Generated_Source\PSoC5/CyLib.c ****                 {
1374:.\Generated_Source\PSoC5/CyLib.c ****                     /* Wait for the FTW interrupt event */
1375:.\Generated_Source\PSoC5/CyLib.c ****                 }
1376:.\Generated_Source\PSoC5/CyLib.c ****             }
1377:.\Generated_Source\PSoC5/CyLib.c **** 
1378:.\Generated_Source\PSoC5/CyLib.c **** 
1379:.\Generated_Source\PSoC5/CyLib.c ****             /*******************************************************************
1380:.\Generated_Source\PSoC5/CyLib.c ****             * High output indicates oscillator failure.
1381:.\Generated_Source\PSoC5/CyLib.c ****             * Only can be used after start-up interval (1 ms) is completed.
1382:.\Generated_Source\PSoC5/CyLib.c ****             *******************************************************************/
1383:.\Generated_Source\PSoC5/CyLib.c ****             if(0u == (CY_CLK_XMHZ_CSR_REG & CY_CLK_XMHZ_CSR_XERR))
 2402              		.loc 1 1383 0 is_stmt 1
 2403 0076 124B     		ldr	r3, .L182
 2404 0078 1B78     		ldrb	r3, [r3]
 2405 007a DBB2     		uxtb	r3, r3
 2406 007c DBB2     		uxtb	r3, r3
 2407 007e 5BB2     		sxtb	r3, r3
 2408 0080 002B     		cmp	r3, #0
 2409 0082 02DB     		blt	.L177
1384:.\Generated_Source\PSoC5/CyLib.c ****             {
1385:.\Generated_Source\PSoC5/CyLib.c ****                 status = CYRET_SUCCESS;
 2410              		.loc 1 1385 0
 2411 0084 0023     		movs	r3, #0
 2412 0086 7B61     		str	r3, [r7, #20]
1386:.\Generated_Source\PSoC5/CyLib.c ****                 break;
 2413              		.loc 1 1386 0
 2414 0088 08E0     		b	.L178
 2415              	.L177:
1364:.\Generated_Source\PSoC5/CyLib.c ****         {
 2416              		.loc 1 1364 0
 2417 008a 3B7C     		ldrb	r3, [r7, #16]
 2418 008c DBB2     		uxtb	r3, r3
 2419 008e 013B     		subs	r3, r3, #1
 2420 0090 DBB2     		uxtb	r3, r3
 2421 0092 3B74     		strb	r3, [r7, #16]
 2422              	.L173:
ARM GAS  C:\Users\Rolando\AppData\Local\Temp\ccmqTZg9.s 			page 68


1364:.\Generated_Source\PSoC5/CyLib.c ****         {
 2423              		.loc 1 1364 0 is_stmt 0 discriminator 1
 2424 0094 3B7C     		ldrb	r3, [r7, #16]
 2425 0096 DBB2     		uxtb	r3, r3
 2426 0098 002B     		cmp	r3, #0
 2427 009a D4D1     		bne	.L179
 2428              	.L178:
1387:.\Generated_Source\PSoC5/CyLib.c ****             }
1388:.\Generated_Source\PSoC5/CyLib.c ****         }
1389:.\Generated_Source\PSoC5/CyLib.c **** 
1390:.\Generated_Source\PSoC5/CyLib.c **** 
1391:.\Generated_Source\PSoC5/CyLib.c ****         /* Restore 100 KHz ILO, FTW interval, enable and interrupt enable */
1392:.\Generated_Source\PSoC5/CyLib.c ****         if(0u == (iloEnableState & CY_LIB_SLOWCLK_ILO_CR0_EN_100KHZ))
 2429              		.loc 1 1392 0 is_stmt 1
 2430 009c FB7C     		ldrb	r3, [r7, #19]	@ zero_extendqisi2
 2431 009e 03F00403 		and	r3, r3, #4
 2432 00a2 002B     		cmp	r3, #0
 2433 00a4 01D1     		bne	.L180
1393:.\Generated_Source\PSoC5/CyLib.c ****         {
1394:.\Generated_Source\PSoC5/CyLib.c ****             CyILO_Stop100K();
 2434              		.loc 1 1394 0
 2435 00a6 FFF7FEFF 		bl	CyILO_Stop100K
 2436              	.L180:
1395:.\Generated_Source\PSoC5/CyLib.c ****         }
1396:.\Generated_Source\PSoC5/CyLib.c ****         CY_LIB_PM_TW_CFG0_REG = pmTwCfg0Tmp;
 2437              		.loc 1 1396 0
 2438 00aa 074A     		ldr	r2, .L182+8
 2439 00ac BB7C     		ldrb	r3, [r7, #18]
 2440 00ae 1370     		strb	r3, [r2]
1397:.\Generated_Source\PSoC5/CyLib.c ****         CY_LIB_PM_TW_CFG2_REG = pmTwCfg2Tmp;
 2441              		.loc 1 1397 0
 2442 00b0 064A     		ldr	r2, .L182+12
 2443 00b2 7B7C     		ldrb	r3, [r7, #17]
 2444 00b4 1370     		strb	r3, [r2]
 2445              	.L172:
1398:.\Generated_Source\PSoC5/CyLib.c ****     }
1399:.\Generated_Source\PSoC5/CyLib.c **** 
1400:.\Generated_Source\PSoC5/CyLib.c ****     return(status);
 2446              		.loc 1 1400 0
 2447 00b6 7B69     		ldr	r3, [r7, #20]
1401:.\Generated_Source\PSoC5/CyLib.c **** }
 2448              		.loc 1 1401 0
 2449 00b8 1846     		mov	r0, r3
 2450 00ba 1837     		adds	r7, r7, #24
 2451              		.cfi_def_cfa_offset 8
 2452 00bc BD46     		mov	sp, r7
 2453              		.cfi_def_cfa_register 13
 2454              		@ sp needed
 2455 00be 80BD     		pop	{r7, pc}
 2456              	.L183:
 2457              		.align	2
 2458              	.L182:
 2459 00c0 10420040 		.word	1073758736
 2460 00c4 00430040 		.word	1073758976
 2461 00c8 80430040 		.word	1073759104
 2462 00cc 82430040 		.word	1073759106
 2463              		.cfi_endproc
ARM GAS  C:\Users\Rolando\AppData\Local\Temp\ccmqTZg9.s 			page 69


 2464              	.LFE29:
 2465              		.size	CyXTAL_Start, .-CyXTAL_Start
 2466              		.section	.text.CyXTAL_Stop,"ax",%progbits
 2467              		.align	2
 2468              		.global	CyXTAL_Stop
 2469              		.thumb
 2470              		.thumb_func
 2471              		.type	CyXTAL_Stop, %function
 2472              	CyXTAL_Stop:
 2473              	.LFB30:
1402:.\Generated_Source\PSoC5/CyLib.c **** 
1403:.\Generated_Source\PSoC5/CyLib.c **** 
1404:.\Generated_Source\PSoC5/CyLib.c **** /*******************************************************************************
1405:.\Generated_Source\PSoC5/CyLib.c **** * Function Name: CyXTAL_Stop
1406:.\Generated_Source\PSoC5/CyLib.c **** ********************************************************************************
1407:.\Generated_Source\PSoC5/CyLib.c **** *
1408:.\Generated_Source\PSoC5/CyLib.c **** * Summary:
1409:.\Generated_Source\PSoC5/CyLib.c **** *  Disables the megahertz crystal oscillator.
1410:.\Generated_Source\PSoC5/CyLib.c **** *
1411:.\Generated_Source\PSoC5/CyLib.c **** * Parameters:
1412:.\Generated_Source\PSoC5/CyLib.c **** *  None
1413:.\Generated_Source\PSoC5/CyLib.c **** *
1414:.\Generated_Source\PSoC5/CyLib.c **** * Return:
1415:.\Generated_Source\PSoC5/CyLib.c **** *  None
1416:.\Generated_Source\PSoC5/CyLib.c **** *
1417:.\Generated_Source\PSoC5/CyLib.c **** *******************************************************************************/
1418:.\Generated_Source\PSoC5/CyLib.c **** void CyXTAL_Stop(void) 
1419:.\Generated_Source\PSoC5/CyLib.c **** {
 2474              		.loc 1 1419 0
 2475              		.cfi_startproc
 2476              		@ args = 0, pretend = 0, frame = 0
 2477              		@ frame_needed = 1, uses_anonymous_args = 0
 2478              		@ link register save eliminated.
 2479 0000 80B4     		push	{r7}
 2480              		.cfi_def_cfa_offset 4
 2481              		.cfi_offset 7, -4
 2482 0002 00AF     		add	r7, sp, #0
 2483              		.cfi_def_cfa_register 7
1420:.\Generated_Source\PSoC5/CyLib.c ****     /* Disable the the oscillator. */
1421:.\Generated_Source\PSoC5/CyLib.c ****     FASTCLK_XMHZ_CSR &= ((uint8)(~XMHZ_CONTROL_ENABLE));
 2484              		.loc 1 1421 0
 2485 0004 054A     		ldr	r2, .L185
 2486 0006 054B     		ldr	r3, .L185
 2487 0008 1B78     		ldrb	r3, [r3]
 2488 000a DBB2     		uxtb	r3, r3
 2489 000c 23F00103 		bic	r3, r3, #1
 2490 0010 DBB2     		uxtb	r3, r3
 2491 0012 1370     		strb	r3, [r2]
1422:.\Generated_Source\PSoC5/CyLib.c **** }
 2492              		.loc 1 1422 0
 2493 0014 BD46     		mov	sp, r7
 2494              		.cfi_def_cfa_register 13
 2495              		@ sp needed
 2496 0016 5DF8047B 		ldr	r7, [sp], #4
 2497              		.cfi_restore 7
 2498              		.cfi_def_cfa_offset 0
 2499 001a 7047     		bx	lr
ARM GAS  C:\Users\Rolando\AppData\Local\Temp\ccmqTZg9.s 			page 70


 2500              	.L186:
 2501              		.align	2
 2502              	.L185:
 2503 001c 10420040 		.word	1073758736
 2504              		.cfi_endproc
 2505              	.LFE30:
 2506              		.size	CyXTAL_Stop, .-CyXTAL_Stop
 2507              		.section	.text.CyXTAL_EnableErrStatus,"ax",%progbits
 2508              		.align	2
 2509              		.global	CyXTAL_EnableErrStatus
 2510              		.thumb
 2511              		.thumb_func
 2512              		.type	CyXTAL_EnableErrStatus, %function
 2513              	CyXTAL_EnableErrStatus:
 2514              	.LFB31:
1423:.\Generated_Source\PSoC5/CyLib.c **** 
1424:.\Generated_Source\PSoC5/CyLib.c **** 
1425:.\Generated_Source\PSoC5/CyLib.c **** /*******************************************************************************
1426:.\Generated_Source\PSoC5/CyLib.c **** * Function Name: CyXTAL_EnableErrStatus
1427:.\Generated_Source\PSoC5/CyLib.c **** ********************************************************************************
1428:.\Generated_Source\PSoC5/CyLib.c **** *
1429:.\Generated_Source\PSoC5/CyLib.c **** * Summary:
1430:.\Generated_Source\PSoC5/CyLib.c **** *  Enables the generation of the XERR status bit for the megahertz crystal.
1431:.\Generated_Source\PSoC5/CyLib.c **** *  This function is not available for PSoC5.
1432:.\Generated_Source\PSoC5/CyLib.c **** *
1433:.\Generated_Source\PSoC5/CyLib.c **** * Parameters:
1434:.\Generated_Source\PSoC5/CyLib.c **** *  None
1435:.\Generated_Source\PSoC5/CyLib.c **** *
1436:.\Generated_Source\PSoC5/CyLib.c **** * Return:
1437:.\Generated_Source\PSoC5/CyLib.c **** *  None
1438:.\Generated_Source\PSoC5/CyLib.c **** *
1439:.\Generated_Source\PSoC5/CyLib.c **** *******************************************************************************/
1440:.\Generated_Source\PSoC5/CyLib.c **** void CyXTAL_EnableErrStatus(void) 
1441:.\Generated_Source\PSoC5/CyLib.c **** {
 2515              		.loc 1 1441 0
 2516              		.cfi_startproc
 2517              		@ args = 0, pretend = 0, frame = 0
 2518              		@ frame_needed = 1, uses_anonymous_args = 0
 2519              		@ link register save eliminated.
 2520 0000 80B4     		push	{r7}
 2521              		.cfi_def_cfa_offset 4
 2522              		.cfi_offset 7, -4
 2523 0002 00AF     		add	r7, sp, #0
 2524              		.cfi_def_cfa_register 7
1442:.\Generated_Source\PSoC5/CyLib.c ****     /* If oscillator has insufficient amplitude, XERR bit will be high. */
1443:.\Generated_Source\PSoC5/CyLib.c ****     CY_CLK_XMHZ_CSR_REG &= ((uint8)(~CY_CLK_XMHZ_CSR_XFB));
 2525              		.loc 1 1443 0
 2526 0004 054A     		ldr	r2, .L188
 2527 0006 054B     		ldr	r3, .L188
 2528 0008 1B78     		ldrb	r3, [r3]
 2529 000a DBB2     		uxtb	r3, r3
 2530 000c 23F00403 		bic	r3, r3, #4
 2531 0010 DBB2     		uxtb	r3, r3
 2532 0012 1370     		strb	r3, [r2]
1444:.\Generated_Source\PSoC5/CyLib.c **** }
 2533              		.loc 1 1444 0
 2534 0014 BD46     		mov	sp, r7
ARM GAS  C:\Users\Rolando\AppData\Local\Temp\ccmqTZg9.s 			page 71


 2535              		.cfi_def_cfa_register 13
 2536              		@ sp needed
 2537 0016 5DF8047B 		ldr	r7, [sp], #4
 2538              		.cfi_restore 7
 2539              		.cfi_def_cfa_offset 0
 2540 001a 7047     		bx	lr
 2541              	.L189:
 2542              		.align	2
 2543              	.L188:
 2544 001c 10420040 		.word	1073758736
 2545              		.cfi_endproc
 2546              	.LFE31:
 2547              		.size	CyXTAL_EnableErrStatus, .-CyXTAL_EnableErrStatus
 2548              		.section	.text.CyXTAL_DisableErrStatus,"ax",%progbits
 2549              		.align	2
 2550              		.global	CyXTAL_DisableErrStatus
 2551              		.thumb
 2552              		.thumb_func
 2553              		.type	CyXTAL_DisableErrStatus, %function
 2554              	CyXTAL_DisableErrStatus:
 2555              	.LFB32:
1445:.\Generated_Source\PSoC5/CyLib.c **** 
1446:.\Generated_Source\PSoC5/CyLib.c **** 
1447:.\Generated_Source\PSoC5/CyLib.c **** /*******************************************************************************
1448:.\Generated_Source\PSoC5/CyLib.c **** * Function Name: CyXTAL_DisableErrStatus
1449:.\Generated_Source\PSoC5/CyLib.c **** ********************************************************************************
1450:.\Generated_Source\PSoC5/CyLib.c **** *
1451:.\Generated_Source\PSoC5/CyLib.c **** * Summary:
1452:.\Generated_Source\PSoC5/CyLib.c **** *  Disables the generation of the XERR status bit for the megahertz crystal.
1453:.\Generated_Source\PSoC5/CyLib.c **** *  This function is not available for PSoC5.
1454:.\Generated_Source\PSoC5/CyLib.c **** *
1455:.\Generated_Source\PSoC5/CyLib.c **** * Parameters:
1456:.\Generated_Source\PSoC5/CyLib.c **** *  None
1457:.\Generated_Source\PSoC5/CyLib.c **** *
1458:.\Generated_Source\PSoC5/CyLib.c **** * Return:
1459:.\Generated_Source\PSoC5/CyLib.c **** *  None
1460:.\Generated_Source\PSoC5/CyLib.c **** *
1461:.\Generated_Source\PSoC5/CyLib.c **** *******************************************************************************/
1462:.\Generated_Source\PSoC5/CyLib.c **** void CyXTAL_DisableErrStatus(void) 
1463:.\Generated_Source\PSoC5/CyLib.c **** {
 2556              		.loc 1 1463 0
 2557              		.cfi_startproc
 2558              		@ args = 0, pretend = 0, frame = 0
 2559              		@ frame_needed = 1, uses_anonymous_args = 0
 2560              		@ link register save eliminated.
 2561 0000 80B4     		push	{r7}
 2562              		.cfi_def_cfa_offset 4
 2563              		.cfi_offset 7, -4
 2564 0002 00AF     		add	r7, sp, #0
 2565              		.cfi_def_cfa_register 7
1464:.\Generated_Source\PSoC5/CyLib.c ****     /* If oscillator has insufficient amplitude, XERR bit will be high. */
1465:.\Generated_Source\PSoC5/CyLib.c ****     CY_CLK_XMHZ_CSR_REG |= CY_CLK_XMHZ_CSR_XFB;
 2566              		.loc 1 1465 0
 2567 0004 054A     		ldr	r2, .L191
 2568 0006 054B     		ldr	r3, .L191
 2569 0008 1B78     		ldrb	r3, [r3]
 2570 000a DBB2     		uxtb	r3, r3
ARM GAS  C:\Users\Rolando\AppData\Local\Temp\ccmqTZg9.s 			page 72


 2571 000c 43F00403 		orr	r3, r3, #4
 2572 0010 DBB2     		uxtb	r3, r3
 2573 0012 1370     		strb	r3, [r2]
1466:.\Generated_Source\PSoC5/CyLib.c **** }
 2574              		.loc 1 1466 0
 2575 0014 BD46     		mov	sp, r7
 2576              		.cfi_def_cfa_register 13
 2577              		@ sp needed
 2578 0016 5DF8047B 		ldr	r7, [sp], #4
 2579              		.cfi_restore 7
 2580              		.cfi_def_cfa_offset 0
 2581 001a 7047     		bx	lr
 2582              	.L192:
 2583              		.align	2
 2584              	.L191:
 2585 001c 10420040 		.word	1073758736
 2586              		.cfi_endproc
 2587              	.LFE32:
 2588              		.size	CyXTAL_DisableErrStatus, .-CyXTAL_DisableErrStatus
 2589              		.section	.text.CyXTAL_ReadStatus,"ax",%progbits
 2590              		.align	2
 2591              		.global	CyXTAL_ReadStatus
 2592              		.thumb
 2593              		.thumb_func
 2594              		.type	CyXTAL_ReadStatus, %function
 2595              	CyXTAL_ReadStatus:
 2596              	.LFB33:
1467:.\Generated_Source\PSoC5/CyLib.c **** 
1468:.\Generated_Source\PSoC5/CyLib.c **** 
1469:.\Generated_Source\PSoC5/CyLib.c **** /*******************************************************************************
1470:.\Generated_Source\PSoC5/CyLib.c **** * Function Name: CyXTAL_ReadStatus
1471:.\Generated_Source\PSoC5/CyLib.c **** ********************************************************************************
1472:.\Generated_Source\PSoC5/CyLib.c **** *
1473:.\Generated_Source\PSoC5/CyLib.c **** * Summary:
1474:.\Generated_Source\PSoC5/CyLib.c **** *  Reads the XERR status bit for the megahertz crystal. This status bit is a
1475:.\Generated_Source\PSoC5/CyLib.c **** *  sticky clear on read value. This function is not available for PSoC5.
1476:.\Generated_Source\PSoC5/CyLib.c **** *
1477:.\Generated_Source\PSoC5/CyLib.c **** * Parameters:
1478:.\Generated_Source\PSoC5/CyLib.c **** *  None
1479:.\Generated_Source\PSoC5/CyLib.c **** *
1480:.\Generated_Source\PSoC5/CyLib.c **** * Return:
1481:.\Generated_Source\PSoC5/CyLib.c **** *   Status
1482:.\Generated_Source\PSoC5/CyLib.c **** *    0: No error
1483:.\Generated_Source\PSoC5/CyLib.c **** *    1: Error
1484:.\Generated_Source\PSoC5/CyLib.c **** *
1485:.\Generated_Source\PSoC5/CyLib.c **** *******************************************************************************/
1486:.\Generated_Source\PSoC5/CyLib.c **** uint8 CyXTAL_ReadStatus(void) 
1487:.\Generated_Source\PSoC5/CyLib.c **** {
 2597              		.loc 1 1487 0
 2598              		.cfi_startproc
 2599              		@ args = 0, pretend = 0, frame = 0
 2600              		@ frame_needed = 1, uses_anonymous_args = 0
 2601              		@ link register save eliminated.
 2602 0000 80B4     		push	{r7}
 2603              		.cfi_def_cfa_offset 4
 2604              		.cfi_offset 7, -4
 2605 0002 00AF     		add	r7, sp, #0
ARM GAS  C:\Users\Rolando\AppData\Local\Temp\ccmqTZg9.s 			page 73


 2606              		.cfi_def_cfa_register 7
1488:.\Generated_Source\PSoC5/CyLib.c ****     /***************************************************************************
1489:.\Generated_Source\PSoC5/CyLib.c ****     * High output indicates oscillator failure. Only use this after start-up
1490:.\Generated_Source\PSoC5/CyLib.c ****     * interval is completed. This can be used for status and failure recovery.
1491:.\Generated_Source\PSoC5/CyLib.c ****     ***************************************************************************/
1492:.\Generated_Source\PSoC5/CyLib.c ****     return((0u != (CY_CLK_XMHZ_CSR_REG & CY_CLK_XMHZ_CSR_XERR)) ? 1u : 0u);
 2607              		.loc 1 1492 0
 2608 0004 074B     		ldr	r3, .L197
 2609 0006 1B78     		ldrb	r3, [r3]
 2610 0008 DBB2     		uxtb	r3, r3
 2611 000a DBB2     		uxtb	r3, r3
 2612 000c 5BB2     		sxtb	r3, r3
 2613 000e 002B     		cmp	r3, #0
 2614 0010 01DA     		bge	.L194
 2615              		.loc 1 1492 0 is_stmt 0 discriminator 1
 2616 0012 0123     		movs	r3, #1
 2617 0014 00E0     		b	.L195
 2618              	.L194:
 2619              		.loc 1 1492 0 discriminator 2
 2620 0016 0023     		movs	r3, #0
 2621              	.L195:
1493:.\Generated_Source\PSoC5/CyLib.c **** }
 2622              		.loc 1 1493 0 is_stmt 1 discriminator 4
 2623 0018 1846     		mov	r0, r3
 2624 001a BD46     		mov	sp, r7
 2625              		.cfi_def_cfa_register 13
 2626              		@ sp needed
 2627 001c 5DF8047B 		ldr	r7, [sp], #4
 2628              		.cfi_restore 7
 2629              		.cfi_def_cfa_offset 0
 2630 0020 7047     		bx	lr
 2631              	.L198:
 2632 0022 00BF     		.align	2
 2633              	.L197:
 2634 0024 10420040 		.word	1073758736
 2635              		.cfi_endproc
 2636              	.LFE33:
 2637              		.size	CyXTAL_ReadStatus, .-CyXTAL_ReadStatus
 2638              		.section	.text.CyXTAL_EnableFaultRecovery,"ax",%progbits
 2639              		.align	2
 2640              		.global	CyXTAL_EnableFaultRecovery
 2641              		.thumb
 2642              		.thumb_func
 2643              		.type	CyXTAL_EnableFaultRecovery, %function
 2644              	CyXTAL_EnableFaultRecovery:
 2645              	.LFB34:
1494:.\Generated_Source\PSoC5/CyLib.c **** 
1495:.\Generated_Source\PSoC5/CyLib.c **** 
1496:.\Generated_Source\PSoC5/CyLib.c **** /*******************************************************************************
1497:.\Generated_Source\PSoC5/CyLib.c **** * Function Name: CyXTAL_EnableFaultRecovery
1498:.\Generated_Source\PSoC5/CyLib.c **** ********************************************************************************
1499:.\Generated_Source\PSoC5/CyLib.c **** *
1500:.\Generated_Source\PSoC5/CyLib.c **** * Summary:
1501:.\Generated_Source\PSoC5/CyLib.c **** *  Enables the fault recovery circuit which will switch to the IMO in the case
1502:.\Generated_Source\PSoC5/CyLib.c **** *  of a fault in the megahertz crystal circuit. The crystal must be up and
1503:.\Generated_Source\PSoC5/CyLib.c **** *  running with the XERR bit at 0, before calling this function to prevent
1504:.\Generated_Source\PSoC5/CyLib.c **** *  immediate fault switchover. This function is not available for PSoC5.
ARM GAS  C:\Users\Rolando\AppData\Local\Temp\ccmqTZg9.s 			page 74


1505:.\Generated_Source\PSoC5/CyLib.c **** *
1506:.\Generated_Source\PSoC5/CyLib.c **** * Parameters:
1507:.\Generated_Source\PSoC5/CyLib.c **** *  None
1508:.\Generated_Source\PSoC5/CyLib.c **** *
1509:.\Generated_Source\PSoC5/CyLib.c **** * Return:
1510:.\Generated_Source\PSoC5/CyLib.c **** *  None
1511:.\Generated_Source\PSoC5/CyLib.c **** *
1512:.\Generated_Source\PSoC5/CyLib.c **** *******************************************************************************/
1513:.\Generated_Source\PSoC5/CyLib.c **** void CyXTAL_EnableFaultRecovery(void) 
1514:.\Generated_Source\PSoC5/CyLib.c **** {
 2646              		.loc 1 1514 0
 2647              		.cfi_startproc
 2648              		@ args = 0, pretend = 0, frame = 0
 2649              		@ frame_needed = 1, uses_anonymous_args = 0
 2650              		@ link register save eliminated.
 2651 0000 80B4     		push	{r7}
 2652              		.cfi_def_cfa_offset 4
 2653              		.cfi_offset 7, -4
 2654 0002 00AF     		add	r7, sp, #0
 2655              		.cfi_def_cfa_register 7
1515:.\Generated_Source\PSoC5/CyLib.c ****     CY_CLK_XMHZ_CSR_REG |= CY_CLK_XMHZ_CSR_XPROT;
 2656              		.loc 1 1515 0
 2657 0004 054A     		ldr	r2, .L200
 2658 0006 054B     		ldr	r3, .L200
 2659 0008 1B78     		ldrb	r3, [r3]
 2660 000a DBB2     		uxtb	r3, r3
 2661 000c 43F04003 		orr	r3, r3, #64
 2662 0010 DBB2     		uxtb	r3, r3
 2663 0012 1370     		strb	r3, [r2]
1516:.\Generated_Source\PSoC5/CyLib.c **** }
 2664              		.loc 1 1516 0
 2665 0014 BD46     		mov	sp, r7
 2666              		.cfi_def_cfa_register 13
 2667              		@ sp needed
 2668 0016 5DF8047B 		ldr	r7, [sp], #4
 2669              		.cfi_restore 7
 2670              		.cfi_def_cfa_offset 0
 2671 001a 7047     		bx	lr
 2672              	.L201:
 2673              		.align	2
 2674              	.L200:
 2675 001c 10420040 		.word	1073758736
 2676              		.cfi_endproc
 2677              	.LFE34:
 2678              		.size	CyXTAL_EnableFaultRecovery, .-CyXTAL_EnableFaultRecovery
 2679              		.section	.text.CyXTAL_DisableFaultRecovery,"ax",%progbits
 2680              		.align	2
 2681              		.global	CyXTAL_DisableFaultRecovery
 2682              		.thumb
 2683              		.thumb_func
 2684              		.type	CyXTAL_DisableFaultRecovery, %function
 2685              	CyXTAL_DisableFaultRecovery:
 2686              	.LFB35:
1517:.\Generated_Source\PSoC5/CyLib.c **** 
1518:.\Generated_Source\PSoC5/CyLib.c **** 
1519:.\Generated_Source\PSoC5/CyLib.c **** /*******************************************************************************
1520:.\Generated_Source\PSoC5/CyLib.c **** * Function Name: CyXTAL_DisableFaultRecovery
ARM GAS  C:\Users\Rolando\AppData\Local\Temp\ccmqTZg9.s 			page 75


1521:.\Generated_Source\PSoC5/CyLib.c **** ********************************************************************************
1522:.\Generated_Source\PSoC5/CyLib.c **** *
1523:.\Generated_Source\PSoC5/CyLib.c **** * Summary:
1524:.\Generated_Source\PSoC5/CyLib.c **** *  Disables the fault recovery circuit which will switch to the IMO in the case
1525:.\Generated_Source\PSoC5/CyLib.c **** *  of a fault in the megahertz crystal circuit. This function is not available
1526:.\Generated_Source\PSoC5/CyLib.c **** *  for PSoC5.
1527:.\Generated_Source\PSoC5/CyLib.c **** *
1528:.\Generated_Source\PSoC5/CyLib.c **** * Parameters:
1529:.\Generated_Source\PSoC5/CyLib.c **** *  None
1530:.\Generated_Source\PSoC5/CyLib.c **** *
1531:.\Generated_Source\PSoC5/CyLib.c **** * Return:
1532:.\Generated_Source\PSoC5/CyLib.c **** *  None
1533:.\Generated_Source\PSoC5/CyLib.c **** *
1534:.\Generated_Source\PSoC5/CyLib.c **** *******************************************************************************/
1535:.\Generated_Source\PSoC5/CyLib.c **** void CyXTAL_DisableFaultRecovery(void) 
1536:.\Generated_Source\PSoC5/CyLib.c **** {
 2687              		.loc 1 1536 0
 2688              		.cfi_startproc
 2689              		@ args = 0, pretend = 0, frame = 0
 2690              		@ frame_needed = 1, uses_anonymous_args = 0
 2691              		@ link register save eliminated.
 2692 0000 80B4     		push	{r7}
 2693              		.cfi_def_cfa_offset 4
 2694              		.cfi_offset 7, -4
 2695 0002 00AF     		add	r7, sp, #0
 2696              		.cfi_def_cfa_register 7
1537:.\Generated_Source\PSoC5/CyLib.c ****     CY_CLK_XMHZ_CSR_REG &= ((uint8)(~CY_CLK_XMHZ_CSR_XPROT));
 2697              		.loc 1 1537 0
 2698 0004 054A     		ldr	r2, .L203
 2699 0006 054B     		ldr	r3, .L203
 2700 0008 1B78     		ldrb	r3, [r3]
 2701 000a DBB2     		uxtb	r3, r3
 2702 000c 23F04003 		bic	r3, r3, #64
 2703 0010 DBB2     		uxtb	r3, r3
 2704 0012 1370     		strb	r3, [r2]
1538:.\Generated_Source\PSoC5/CyLib.c **** }
 2705              		.loc 1 1538 0
 2706 0014 BD46     		mov	sp, r7
 2707              		.cfi_def_cfa_register 13
 2708              		@ sp needed
 2709 0016 5DF8047B 		ldr	r7, [sp], #4
 2710              		.cfi_restore 7
 2711              		.cfi_def_cfa_offset 0
 2712 001a 7047     		bx	lr
 2713              	.L204:
 2714              		.align	2
 2715              	.L203:
 2716 001c 10420040 		.word	1073758736
 2717              		.cfi_endproc
 2718              	.LFE35:
 2719              		.size	CyXTAL_DisableFaultRecovery, .-CyXTAL_DisableFaultRecovery
 2720              		.section	.text.CyXTAL_SetStartup,"ax",%progbits
 2721              		.align	2
 2722              		.global	CyXTAL_SetStartup
 2723              		.thumb
 2724              		.thumb_func
 2725              		.type	CyXTAL_SetStartup, %function
ARM GAS  C:\Users\Rolando\AppData\Local\Temp\ccmqTZg9.s 			page 76


 2726              	CyXTAL_SetStartup:
 2727              	.LFB36:
1539:.\Generated_Source\PSoC5/CyLib.c **** 
1540:.\Generated_Source\PSoC5/CyLib.c **** 
1541:.\Generated_Source\PSoC5/CyLib.c **** /*******************************************************************************
1542:.\Generated_Source\PSoC5/CyLib.c **** * Function Name: CyXTAL_SetStartup
1543:.\Generated_Source\PSoC5/CyLib.c **** ********************************************************************************
1544:.\Generated_Source\PSoC5/CyLib.c **** *
1545:.\Generated_Source\PSoC5/CyLib.c **** * Summary:
1546:.\Generated_Source\PSoC5/CyLib.c **** *  Sets the startup settings for the crystal. Logic model outputs a frequency
1547:.\Generated_Source\PSoC5/CyLib.c **** *  (setting + 4) MHz when enabled.
1548:.\Generated_Source\PSoC5/CyLib.c **** *
1549:.\Generated_Source\PSoC5/CyLib.c **** *  This is artificial as the actual frequency is determined by an attached
1550:.\Generated_Source\PSoC5/CyLib.c **** *  external crystal.
1551:.\Generated_Source\PSoC5/CyLib.c **** *
1552:.\Generated_Source\PSoC5/CyLib.c **** * Parameters:
1553:.\Generated_Source\PSoC5/CyLib.c **** *  setting: Valid range [0-31].
1554:.\Generated_Source\PSoC5/CyLib.c **** *   Value is dependent on the frequency and quality of the crystal being used.
1555:.\Generated_Source\PSoC5/CyLib.c **** *   Refer to the device TRM and datasheet for more information.
1556:.\Generated_Source\PSoC5/CyLib.c **** *
1557:.\Generated_Source\PSoC5/CyLib.c **** * Return:
1558:.\Generated_Source\PSoC5/CyLib.c **** *  None
1559:.\Generated_Source\PSoC5/CyLib.c **** *
1560:.\Generated_Source\PSoC5/CyLib.c **** *******************************************************************************/
1561:.\Generated_Source\PSoC5/CyLib.c **** void CyXTAL_SetStartup(uint8 setting) 
1562:.\Generated_Source\PSoC5/CyLib.c **** {
 2728              		.loc 1 1562 0
 2729              		.cfi_startproc
 2730              		@ args = 0, pretend = 0, frame = 8
 2731              		@ frame_needed = 1, uses_anonymous_args = 0
 2732              		@ link register save eliminated.
 2733 0000 80B4     		push	{r7}
 2734              		.cfi_def_cfa_offset 4
 2735              		.cfi_offset 7, -4
 2736 0002 83B0     		sub	sp, sp, #12
 2737              		.cfi_def_cfa_offset 16
 2738 0004 00AF     		add	r7, sp, #0
 2739              		.cfi_def_cfa_register 7
 2740 0006 0346     		mov	r3, r0
 2741 0008 FB71     		strb	r3, [r7, #7]
1563:.\Generated_Source\PSoC5/CyLib.c ****     CY_CLK_XMHZ_CFG0_REG = (CY_CLK_XMHZ_CFG0_REG & ((uint8)(~CY_CLK_XMHZ_CFG0_XCFG_MASK))) |
 2742              		.loc 1 1563 0
 2743 000a 0949     		ldr	r1, .L206
 2744 000c 084B     		ldr	r3, .L206
 2745 000e 1B78     		ldrb	r3, [r3]
 2746 0010 DBB2     		uxtb	r3, r3
 2747 0012 23F01F03 		bic	r3, r3, #31
 2748 0016 DAB2     		uxtb	r2, r3
 2749 0018 FB79     		ldrb	r3, [r7, #7]
 2750 001a 03F01F03 		and	r3, r3, #31
 2751 001e DBB2     		uxtb	r3, r3
 2752 0020 1343     		orrs	r3, r3, r2
 2753 0022 DBB2     		uxtb	r3, r3
 2754 0024 0B70     		strb	r3, [r1]
1564:.\Generated_Source\PSoC5/CyLib.c ****                            (setting & CY_CLK_XMHZ_CFG0_XCFG_MASK);
1565:.\Generated_Source\PSoC5/CyLib.c **** }
 2755              		.loc 1 1565 0
ARM GAS  C:\Users\Rolando\AppData\Local\Temp\ccmqTZg9.s 			page 77


 2756 0026 0C37     		adds	r7, r7, #12
 2757              		.cfi_def_cfa_offset 4
 2758 0028 BD46     		mov	sp, r7
 2759              		.cfi_def_cfa_register 13
 2760              		@ sp needed
 2761 002a 5DF8047B 		ldr	r7, [sp], #4
 2762              		.cfi_restore 7
 2763              		.cfi_def_cfa_offset 0
 2764 002e 7047     		bx	lr
 2765              	.L207:
 2766              		.align	2
 2767              	.L206:
 2768 0030 12420040 		.word	1073758738
 2769              		.cfi_endproc
 2770              	.LFE36:
 2771              		.size	CyXTAL_SetStartup, .-CyXTAL_SetStartup
 2772              		.section	.text.CyXTAL_SetFbVoltage,"ax",%progbits
 2773              		.align	2
 2774              		.global	CyXTAL_SetFbVoltage
 2775              		.thumb
 2776              		.thumb_func
 2777              		.type	CyXTAL_SetFbVoltage, %function
 2778              	CyXTAL_SetFbVoltage:
 2779              	.LFB37:
1566:.\Generated_Source\PSoC5/CyLib.c **** 
1567:.\Generated_Source\PSoC5/CyLib.c **** 
1568:.\Generated_Source\PSoC5/CyLib.c **** 
1569:.\Generated_Source\PSoC5/CyLib.c **** /*******************************************************************************
1570:.\Generated_Source\PSoC5/CyLib.c **** * Function Name: CyXTAL_SetFbVoltage
1571:.\Generated_Source\PSoC5/CyLib.c **** ********************************************************************************
1572:.\Generated_Source\PSoC5/CyLib.c **** *
1573:.\Generated_Source\PSoC5/CyLib.c **** * Summary:
1574:.\Generated_Source\PSoC5/CyLib.c **** *  Sets the feedback reference voltage to use for the crystal circuit.
1575:.\Generated_Source\PSoC5/CyLib.c **** *  This function is only available for PSoC3 and PSoC 5LP.
1576:.\Generated_Source\PSoC5/CyLib.c **** *
1577:.\Generated_Source\PSoC5/CyLib.c **** * Parameters:
1578:.\Generated_Source\PSoC5/CyLib.c **** *  setting: Valid range [0-15].
1579:.\Generated_Source\PSoC5/CyLib.c **** *  Refer to the device TRM and datasheet for more information.
1580:.\Generated_Source\PSoC5/CyLib.c **** *
1581:.\Generated_Source\PSoC5/CyLib.c **** * Return:
1582:.\Generated_Source\PSoC5/CyLib.c **** *  None
1583:.\Generated_Source\PSoC5/CyLib.c **** *
1584:.\Generated_Source\PSoC5/CyLib.c **** *******************************************************************************/
1585:.\Generated_Source\PSoC5/CyLib.c **** void CyXTAL_SetFbVoltage(uint8 setting) 
1586:.\Generated_Source\PSoC5/CyLib.c **** {
 2780              		.loc 1 1586 0
 2781              		.cfi_startproc
 2782              		@ args = 0, pretend = 0, frame = 8
 2783              		@ frame_needed = 1, uses_anonymous_args = 0
 2784              		@ link register save eliminated.
 2785 0000 80B4     		push	{r7}
 2786              		.cfi_def_cfa_offset 4
 2787              		.cfi_offset 7, -4
 2788 0002 83B0     		sub	sp, sp, #12
 2789              		.cfi_def_cfa_offset 16
 2790 0004 00AF     		add	r7, sp, #0
 2791              		.cfi_def_cfa_register 7
ARM GAS  C:\Users\Rolando\AppData\Local\Temp\ccmqTZg9.s 			page 78


 2792 0006 0346     		mov	r3, r0
 2793 0008 FB71     		strb	r3, [r7, #7]
1587:.\Generated_Source\PSoC5/CyLib.c ****     CY_CLK_XMHZ_CFG1_REG = ((CY_CLK_XMHZ_CFG1_REG & ((uint8)(~CY_CLK_XMHZ_CFG1_VREF_FB_MASK))) |
 2794              		.loc 1 1587 0
 2795 000a 0949     		ldr	r1, .L209
 2796 000c 084B     		ldr	r3, .L209
 2797 000e 1B78     		ldrb	r3, [r3]
 2798 0010 DBB2     		uxtb	r3, r3
 2799 0012 23F00F03 		bic	r3, r3, #15
 2800 0016 DAB2     		uxtb	r2, r3
 2801 0018 FB79     		ldrb	r3, [r7, #7]
 2802 001a 03F00F03 		and	r3, r3, #15
 2803 001e DBB2     		uxtb	r3, r3
 2804 0020 1343     		orrs	r3, r3, r2
 2805 0022 DBB2     		uxtb	r3, r3
 2806 0024 0B70     		strb	r3, [r1]
1588:.\Generated_Source\PSoC5/CyLib.c ****                             (setting & CY_CLK_XMHZ_CFG1_VREF_FB_MASK));
1589:.\Generated_Source\PSoC5/CyLib.c **** }
 2807              		.loc 1 1589 0
 2808 0026 0C37     		adds	r7, r7, #12
 2809              		.cfi_def_cfa_offset 4
 2810 0028 BD46     		mov	sp, r7
 2811              		.cfi_def_cfa_register 13
 2812              		@ sp needed
 2813 002a 5DF8047B 		ldr	r7, [sp], #4
 2814              		.cfi_restore 7
 2815              		.cfi_def_cfa_offset 0
 2816 002e 7047     		bx	lr
 2817              	.L210:
 2818              		.align	2
 2819              	.L209:
 2820 0030 13420040 		.word	1073758739
 2821              		.cfi_endproc
 2822              	.LFE37:
 2823              		.size	CyXTAL_SetFbVoltage, .-CyXTAL_SetFbVoltage
 2824              		.section	.text.CyXTAL_SetWdVoltage,"ax",%progbits
 2825              		.align	2
 2826              		.global	CyXTAL_SetWdVoltage
 2827              		.thumb
 2828              		.thumb_func
 2829              		.type	CyXTAL_SetWdVoltage, %function
 2830              	CyXTAL_SetWdVoltage:
 2831              	.LFB38:
1590:.\Generated_Source\PSoC5/CyLib.c **** 
1591:.\Generated_Source\PSoC5/CyLib.c **** 
1592:.\Generated_Source\PSoC5/CyLib.c **** /*******************************************************************************
1593:.\Generated_Source\PSoC5/CyLib.c **** * Function Name: CyXTAL_SetWdVoltage
1594:.\Generated_Source\PSoC5/CyLib.c **** ********************************************************************************
1595:.\Generated_Source\PSoC5/CyLib.c **** *
1596:.\Generated_Source\PSoC5/CyLib.c **** * Summary:
1597:.\Generated_Source\PSoC5/CyLib.c **** *  Sets the reference voltage used by the watchdog to detect a failure in the
1598:.\Generated_Source\PSoC5/CyLib.c **** *  crystal circuit. This function is only available for PSoC3 and PSoC 5LP.
1599:.\Generated_Source\PSoC5/CyLib.c **** *
1600:.\Generated_Source\PSoC5/CyLib.c **** * Parameters:
1601:.\Generated_Source\PSoC5/CyLib.c **** *  setting: Valid range [0-7].
1602:.\Generated_Source\PSoC5/CyLib.c **** *  Refer to the device TRM and datasheet for more information.
1603:.\Generated_Source\PSoC5/CyLib.c **** *
ARM GAS  C:\Users\Rolando\AppData\Local\Temp\ccmqTZg9.s 			page 79


1604:.\Generated_Source\PSoC5/CyLib.c **** * Return:
1605:.\Generated_Source\PSoC5/CyLib.c **** *  None
1606:.\Generated_Source\PSoC5/CyLib.c **** *
1607:.\Generated_Source\PSoC5/CyLib.c **** *******************************************************************************/
1608:.\Generated_Source\PSoC5/CyLib.c **** void CyXTAL_SetWdVoltage(uint8 setting) 
1609:.\Generated_Source\PSoC5/CyLib.c **** {
 2832              		.loc 1 1609 0
 2833              		.cfi_startproc
 2834              		@ args = 0, pretend = 0, frame = 8
 2835              		@ frame_needed = 1, uses_anonymous_args = 0
 2836              		@ link register save eliminated.
 2837 0000 80B4     		push	{r7}
 2838              		.cfi_def_cfa_offset 4
 2839              		.cfi_offset 7, -4
 2840 0002 83B0     		sub	sp, sp, #12
 2841              		.cfi_def_cfa_offset 16
 2842 0004 00AF     		add	r7, sp, #0
 2843              		.cfi_def_cfa_register 7
 2844 0006 0346     		mov	r3, r0
 2845 0008 FB71     		strb	r3, [r7, #7]
1610:.\Generated_Source\PSoC5/CyLib.c ****     CY_CLK_XMHZ_CFG1_REG = ((CY_CLK_XMHZ_CFG1_REG & ((uint8)(~CY_CLK_XMHZ_CFG1_VREF_WD_MASK))) |
 2846              		.loc 1 1610 0
 2847 000a 0A49     		ldr	r1, .L212
 2848 000c 094B     		ldr	r3, .L212
 2849 000e 1B78     		ldrb	r3, [r3]
 2850 0010 DBB2     		uxtb	r3, r3
 2851 0012 23F07003 		bic	r3, r3, #112
 2852 0016 DAB2     		uxtb	r2, r3
1611:.\Generated_Source\PSoC5/CyLib.c ****                             (((uint8)(setting << 4u)) & CY_CLK_XMHZ_CFG1_VREF_WD_MASK));
 2853              		.loc 1 1611 0
 2854 0018 FB79     		ldrb	r3, [r7, #7]
 2855 001a 1B01     		lsls	r3, r3, #4
 2856 001c DBB2     		uxtb	r3, r3
1610:.\Generated_Source\PSoC5/CyLib.c ****     CY_CLK_XMHZ_CFG1_REG = ((CY_CLK_XMHZ_CFG1_REG & ((uint8)(~CY_CLK_XMHZ_CFG1_VREF_WD_MASK))) |
 2857              		.loc 1 1610 0
 2858 001e 03F07003 		and	r3, r3, #112
 2859 0022 DBB2     		uxtb	r3, r3
 2860 0024 1343     		orrs	r3, r3, r2
 2861 0026 DBB2     		uxtb	r3, r3
 2862 0028 0B70     		strb	r3, [r1]
1612:.\Generated_Source\PSoC5/CyLib.c **** }
 2863              		.loc 1 1612 0
 2864 002a 0C37     		adds	r7, r7, #12
 2865              		.cfi_def_cfa_offset 4
 2866 002c BD46     		mov	sp, r7
 2867              		.cfi_def_cfa_register 13
 2868              		@ sp needed
 2869 002e 5DF8047B 		ldr	r7, [sp], #4
 2870              		.cfi_restore 7
 2871              		.cfi_def_cfa_offset 0
 2872 0032 7047     		bx	lr
 2873              	.L213:
 2874              		.align	2
 2875              	.L212:
 2876 0034 13420040 		.word	1073758739
 2877              		.cfi_endproc
 2878              	.LFE38:
ARM GAS  C:\Users\Rolando\AppData\Local\Temp\ccmqTZg9.s 			page 80


 2879              		.size	CyXTAL_SetWdVoltage, .-CyXTAL_SetWdVoltage
 2880              		.section	.text.CyHalt,"ax",%progbits
 2881              		.align	2
 2882              		.global	CyHalt
 2883              		.thumb
 2884              		.thumb_func
 2885              		.type	CyHalt, %function
 2886              	CyHalt:
 2887              	.LFB39:
1613:.\Generated_Source\PSoC5/CyLib.c **** 
1614:.\Generated_Source\PSoC5/CyLib.c **** 
1615:.\Generated_Source\PSoC5/CyLib.c **** /*******************************************************************************
1616:.\Generated_Source\PSoC5/CyLib.c **** * Function Name: CyHalt
1617:.\Generated_Source\PSoC5/CyLib.c **** ********************************************************************************
1618:.\Generated_Source\PSoC5/CyLib.c **** *
1619:.\Generated_Source\PSoC5/CyLib.c **** * Summary:
1620:.\Generated_Source\PSoC5/CyLib.c **** *  Halts the CPU.
1621:.\Generated_Source\PSoC5/CyLib.c **** *
1622:.\Generated_Source\PSoC5/CyLib.c **** * Parameters:
1623:.\Generated_Source\PSoC5/CyLib.c **** *  uint8 reason: Value to be used during debugging.
1624:.\Generated_Source\PSoC5/CyLib.c **** *
1625:.\Generated_Source\PSoC5/CyLib.c **** * Return:
1626:.\Generated_Source\PSoC5/CyLib.c **** *  None
1627:.\Generated_Source\PSoC5/CyLib.c **** *
1628:.\Generated_Source\PSoC5/CyLib.c **** *******************************************************************************/
1629:.\Generated_Source\PSoC5/CyLib.c **** void CyHalt(uint8 reason) CYREENTRANT
1630:.\Generated_Source\PSoC5/CyLib.c **** {
 2888              		.loc 1 1630 0
 2889              		.cfi_startproc
 2890              		@ args = 0, pretend = 0, frame = 8
 2891              		@ frame_needed = 1, uses_anonymous_args = 0
 2892              		@ link register save eliminated.
 2893 0000 80B4     		push	{r7}
 2894              		.cfi_def_cfa_offset 4
 2895              		.cfi_offset 7, -4
 2896 0002 83B0     		sub	sp, sp, #12
 2897              		.cfi_def_cfa_offset 16
 2898 0004 00AF     		add	r7, sp, #0
 2899              		.cfi_def_cfa_register 7
 2900 0006 0346     		mov	r3, r0
 2901 0008 FB71     		strb	r3, [r7, #7]
1631:.\Generated_Source\PSoC5/CyLib.c ****     if(0u != reason)
1632:.\Generated_Source\PSoC5/CyLib.c ****     {
1633:.\Generated_Source\PSoC5/CyLib.c ****         /* To remove unreferenced local variable warning */
1634:.\Generated_Source\PSoC5/CyLib.c ****     }
1635:.\Generated_Source\PSoC5/CyLib.c **** 
1636:.\Generated_Source\PSoC5/CyLib.c ****     #if defined (__ARMCC_VERSION)
1637:.\Generated_Source\PSoC5/CyLib.c ****         __breakpoint(0x0);
1638:.\Generated_Source\PSoC5/CyLib.c ****     #elif defined(__GNUC__) || defined (__ICCARM__)
1639:.\Generated_Source\PSoC5/CyLib.c ****         __asm("    bkpt    1");
 2902              		.loc 1 1639 0
 2903              	@ 1639 ".\Generated_Source\PSoC5\CyLib.c" 1
 2904 000a 01BE     		    bkpt    1
 2905              	@ 0 "" 2
1640:.\Generated_Source\PSoC5/CyLib.c ****     #elif defined(__C51__)
1641:.\Generated_Source\PSoC5/CyLib.c ****         CYDEV_HALT_CPU;
1642:.\Generated_Source\PSoC5/CyLib.c ****     #endif  /* (__ARMCC_VERSION) */
ARM GAS  C:\Users\Rolando\AppData\Local\Temp\ccmqTZg9.s 			page 81


1643:.\Generated_Source\PSoC5/CyLib.c **** }
 2906              		.loc 1 1643 0
 2907              		.thumb
 2908 000c 0C37     		adds	r7, r7, #12
 2909              		.cfi_def_cfa_offset 4
 2910 000e BD46     		mov	sp, r7
 2911              		.cfi_def_cfa_register 13
 2912              		@ sp needed
 2913 0010 5DF8047B 		ldr	r7, [sp], #4
 2914              		.cfi_restore 7
 2915              		.cfi_def_cfa_offset 0
 2916 0014 7047     		bx	lr
 2917              		.cfi_endproc
 2918              	.LFE39:
 2919              		.size	CyHalt, .-CyHalt
 2920 0016 00BF     		.section	.text.CySoftwareReset,"ax",%progbits
 2921              		.align	2
 2922              		.global	CySoftwareReset
 2923              		.thumb
 2924              		.thumb_func
 2925              		.type	CySoftwareReset, %function
 2926              	CySoftwareReset:
 2927              	.LFB40:
1644:.\Generated_Source\PSoC5/CyLib.c **** 
1645:.\Generated_Source\PSoC5/CyLib.c **** 
1646:.\Generated_Source\PSoC5/CyLib.c **** /*******************************************************************************
1647:.\Generated_Source\PSoC5/CyLib.c **** * Function Name: CySoftwareReset
1648:.\Generated_Source\PSoC5/CyLib.c **** ********************************************************************************
1649:.\Generated_Source\PSoC5/CyLib.c **** *
1650:.\Generated_Source\PSoC5/CyLib.c **** * Summary:
1651:.\Generated_Source\PSoC5/CyLib.c **** *  Forces a software reset of the device.
1652:.\Generated_Source\PSoC5/CyLib.c **** *
1653:.\Generated_Source\PSoC5/CyLib.c **** * Parameters:
1654:.\Generated_Source\PSoC5/CyLib.c **** *  None
1655:.\Generated_Source\PSoC5/CyLib.c **** *
1656:.\Generated_Source\PSoC5/CyLib.c **** * Return:
1657:.\Generated_Source\PSoC5/CyLib.c **** *  None
1658:.\Generated_Source\PSoC5/CyLib.c **** *
1659:.\Generated_Source\PSoC5/CyLib.c **** *******************************************************************************/
1660:.\Generated_Source\PSoC5/CyLib.c **** void CySoftwareReset(void) 
1661:.\Generated_Source\PSoC5/CyLib.c **** {
 2928              		.loc 1 1661 0
 2929              		.cfi_startproc
 2930              		@ args = 0, pretend = 0, frame = 0
 2931              		@ frame_needed = 1, uses_anonymous_args = 0
 2932              		@ link register save eliminated.
 2933 0000 80B4     		push	{r7}
 2934              		.cfi_def_cfa_offset 4
 2935              		.cfi_offset 7, -4
 2936 0002 00AF     		add	r7, sp, #0
 2937              		.cfi_def_cfa_register 7
1662:.\Generated_Source\PSoC5/CyLib.c ****     CY_LIB_RESET_CR2_REG |= CY_LIB_RESET_CR2_RESET;
 2938              		.loc 1 1662 0
 2939 0004 054A     		ldr	r2, .L216
 2940 0006 054B     		ldr	r3, .L216
 2941 0008 1B78     		ldrb	r3, [r3]
 2942 000a DBB2     		uxtb	r3, r3
ARM GAS  C:\Users\Rolando\AppData\Local\Temp\ccmqTZg9.s 			page 82


 2943 000c 43F00103 		orr	r3, r3, #1
 2944 0010 DBB2     		uxtb	r3, r3
 2945 0012 1370     		strb	r3, [r2]
1663:.\Generated_Source\PSoC5/CyLib.c **** }
 2946              		.loc 1 1663 0
 2947 0014 BD46     		mov	sp, r7
 2948              		.cfi_def_cfa_register 13
 2949              		@ sp needed
 2950 0016 5DF8047B 		ldr	r7, [sp], #4
 2951              		.cfi_restore 7
 2952              		.cfi_def_cfa_offset 0
 2953 001a 7047     		bx	lr
 2954              	.L217:
 2955              		.align	2
 2956              	.L216:
 2957 001c F6460040 		.word	1073759990
 2958              		.cfi_endproc
 2959              	.LFE40:
 2960              		.size	CySoftwareReset, .-CySoftwareReset
 2961              		.section	.text.CyDelay,"ax",%progbits
 2962              		.align	2
 2963              		.global	CyDelay
 2964              		.thumb
 2965              		.thumb_func
 2966              		.type	CyDelay, %function
 2967              	CyDelay:
 2968              	.LFB41:
1664:.\Generated_Source\PSoC5/CyLib.c **** 
1665:.\Generated_Source\PSoC5/CyLib.c **** 
1666:.\Generated_Source\PSoC5/CyLib.c **** /*******************************************************************************
1667:.\Generated_Source\PSoC5/CyLib.c **** * Function Name: CyDelay
1668:.\Generated_Source\PSoC5/CyLib.c **** ********************************************************************************
1669:.\Generated_Source\PSoC5/CyLib.c **** *
1670:.\Generated_Source\PSoC5/CyLib.c **** * Summary:
1671:.\Generated_Source\PSoC5/CyLib.c **** *  Blocks for milliseconds.
1672:.\Generated_Source\PSoC5/CyLib.c **** *
1673:.\Generated_Source\PSoC5/CyLib.c **** *  Note:
1674:.\Generated_Source\PSoC5/CyLib.c **** *  CyDelay has been implemented with the instruction cache assumed enabled. When
1675:.\Generated_Source\PSoC5/CyLib.c **** *  instruction cache is disabled on PSoC5, CyDelay will be two times larger. For
1676:.\Generated_Source\PSoC5/CyLib.c **** *  example, with instruction cache disabled CyDelay(100) would result in about
1677:.\Generated_Source\PSoC5/CyLib.c **** *  200 ms delay instead of 100 ms.
1678:.\Generated_Source\PSoC5/CyLib.c **** *
1679:.\Generated_Source\PSoC5/CyLib.c **** * Parameters:
1680:.\Generated_Source\PSoC5/CyLib.c **** *  milliseconds: number of milliseconds to delay.
1681:.\Generated_Source\PSoC5/CyLib.c **** *
1682:.\Generated_Source\PSoC5/CyLib.c **** * Return:
1683:.\Generated_Source\PSoC5/CyLib.c **** *   None
1684:.\Generated_Source\PSoC5/CyLib.c **** *
1685:.\Generated_Source\PSoC5/CyLib.c **** *******************************************************************************/
1686:.\Generated_Source\PSoC5/CyLib.c **** void CyDelay(uint32 milliseconds) CYREENTRANT
1687:.\Generated_Source\PSoC5/CyLib.c **** {
 2969              		.loc 1 1687 0
 2970              		.cfi_startproc
 2971              		@ args = 0, pretend = 0, frame = 8
 2972              		@ frame_needed = 1, uses_anonymous_args = 0
 2973 0000 80B5     		push	{r7, lr}
 2974              		.cfi_def_cfa_offset 8
ARM GAS  C:\Users\Rolando\AppData\Local\Temp\ccmqTZg9.s 			page 83


 2975              		.cfi_offset 7, -8
 2976              		.cfi_offset 14, -4
 2977 0002 82B0     		sub	sp, sp, #8
 2978              		.cfi_def_cfa_offset 16
 2979 0004 00AF     		add	r7, sp, #0
 2980              		.cfi_def_cfa_register 7
 2981 0006 7860     		str	r0, [r7, #4]
1688:.\Generated_Source\PSoC5/CyLib.c ****     while (milliseconds > 32768u)
 2982              		.loc 1 1688 0
 2983 0008 08E0     		b	.L219
 2984              	.L220:
1689:.\Generated_Source\PSoC5/CyLib.c ****     {
1690:.\Generated_Source\PSoC5/CyLib.c ****         /***********************************************************************
1691:.\Generated_Source\PSoC5/CyLib.c ****         * This loop prevents overflow.At 100MHz, milliseconds * delay_freq_khz
1692:.\Generated_Source\PSoC5/CyLib.c ****         * overflows at about 42 seconds.
1693:.\Generated_Source\PSoC5/CyLib.c ****         ***********************************************************************/
1694:.\Generated_Source\PSoC5/CyLib.c ****         CyDelayCycles(cydelay_32k_ms);
 2985              		.loc 1 1694 0
 2986 000a 0C4B     		ldr	r3, .L221
 2987 000c 1B68     		ldr	r3, [r3]
 2988 000e 1846     		mov	r0, r3
 2989 0010 FFF7FEFF 		bl	CyDelayCycles
1695:.\Generated_Source\PSoC5/CyLib.c ****         milliseconds = ((uint32)(milliseconds - 32768u));
 2990              		.loc 1 1695 0
 2991 0014 7B68     		ldr	r3, [r7, #4]
 2992 0016 A3F50043 		sub	r3, r3, #32768
 2993 001a 7B60     		str	r3, [r7, #4]
 2994              	.L219:
1688:.\Generated_Source\PSoC5/CyLib.c ****     while (milliseconds > 32768u)
 2995              		.loc 1 1688 0
 2996 001c 7B68     		ldr	r3, [r7, #4]
 2997 001e B3F5004F 		cmp	r3, #32768
 2998 0022 F2D8     		bhi	.L220
1696:.\Generated_Source\PSoC5/CyLib.c ****     }
1697:.\Generated_Source\PSoC5/CyLib.c **** 
1698:.\Generated_Source\PSoC5/CyLib.c ****     CyDelayCycles(milliseconds * cydelay_freq_khz);
 2999              		.loc 1 1698 0
 3000 0024 064B     		ldr	r3, .L221+4
 3001 0026 1B68     		ldr	r3, [r3]
 3002 0028 7A68     		ldr	r2, [r7, #4]
 3003 002a 02FB03F3 		mul	r3, r2, r3
 3004 002e 1846     		mov	r0, r3
 3005 0030 FFF7FEFF 		bl	CyDelayCycles
1699:.\Generated_Source\PSoC5/CyLib.c **** }
 3006              		.loc 1 1699 0
 3007 0034 0837     		adds	r7, r7, #8
 3008              		.cfi_def_cfa_offset 8
 3009 0036 BD46     		mov	sp, r7
 3010              		.cfi_def_cfa_register 13
 3011              		@ sp needed
 3012 0038 80BD     		pop	{r7, pc}
 3013              	.L222:
 3014 003a 00BF     		.align	2
 3015              	.L221:
 3016 003c 00000000 		.word	cydelay_32k_ms
 3017 0040 00000000 		.word	cydelay_freq_khz
 3018              		.cfi_endproc
ARM GAS  C:\Users\Rolando\AppData\Local\Temp\ccmqTZg9.s 			page 84


 3019              	.LFE41:
 3020              		.size	CyDelay, .-CyDelay
 3021              		.section	.text.CyDelayUs,"ax",%progbits
 3022              		.align	2
 3023              		.global	CyDelayUs
 3024              		.thumb
 3025              		.thumb_func
 3026              		.type	CyDelayUs, %function
 3027              	CyDelayUs:
 3028              	.LFB42:
1700:.\Generated_Source\PSoC5/CyLib.c **** 
1701:.\Generated_Source\PSoC5/CyLib.c **** 
1702:.\Generated_Source\PSoC5/CyLib.c **** #if(!CY_PSOC3)
1703:.\Generated_Source\PSoC5/CyLib.c **** 
1704:.\Generated_Source\PSoC5/CyLib.c ****     /* For PSoC3 devices function is defined in CyBootAsmKeil.a51 file */
1705:.\Generated_Source\PSoC5/CyLib.c **** 
1706:.\Generated_Source\PSoC5/CyLib.c ****     /*******************************************************************************
1707:.\Generated_Source\PSoC5/CyLib.c ****     * Function Name: CyDelayUs
1708:.\Generated_Source\PSoC5/CyLib.c ****     ********************************************************************************
1709:.\Generated_Source\PSoC5/CyLib.c ****     *
1710:.\Generated_Source\PSoC5/CyLib.c ****     * Summary:
1711:.\Generated_Source\PSoC5/CyLib.c ****     *  Blocks for microseconds.
1712:.\Generated_Source\PSoC5/CyLib.c ****     *
1713:.\Generated_Source\PSoC5/CyLib.c ****     *  Note:
1714:.\Generated_Source\PSoC5/CyLib.c ****     *   CyDelay has been implemented with the instruction cache assumed enabled.
1715:.\Generated_Source\PSoC5/CyLib.c ****     *   When instruction cache is disabled on PSoC5, CyDelayUs will be two times
1716:.\Generated_Source\PSoC5/CyLib.c ****     *   larger. Ex: With instruction cache disabled CyDelayUs(100) would result
1717:.\Generated_Source\PSoC5/CyLib.c ****     *   in about 200us delay instead of 100us.
1718:.\Generated_Source\PSoC5/CyLib.c ****     *
1719:.\Generated_Source\PSoC5/CyLib.c ****     * Parameters:
1720:.\Generated_Source\PSoC5/CyLib.c ****     *  uint16 microseconds: number of microseconds to delay.
1721:.\Generated_Source\PSoC5/CyLib.c ****     *
