ARM GAS  C:\Users\Rolando\AppData\Local\Temp\ccex61rT.s 			page 1


   1              		.syntax unified
   2              		.cpu cortex-m3
   3              		.fpu softvfp
   4              		.eabi_attribute 20, 1
   5              		.eabi_attribute 21, 1
   6              		.eabi_attribute 23, 3
   7              		.eabi_attribute 24, 1
   8              		.eabi_attribute 25, 1
   9              		.eabi_attribute 26, 1
  10              		.eabi_attribute 30, 6
  11              		.eabi_attribute 34, 1
  12              		.eabi_attribute 18, 4
  13              		.thumb
  14              		.file	"main.c"
  15              		.text
  16              	.Ltext0:
  17              		.cfi_sections	.debug_frame
  18              		.section	.rodata
  19              		.align	2
  20              	.LC0:
  21 0000 41444320 		.ascii	"ADC input volt\000"
  21      696E7075 
  21      7420766F 
  21      6C7400
  22 000f 00       		.align	2
  23              	.LC1:
  24 0010 20202020 		.ascii	"    %4ld mV\000"
  24      25346C64 
  24      206D5600 
  25              		.section	.text.main,"ax",%progbits
  26              		.align	2
  27              		.global	main
  28              		.thumb
  29              		.thumb_func
  30              		.type	main, %function
  31              	main:
  32              	.LFB56:
  33              		.file 1 ".\\main.c"
   1:.\main.c      **** /******************************************************************************
   2:.\main.c      **** * File Name: Main.c
   3:.\main.c      **** *
   4:.\main.c      **** * Version 1.1
   5:.\main.c      **** *
   6:.\main.c      **** * Description:
   7:.\main.c      **** * This file contains the main function for the voltage Display test.
   8:.\main.c      **** *
   9:.\main.c      **** * Note:
  10:.\main.c      **** *
  11:.\main.c      **** * Code tested with:
  12:.\main.c      **** * PSoC Creator: 3.0
  13:.\main.c      **** * Device Tested With: CY8C5868AXI-LP035
  14:.\main.c      **** * Compiler    : ARMGCC 4.4.1, ARM RVDS Generic, ARM MDK Generic
  15:.\main.c      **** *
  16:.\main.c      **** ********************************************************************************
  17:.\main.c      **** * Copyright (2013), Cypress Semiconductor Corporation. All Rights Reserved.
  18:.\main.c      **** ********************************************************************************
  19:.\main.c      **** * This software is owned by Cypress Semiconductor Corporation (Cypress)
ARM GAS  C:\Users\Rolando\AppData\Local\Temp\ccex61rT.s 			page 2


  20:.\main.c      **** * and is protected by and subject to worldwide patent protection (United
  21:.\main.c      **** * States and foreign), United States copyright laws and international treaty
  22:.\main.c      **** * provisions. Cypress hereby grants to licensee a personal, non-exclusive,
  23:.\main.c      **** * non-transferable license to copy, use, modify, create derivative works of,
  24:.\main.c      **** * and compile the Cypress Source Code and derivative works for the sole
  25:.\main.c      **** * purpose of creating custom software in support of licensee product to be
  26:.\main.c      **** * used only in conjunction with a Cypress integrated circuit as specified in
  27:.\main.c      **** * the applicable agreement. Any reproduction, modification, translation,
  28:.\main.c      **** * compilation, or representation of this software except as specified above 
  29:.\main.c      **** * is prohibited without the express written permission of Cypress.
  30:.\main.c      **** *
  31:.\main.c      **** * Disclaimer: CYPRESS MAKES NO WARRANTY OF ANY KIND, EXPRESS OR IMPLIED, WITH 
  32:.\main.c      **** * REGARD TO THIS MATERIAL, INCLUDING, BUT NOT LIMITED TO, THE IMPLIED 
  33:.\main.c      **** * WARRANTIES OF MERCHANTABILITY AND FITNESS FOR A PARTICULAR PURPOSE.
  34:.\main.c      **** * Cypress reserves the right to make changes without further notice to the 
  35:.\main.c      **** * materials described herein. Cypress does not assume any liability arising out 
  36:.\main.c      **** * of the application or use of any product or circuit described herein. Cypress 
  37:.\main.c      **** * does not authorize its products for use as critical components in life-support 
  38:.\main.c      **** * systems where a malfunction or failure may reasonably be expected to result in 
  39:.\main.c      **** * significant injury to the user. The inclusion of Cypress' product in a life-
  40:.\main.c      **** * support systems application implies that the manufacturer assumes all risk of 
  41:.\main.c      **** * such use and in doing so indemnifies Cypress against all charges. 
  42:.\main.c      **** *
  43:.\main.c      **** * Use of this Software may be limited by and subject to the applicable Cypress
  44:.\main.c      **** * software license agreement. 
  45:.\main.c      **** *******************************************************************************/
  46:.\main.c      **** 
  47:.\main.c      **** /******************************************************************************
  48:.\main.c      **** *                           THEORY OF OPERATION
  49:.\main.c      **** * This project demonstrates how ADC is used to read the input voltage at 
  50:.\main.c      **** * it's input and display it on the LCD.
  51:.\main.c      **** * 
  52:.\main.c      **** * The Potentiometer is connected to the input of the SAR ADC. ADC is 
  53:.\main.c      **** * configured with 12 bit of resolution to measure the input voltage with 
  54:.\main.c      **** * higher accuracy. ADC count is converted back to micro volts and 8 samples are 
  55:.\main.c      **** * collected. After that the average of 8 samples is calculated and displayed
  56:.\main.c      **** * on the LCD. 
  57:.\main.c      **** *
  58:.\main.c      **** * Hardware connection on the Kit
  59:.\main.c      **** * Potentiometer - PORT 6[5] 
  60:.\main.c      **** * LCD - PORT 2[0..6]
  61:.\main.c      **** *******************************************************************************/
  62:.\main.c      **** #include <device.h>
  63:.\main.c      **** #include "stdio.h"
  64:.\main.c      **** 
  65:.\main.c      **** #define MAX_SAMPLE                  8
  66:.\main.c      **** 
  67:.\main.c      **** int main(void)
  68:.\main.c      **** {
  34              		.loc 1 68 0
  35              		.cfi_startproc
  36              		@ args = 0, pretend = 0, frame = 32
  37              		@ frame_needed = 1, uses_anonymous_args = 0
  38 0000 80B5     		push	{r7, lr}
  39              		.cfi_def_cfa_offset 8
  40              		.cfi_offset 7, -8
  41              		.cfi_offset 14, -4
ARM GAS  C:\Users\Rolando\AppData\Local\Temp\ccex61rT.s 			page 3


  42 0002 88B0     		sub	sp, sp, #32
  43              		.cfi_def_cfa_offset 40
  44 0004 00AF     		add	r7, sp, #0
  45              		.cfi_def_cfa_register 7
  69:.\main.c      ****     /* Variable to hold ADC count */
  70:.\main.c      ****     int32 voltCount = 0;
  46              		.loc 1 70 0
  47 0006 0023     		movs	r3, #0
  48 0008 7B61     		str	r3, [r7, #20]
  71:.\main.c      ****     
  72:.\main.c      ****     /* Variable to hold the result in millivolts converted from ADC counts */
  73:.\main.c      **** 
  74:.\main.c      ****     /* Variable to count number of samples collected from ADC */
  75:.\main.c      ****     uint8 sampleCount = 0;
  49              		.loc 1 75 0
  50 000a 0023     		movs	r3, #0
  51 000c FB77     		strb	r3, [r7, #31]
  76:.\main.c      **** 	
  77:.\main.c      ****     /* Variable to hold cumulative samples */
  78:.\main.c      ****     int32 voltSamples = 0;
  52              		.loc 1 78 0
  53 000e 0023     		movs	r3, #0
  54 0010 BB61     		str	r3, [r7, #24]
  79:.\main.c      **** 	
  80:.\main.c      ****     /* Variable to hold the average volts for 8 samples */
  81:.\main.c      ****     uint32 averageVolts = 0;
  55              		.loc 1 81 0
  56 0012 0023     		movs	r3, #0
  57 0014 3B61     		str	r3, [r7, #16]
  82:.\main.c      **** 	
  83:.\main.c      ****     /* Character array to hold the micro volts*/
  84:.\main.c      ****     char displayStr[15] = {'\0'};
  58              		.loc 1 84 0
  59 0016 3B46     		mov	r3, r7
  60 0018 0022     		movs	r2, #0
  61 001a 1A60     		str	r2, [r3]
  62 001c 0433     		adds	r3, r3, #4
  63 001e 0022     		movs	r2, #0
  64 0020 1A60     		str	r2, [r3]
  65 0022 0433     		adds	r3, r3, #4
  66 0024 0022     		movs	r2, #0
  67 0026 1A60     		str	r2, [r3]
  68 0028 0433     		adds	r3, r3, #4
  69 002a 0022     		movs	r2, #0
  70 002c 1A80     		strh	r2, [r3]	@ movhi
  71 002e 0233     		adds	r3, r3, #2
  72 0030 0022     		movs	r2, #0
  73 0032 1A70     		strb	r2, [r3]
  74 0034 0133     		adds	r3, r3, #1
  85:.\main.c      ****     
  86:.\main.c      ****     CYGlobalIntEnable;
  75              		.loc 1 86 0
  76              	@ 86 ".\main.c" 1
  77 0036 62B6     		CPSIE   i
  78              	@ 0 "" 2
  87:.\main.c      ****     
  88:.\main.c      ****     clock_1_Enable();    
ARM GAS  C:\Users\Rolando\AppData\Local\Temp\ccex61rT.s 			page 4


  79              		.loc 1 88 0
  80              		.thumb
  81 0038 FFF7FEFF 		bl	clock_1_Start
  89:.\main.c      ****     
  90:.\main.c      ****     PWM_1_Start(); 
  82              		.loc 1 90 0
  83 003c FFF7FEFF 		bl	PWM_1_Start
  91:.\main.c      ****     
  92:.\main.c      ****     /* Start ADC and start conversion */
  93:.\main.c      ****     ADC_Start();
  84              		.loc 1 93 0
  85 0040 FFF7FEFF 		bl	ADC_Start
  94:.\main.c      ****     ADC_StartConvert();
  86              		.loc 1 94 0
  87 0044 FFF7FEFF 		bl	ADC_StartConvert
  95:.\main.c      **** 
  96:.\main.c      ****     /* Start LCD and set position */
  97:.\main.c      ****     LCD_Start();
  88              		.loc 1 97 0
  89 0048 FFF7FEFF 		bl	LCD_Start
  98:.\main.c      ****     LCD_Position(0,1);
  90              		.loc 1 98 0
  91 004c 0020     		movs	r0, #0
  92 004e 0121     		movs	r1, #1
  93 0050 FFF7FEFF 		bl	LCD_Position
  99:.\main.c      ****     LCD_PrintString("ADC input volt");
  94              		.loc 1 99 0
  95 0054 1748     		ldr	r0, .L4
  96 0056 FFF7FEFF 		bl	LCD_PrintString
  97              	.L3:
 100:.\main.c      ****     
 101:.\main.c      **** //    uint8 PWM_V =0x00u;
 102:.\main.c      **** //    Control_Reg_1_Write(0x0Fu);
 103:.\main.c      ****     //PWM_1_WritePeriod(0x01u);
 104:.\main.c      ****     while(1)
 105:.\main.c      ****     {
 106:.\main.c      ****         /* Read ADC count and convert to milli volts */
 107:.\main.c      ****         ADC_IsEndConversion(ADC_WAIT_FOR_RESULT);
  98              		.loc 1 107 0
  99 005a 0020     		movs	r0, #0
 100 005c FFF7FEFF 		bl	ADC_IsEndConversion
 108:.\main.c      ****         voltCount = ADC_GetResult16();
 101              		.loc 1 108 0
 102 0060 FFF7FEFF 		bl	ADC_GetResult16
 103 0064 0346     		mov	r3, r0
 104 0066 7B61     		str	r3, [r7, #20]
 109:.\main.c      **** //        mVolts = ADC_CountsTo_mVolts(voltCount);
 110:.\main.c      **** //        
 111:.\main.c      ****         /* Add the current ADC reading to the cumulated samples*/
 112:.\main.c      ****         voltSamples = voltSamples + voltCount;
 105              		.loc 1 112 0
 106 0068 BA69     		ldr	r2, [r7, #24]
 107 006a 7B69     		ldr	r3, [r7, #20]
 108 006c 1344     		add	r3, r3, r2
 109 006e BB61     		str	r3, [r7, #24]
 113:.\main.c      **** 
 114:.\main.c      ****         sampleCount++;
ARM GAS  C:\Users\Rolando\AppData\Local\Temp\ccex61rT.s 			page 5


 110              		.loc 1 114 0
 111 0070 FB7F     		ldrb	r3, [r7, #31]	@ zero_extendqisi2
 112 0072 0133     		adds	r3, r3, #1
 113 0074 FB77     		strb	r3, [r7, #31]
 115:.\main.c      **** 
 116:.\main.c      ****         /* If 8 samples have been collected then average the samples and update the display*/
 117:.\main.c      ****         if(sampleCount == MAX_SAMPLE)
 114              		.loc 1 117 0
 115 0076 FB7F     		ldrb	r3, [r7, #31]	@ zero_extendqisi2
 116 0078 082B     		cmp	r3, #8
 117 007a 19D1     		bne	.L2
 118:.\main.c      ****         {
 119:.\main.c      ****             averageVolts = voltSamples >> 3;
 118              		.loc 1 119 0
 119 007c BB69     		ldr	r3, [r7, #24]
 120 007e DB10     		asrs	r3, r3, #3
 121 0080 3B61     		str	r3, [r7, #16]
 120:.\main.c      ****             voltSamples = 0;
 122              		.loc 1 120 0
 123 0082 0023     		movs	r3, #0
 124 0084 BB61     		str	r3, [r7, #24]
 121:.\main.c      ****             sampleCount = 0;
 125              		.loc 1 121 0
 126 0086 0023     		movs	r3, #0
 127 0088 FB77     		strb	r3, [r7, #31]
 122:.\main.c      **** 
 123:.\main.c      ****             /* Convert milli volts to string and display on the LCD. sprintf()
 124:.\main.c      ****             *  function is standard library function defined in the stdio.h 
 125:.\main.c      ****             *  header file */
 126:.\main.c      **** //            PWM_V = averageVolts;
 127:.\main.c      ****             sprintf(displayStr,"    %4ld mV",averageVolts);
 128              		.loc 1 127 0
 129 008a 3B46     		mov	r3, r7
 130 008c 1846     		mov	r0, r3
 131 008e 0A49     		ldr	r1, .L4+4
 132 0090 3A69     		ldr	r2, [r7, #16]
 133 0092 FFF7FEFF 		bl	sprintf
 128:.\main.c      ****             PWM_1_WriteCompare(averageVolts);
 134              		.loc 1 128 0
 135 0096 3B69     		ldr	r3, [r7, #16]
 136 0098 DBB2     		uxtb	r3, r3
 137 009a 1846     		mov	r0, r3
 138 009c FFF7FEFF 		bl	PWM_1_WriteCompare
 129:.\main.c      **** //            Control_Reg_1_Write(PWM_V);
 130:.\main.c      ****             LCD_Position(1,0);
 139              		.loc 1 130 0
 140 00a0 0120     		movs	r0, #1
 141 00a2 0021     		movs	r1, #0
 142 00a4 FFF7FEFF 		bl	LCD_Position
 131:.\main.c      ****             LCD_PrintString(displayStr);
 143              		.loc 1 131 0
 144 00a8 3B46     		mov	r3, r7
 145 00aa 1846     		mov	r0, r3
 146 00ac FFF7FEFF 		bl	LCD_PrintString
 147              	.L2:
 132:.\main.c      ****         }	
 133:.\main.c      ****     }
ARM GAS  C:\Users\Rolando\AppData\Local\Temp\ccex61rT.s 			page 6


 148              		.loc 1 133 0
 149 00b0 D3E7     		b	.L3
 150              	.L5:
 151 00b2 00BF     		.align	2
 152              	.L4:
 153 00b4 00000000 		.word	.LC0
 154 00b8 10000000 		.word	.LC1
 155              		.cfi_endproc
 156              	.LFE56:
 157              		.size	main, .-main
 158              		.text
 159              	.Letext0:
 160              		.file 2 "c:\\program files (x86)\\cypress\\psoc creator\\3.3\\psoc creator\\import\\gnu\\arm\\4.9.
 161              		.file 3 "c:\\program files (x86)\\cypress\\psoc creator\\3.3\\psoc creator\\import\\gnu\\arm\\4.9.
 162              		.file 4 "Generated_Source\\PSoC5/cytypes.h"
 163              		.file 5 "Generated_Source\\PSoC5/core_cm3.h"