ARM GAS  C:\Users\Rolando\AppData\Local\Temp\ccqnczYj.s 			page 1


   1              		.syntax unified
   2              		.cpu cortex-m3
   3              		.fpu softvfp
   4              		.eabi_attribute 20, 1
   5              		.eabi_attribute 21, 1
   6              		.eabi_attribute 23, 3
   7              		.eabi_attribute 24, 1
   8              		.eabi_attribute 25, 1
   9              		.eabi_attribute 26, 1
  10              		.eabi_attribute 30, 4
  11              		.eabi_attribute 34, 1
  12              		.eabi_attribute 18, 4
  13              		.thumb
  14              		.file	"cyfitter_cfg.c"
  15              		.text
  16              	.Ltext0:
  17              		.cfi_sections	.debug_frame
  18              		.section	.text.SetAnalogRoutingPumps,"ax",%progbits
  19              		.align	1
  20              		.global	SetAnalogRoutingPumps
  21              		.thumb
  22              		.thumb_func
  23              		.type	SetAnalogRoutingPumps, %function
  24              	SetAnalogRoutingPumps:
  25              	.LFB6:
  26              		.file 1 ".\\Generated_Source\\PSoC5\\cyfitter_cfg.c"
   1:.\Generated_Source\PSoC5/cyfitter_cfg.c **** /*******************************************************************************
   2:.\Generated_Source\PSoC5/cyfitter_cfg.c **** * File Name: cyfitter_cfg.c
   3:.\Generated_Source\PSoC5/cyfitter_cfg.c **** * 
   4:.\Generated_Source\PSoC5/cyfitter_cfg.c **** * PSoC Creator  3.3 SP1
   5:.\Generated_Source\PSoC5/cyfitter_cfg.c **** *
   6:.\Generated_Source\PSoC5/cyfitter_cfg.c **** * Description:
   7:.\Generated_Source\PSoC5/cyfitter_cfg.c **** * This file contains device initialization code.
   8:.\Generated_Source\PSoC5/cyfitter_cfg.c **** * Except for the user defined sections in CyClockStartupError(), this file should not be modified.
   9:.\Generated_Source\PSoC5/cyfitter_cfg.c **** * This file is automatically generated by PSoC Creator.
  10:.\Generated_Source\PSoC5/cyfitter_cfg.c **** *
  11:.\Generated_Source\PSoC5/cyfitter_cfg.c **** ********************************************************************************
  12:.\Generated_Source\PSoC5/cyfitter_cfg.c **** * Copyright (c) 2007-2015 Cypress Semiconductor.  All rights reserved.
  13:.\Generated_Source\PSoC5/cyfitter_cfg.c **** * You may use this file only in accordance with the license, terms, conditions, 
  14:.\Generated_Source\PSoC5/cyfitter_cfg.c **** * disclaimers, and limitations in the end user license agreement accompanying 
  15:.\Generated_Source\PSoC5/cyfitter_cfg.c **** * the software package with which this file was provided.
  16:.\Generated_Source\PSoC5/cyfitter_cfg.c **** ********************************************************************************/
  17:.\Generated_Source\PSoC5/cyfitter_cfg.c **** 
  18:.\Generated_Source\PSoC5/cyfitter_cfg.c **** #include <string.h>
  19:.\Generated_Source\PSoC5/cyfitter_cfg.c **** #include "cytypes.h"
  20:.\Generated_Source\PSoC5/cyfitter_cfg.c **** #include "cydevice_trm.h"
  21:.\Generated_Source\PSoC5/cyfitter_cfg.c **** #include "cyfitter.h"
  22:.\Generated_Source\PSoC5/cyfitter_cfg.c **** #include "CyLib.h"
  23:.\Generated_Source\PSoC5/cyfitter_cfg.c **** #include "cyfitter_cfg.h"
  24:.\Generated_Source\PSoC5/cyfitter_cfg.c **** 
  25:.\Generated_Source\PSoC5/cyfitter_cfg.c **** #define CY_NEED_CYCLOCKSTARTUPERROR 1
  26:.\Generated_Source\PSoC5/cyfitter_cfg.c **** 
  27:.\Generated_Source\PSoC5/cyfitter_cfg.c **** 
  28:.\Generated_Source\PSoC5/cyfitter_cfg.c **** #if defined(__GNUC__) || defined(__ARMCC_VERSION)
  29:.\Generated_Source\PSoC5/cyfitter_cfg.c ****     #define CYPACKED 
  30:.\Generated_Source\PSoC5/cyfitter_cfg.c ****     #define CYPACKED_ATTR __attribute__ ((packed))
  31:.\Generated_Source\PSoC5/cyfitter_cfg.c ****     #define CYALIGNED __attribute__ ((aligned))
ARM GAS  C:\Users\Rolando\AppData\Local\Temp\ccqnczYj.s 			page 2


  32:.\Generated_Source\PSoC5/cyfitter_cfg.c ****     #define CY_CFG_UNUSED __attribute__ ((unused))
  33:.\Generated_Source\PSoC5/cyfitter_cfg.c ****     #ifndef CY_CFG_SECTION
  34:.\Generated_Source\PSoC5/cyfitter_cfg.c ****         #define CY_CFG_SECTION __attribute__ ((section(".psocinit")))
  35:.\Generated_Source\PSoC5/cyfitter_cfg.c ****     #endif
  36:.\Generated_Source\PSoC5/cyfitter_cfg.c ****     
  37:.\Generated_Source\PSoC5/cyfitter_cfg.c ****     #if defined(__ARMCC_VERSION)
  38:.\Generated_Source\PSoC5/cyfitter_cfg.c ****         #define CY_CFG_MEMORY_BARRIER() __memory_changed()
  39:.\Generated_Source\PSoC5/cyfitter_cfg.c ****     #else
  40:.\Generated_Source\PSoC5/cyfitter_cfg.c ****         #define CY_CFG_MEMORY_BARRIER() __sync_synchronize()
  41:.\Generated_Source\PSoC5/cyfitter_cfg.c ****     #endif
  42:.\Generated_Source\PSoC5/cyfitter_cfg.c ****     
  43:.\Generated_Source\PSoC5/cyfitter_cfg.c **** #elif defined(__ICCARM__)
  44:.\Generated_Source\PSoC5/cyfitter_cfg.c ****     #include <intrinsics.h>
  45:.\Generated_Source\PSoC5/cyfitter_cfg.c **** 
  46:.\Generated_Source\PSoC5/cyfitter_cfg.c ****     #define CYPACKED __packed
  47:.\Generated_Source\PSoC5/cyfitter_cfg.c ****     #define CYPACKED_ATTR 
  48:.\Generated_Source\PSoC5/cyfitter_cfg.c ****     #define CYALIGNED _Pragma("data_alignment=4")
  49:.\Generated_Source\PSoC5/cyfitter_cfg.c ****     #define CY_CFG_UNUSED _Pragma("diag_suppress=Pe177")
  50:.\Generated_Source\PSoC5/cyfitter_cfg.c ****     #define CY_CFG_SECTION _Pragma("location=\".psocinit\"")
  51:.\Generated_Source\PSoC5/cyfitter_cfg.c ****     
  52:.\Generated_Source\PSoC5/cyfitter_cfg.c ****     #define CY_CFG_MEMORY_BARRIER() __DMB()
  53:.\Generated_Source\PSoC5/cyfitter_cfg.c ****     
  54:.\Generated_Source\PSoC5/cyfitter_cfg.c **** #else
  55:.\Generated_Source\PSoC5/cyfitter_cfg.c ****     #error Unsupported toolchain
  56:.\Generated_Source\PSoC5/cyfitter_cfg.c **** #endif
  57:.\Generated_Source\PSoC5/cyfitter_cfg.c **** 
  58:.\Generated_Source\PSoC5/cyfitter_cfg.c **** 
  59:.\Generated_Source\PSoC5/cyfitter_cfg.c **** CY_CFG_UNUSED
  60:.\Generated_Source\PSoC5/cyfitter_cfg.c **** static void CYMEMZERO(void *s, size_t n);
  61:.\Generated_Source\PSoC5/cyfitter_cfg.c **** CY_CFG_UNUSED
  62:.\Generated_Source\PSoC5/cyfitter_cfg.c **** static void CYMEMZERO(void *s, size_t n)
  63:.\Generated_Source\PSoC5/cyfitter_cfg.c **** {
  64:.\Generated_Source\PSoC5/cyfitter_cfg.c **** 	(void)memset(s, 0, n);
  65:.\Generated_Source\PSoC5/cyfitter_cfg.c **** }
  66:.\Generated_Source\PSoC5/cyfitter_cfg.c **** CY_CFG_UNUSED
  67:.\Generated_Source\PSoC5/cyfitter_cfg.c **** static void CYCONFIGCPY(void *dest, const void *src, size_t n);
  68:.\Generated_Source\PSoC5/cyfitter_cfg.c **** CY_CFG_UNUSED
  69:.\Generated_Source\PSoC5/cyfitter_cfg.c **** static void CYCONFIGCPY(void *dest, const void *src, size_t n)
  70:.\Generated_Source\PSoC5/cyfitter_cfg.c **** {
  71:.\Generated_Source\PSoC5/cyfitter_cfg.c **** 	(void)memcpy(dest, src, n);
  72:.\Generated_Source\PSoC5/cyfitter_cfg.c **** }
  73:.\Generated_Source\PSoC5/cyfitter_cfg.c **** CY_CFG_UNUSED
  74:.\Generated_Source\PSoC5/cyfitter_cfg.c **** static void CYCONFIGCPYCODE(void *dest, const void *src, size_t n);
  75:.\Generated_Source\PSoC5/cyfitter_cfg.c **** CY_CFG_UNUSED
  76:.\Generated_Source\PSoC5/cyfitter_cfg.c **** static void CYCONFIGCPYCODE(void *dest, const void *src, size_t n)
  77:.\Generated_Source\PSoC5/cyfitter_cfg.c **** {
  78:.\Generated_Source\PSoC5/cyfitter_cfg.c **** 	(void)memcpy(dest, src, n);
  79:.\Generated_Source\PSoC5/cyfitter_cfg.c **** }
  80:.\Generated_Source\PSoC5/cyfitter_cfg.c **** 
  81:.\Generated_Source\PSoC5/cyfitter_cfg.c **** 
  82:.\Generated_Source\PSoC5/cyfitter_cfg.c **** 
  83:.\Generated_Source\PSoC5/cyfitter_cfg.c **** /* Clock startup error codes                                                   */
  84:.\Generated_Source\PSoC5/cyfitter_cfg.c **** #define CYCLOCKSTART_NO_ERROR    0u
  85:.\Generated_Source\PSoC5/cyfitter_cfg.c **** #define CYCLOCKSTART_XTAL_ERROR  1u
  86:.\Generated_Source\PSoC5/cyfitter_cfg.c **** #define CYCLOCKSTART_32KHZ_ERROR 2u
  87:.\Generated_Source\PSoC5/cyfitter_cfg.c **** #define CYCLOCKSTART_PLL_ERROR   3u
  88:.\Generated_Source\PSoC5/cyfitter_cfg.c **** 
ARM GAS  C:\Users\Rolando\AppData\Local\Temp\ccqnczYj.s 			page 3


  89:.\Generated_Source\PSoC5/cyfitter_cfg.c **** #ifdef CY_NEED_CYCLOCKSTARTUPERROR
  90:.\Generated_Source\PSoC5/cyfitter_cfg.c **** /*******************************************************************************
  91:.\Generated_Source\PSoC5/cyfitter_cfg.c **** * Function Name: CyClockStartupError
  92:.\Generated_Source\PSoC5/cyfitter_cfg.c **** ********************************************************************************
  93:.\Generated_Source\PSoC5/cyfitter_cfg.c **** * Summary:
  94:.\Generated_Source\PSoC5/cyfitter_cfg.c **** *  If an error is encountered during clock configuration (crystal startup error,
  95:.\Generated_Source\PSoC5/cyfitter_cfg.c **** *  PLL lock error, etc.), the system will end up here.  Unless reimplemented by
  96:.\Generated_Source\PSoC5/cyfitter_cfg.c **** *  the customer, this function will stop in an infinite loop.
  97:.\Generated_Source\PSoC5/cyfitter_cfg.c **** *
  98:.\Generated_Source\PSoC5/cyfitter_cfg.c **** * Parameters:
  99:.\Generated_Source\PSoC5/cyfitter_cfg.c **** *   void
 100:.\Generated_Source\PSoC5/cyfitter_cfg.c **** *
 101:.\Generated_Source\PSoC5/cyfitter_cfg.c **** * Return:
 102:.\Generated_Source\PSoC5/cyfitter_cfg.c **** *   void
 103:.\Generated_Source\PSoC5/cyfitter_cfg.c **** *
 104:.\Generated_Source\PSoC5/cyfitter_cfg.c **** *******************************************************************************/
 105:.\Generated_Source\PSoC5/cyfitter_cfg.c **** CY_CFG_UNUSED
 106:.\Generated_Source\PSoC5/cyfitter_cfg.c **** static void CyClockStartupError(uint8 errorCode);
 107:.\Generated_Source\PSoC5/cyfitter_cfg.c **** CY_CFG_UNUSED
 108:.\Generated_Source\PSoC5/cyfitter_cfg.c **** static void CyClockStartupError(uint8 errorCode)
 109:.\Generated_Source\PSoC5/cyfitter_cfg.c **** {
 110:.\Generated_Source\PSoC5/cyfitter_cfg.c ****     /* To remove the compiler warning if errorCode not used.                */
 111:.\Generated_Source\PSoC5/cyfitter_cfg.c ****     errorCode = errorCode;
 112:.\Generated_Source\PSoC5/cyfitter_cfg.c **** 
 113:.\Generated_Source\PSoC5/cyfitter_cfg.c ****     /* `#START CyClockStartupError` */
 114:.\Generated_Source\PSoC5/cyfitter_cfg.c **** 
 115:.\Generated_Source\PSoC5/cyfitter_cfg.c ****     /* If we have a clock startup error (bad MHz crystal, PLL lock, etc.),  */
 116:.\Generated_Source\PSoC5/cyfitter_cfg.c ****     /* we will end up here to allow the customer to implement something to  */
 117:.\Generated_Source\PSoC5/cyfitter_cfg.c ****     /* deal with the clock condition.                                       */
 118:.\Generated_Source\PSoC5/cyfitter_cfg.c **** 
 119:.\Generated_Source\PSoC5/cyfitter_cfg.c ****     /* `#END` */
 120:.\Generated_Source\PSoC5/cyfitter_cfg.c **** 
 121:.\Generated_Source\PSoC5/cyfitter_cfg.c ****     /* If nothing else, stop here since the clocks have not started         */
 122:.\Generated_Source\PSoC5/cyfitter_cfg.c ****     /* correctly.                                                           */
 123:.\Generated_Source\PSoC5/cyfitter_cfg.c ****     while(1) {}
 124:.\Generated_Source\PSoC5/cyfitter_cfg.c **** }
 125:.\Generated_Source\PSoC5/cyfitter_cfg.c **** #endif
 126:.\Generated_Source\PSoC5/cyfitter_cfg.c **** 
 127:.\Generated_Source\PSoC5/cyfitter_cfg.c **** /* IOPINS0_2 Address: CYREG_PRT2_DM0 Size (bytes): 8 */
 128:.\Generated_Source\PSoC5/cyfitter_cfg.c **** #define BS_IOPINS0_2_VAL ((const uint8 CYFAR *)0x48000000u)
 129:.\Generated_Source\PSoC5/cyfitter_cfg.c **** 
 130:.\Generated_Source\PSoC5/cyfitter_cfg.c **** /* IOPINS0_5 Address: CYREG_PRT5_DM0 Size (bytes): 8 */
 131:.\Generated_Source\PSoC5/cyfitter_cfg.c **** #define BS_IOPINS0_5_VAL ((const uint8 CYFAR *)0x48000008u)
 132:.\Generated_Source\PSoC5/cyfitter_cfg.c **** 
 133:.\Generated_Source\PSoC5/cyfitter_cfg.c **** 
 134:.\Generated_Source\PSoC5/cyfitter_cfg.c **** /*******************************************************************************
 135:.\Generated_Source\PSoC5/cyfitter_cfg.c **** * Function Name: ClockSetup
 136:.\Generated_Source\PSoC5/cyfitter_cfg.c **** ********************************************************************************
 137:.\Generated_Source\PSoC5/cyfitter_cfg.c **** *
 138:.\Generated_Source\PSoC5/cyfitter_cfg.c **** * Summary:
 139:.\Generated_Source\PSoC5/cyfitter_cfg.c **** *  Performs the initialization of all of the clocks in the device based on the
 140:.\Generated_Source\PSoC5/cyfitter_cfg.c **** *  settings in the Clock tab of the DWR.  This includes enabling the requested
 141:.\Generated_Source\PSoC5/cyfitter_cfg.c **** *  clocks and setting the necessary dividers to produce the desired frequency. 
 142:.\Generated_Source\PSoC5/cyfitter_cfg.c **** *
 143:.\Generated_Source\PSoC5/cyfitter_cfg.c **** * Parameters:
 144:.\Generated_Source\PSoC5/cyfitter_cfg.c **** *  void
 145:.\Generated_Source\PSoC5/cyfitter_cfg.c **** *
ARM GAS  C:\Users\Rolando\AppData\Local\Temp\ccqnczYj.s 			page 4


 146:.\Generated_Source\PSoC5/cyfitter_cfg.c **** * Return:
 147:.\Generated_Source\PSoC5/cyfitter_cfg.c **** *  void
 148:.\Generated_Source\PSoC5/cyfitter_cfg.c **** *
 149:.\Generated_Source\PSoC5/cyfitter_cfg.c **** *******************************************************************************/
 150:.\Generated_Source\PSoC5/cyfitter_cfg.c **** static void ClockSetup(void);
 151:.\Generated_Source\PSoC5/cyfitter_cfg.c **** static void ClockSetup(void)
 152:.\Generated_Source\PSoC5/cyfitter_cfg.c **** {
 153:.\Generated_Source\PSoC5/cyfitter_cfg.c **** 	uint32 timeout;
 154:.\Generated_Source\PSoC5/cyfitter_cfg.c **** 	uint8 pllLock;
 155:.\Generated_Source\PSoC5/cyfitter_cfg.c **** 
 156:.\Generated_Source\PSoC5/cyfitter_cfg.c **** 
 157:.\Generated_Source\PSoC5/cyfitter_cfg.c **** 	/* Configure ILO based on settings from Clock DWR */
 158:.\Generated_Source\PSoC5/cyfitter_cfg.c **** 	CY_SET_XTND_REG8((void CYFAR *)(CYREG_SLOWCLK_ILO_CR0), 0x02u);
 159:.\Generated_Source\PSoC5/cyfitter_cfg.c **** 	CY_SET_XTND_REG8((void CYFAR *)(CYREG_CLKDIST_CR), 0x08u);
 160:.\Generated_Source\PSoC5/cyfitter_cfg.c **** 
 161:.\Generated_Source\PSoC5/cyfitter_cfg.c **** 	/* Configure IMO based on settings from Clock DWR */
 162:.\Generated_Source\PSoC5/cyfitter_cfg.c **** 	CY_SET_XTND_REG8((void CYFAR *)(CYREG_FASTCLK_IMO_CR), 0x03u);
 163:.\Generated_Source\PSoC5/cyfitter_cfg.c **** 	CY_SET_XTND_REG8((void CYFAR *)(CYREG_IMO_TR1), (CY_GET_XTND_REG8((void CYFAR *)CYREG_FLSHID_CUST_
 164:.\Generated_Source\PSoC5/cyfitter_cfg.c **** 
 165:.\Generated_Source\PSoC5/cyfitter_cfg.c **** 	/* Configure PLL based on settings from Clock DWR */
 166:.\Generated_Source\PSoC5/cyfitter_cfg.c **** 	CY_SET_XTND_REG16((void CYFAR *)(CYREG_FASTCLK_PLL_P), 0x0008u);
 167:.\Generated_Source\PSoC5/cyfitter_cfg.c **** 	CY_SET_XTND_REG16((void CYFAR *)(CYREG_FASTCLK_PLL_CFG0), 0x1251u);
 168:.\Generated_Source\PSoC5/cyfitter_cfg.c **** 	/* Wait up to 250us for the PLL to lock */
 169:.\Generated_Source\PSoC5/cyfitter_cfg.c **** 	pllLock = 0u;
 170:.\Generated_Source\PSoC5/cyfitter_cfg.c **** 	for (timeout = 250u / 10u; (timeout > 0u) && (pllLock != 0x03u); timeout--)
 171:.\Generated_Source\PSoC5/cyfitter_cfg.c **** 	{ 
 172:.\Generated_Source\PSoC5/cyfitter_cfg.c **** 		pllLock = 0x03u & ((uint8)((uint8)pllLock << 1) | ((CY_GET_XTND_REG8((void CYFAR *)CYREG_FASTCLK_
 173:.\Generated_Source\PSoC5/cyfitter_cfg.c **** 		CyDelayCycles(10u * 12u); /* Delay 10us based on 12MHz clock */
 174:.\Generated_Source\PSoC5/cyfitter_cfg.c **** 	}
 175:.\Generated_Source\PSoC5/cyfitter_cfg.c **** 	/* If we ran out of time the PLL didn't lock so go to the error function */
 176:.\Generated_Source\PSoC5/cyfitter_cfg.c **** 	if (timeout == 0u)
 177:.\Generated_Source\PSoC5/cyfitter_cfg.c **** 	{
 178:.\Generated_Source\PSoC5/cyfitter_cfg.c **** 		CyClockStartupError(CYCLOCKSTART_PLL_ERROR);
 179:.\Generated_Source\PSoC5/cyfitter_cfg.c **** 	}
 180:.\Generated_Source\PSoC5/cyfitter_cfg.c **** 
 181:.\Generated_Source\PSoC5/cyfitter_cfg.c **** 	/* Configure Bus/Master Clock based on settings from Clock DWR */
 182:.\Generated_Source\PSoC5/cyfitter_cfg.c **** 	CY_SET_XTND_REG16((void CYFAR *)(CYREG_CLKDIST_MSTR0), 0x0100u);
 183:.\Generated_Source\PSoC5/cyfitter_cfg.c **** 	CY_SET_XTND_REG8((void CYFAR *)(CYREG_CLKDIST_MSTR0), 0x07u);
 184:.\Generated_Source\PSoC5/cyfitter_cfg.c **** 	CY_SET_XTND_REG8((void CYFAR *)(CYREG_CLKDIST_BCFG0), 0x00u);
 185:.\Generated_Source\PSoC5/cyfitter_cfg.c **** 	CY_SET_XTND_REG8((void CYFAR *)(CYREG_CLKDIST_BCFG2), 0x48u);
 186:.\Generated_Source\PSoC5/cyfitter_cfg.c **** 	CY_SET_XTND_REG8((void CYFAR *)(CYREG_CLKDIST_MSTR0), 0x00u);
 187:.\Generated_Source\PSoC5/cyfitter_cfg.c **** 	CY_SET_XTND_REG8((void CYFAR *)(CYREG_CLKDIST_LD), 0x02u);
 188:.\Generated_Source\PSoC5/cyfitter_cfg.c **** }
 189:.\Generated_Source\PSoC5/cyfitter_cfg.c **** 
 190:.\Generated_Source\PSoC5/cyfitter_cfg.c **** 
 191:.\Generated_Source\PSoC5/cyfitter_cfg.c **** /* Analog API Functions */
 192:.\Generated_Source\PSoC5/cyfitter_cfg.c **** 
 193:.\Generated_Source\PSoC5/cyfitter_cfg.c **** 
 194:.\Generated_Source\PSoC5/cyfitter_cfg.c **** /*******************************************************************************
 195:.\Generated_Source\PSoC5/cyfitter_cfg.c **** * Function Name: AnalogSetDefault
 196:.\Generated_Source\PSoC5/cyfitter_cfg.c **** ********************************************************************************
 197:.\Generated_Source\PSoC5/cyfitter_cfg.c **** *
 198:.\Generated_Source\PSoC5/cyfitter_cfg.c **** * Summary:
 199:.\Generated_Source\PSoC5/cyfitter_cfg.c **** *  Sets up the analog portions of the chip to default values based on chip
 200:.\Generated_Source\PSoC5/cyfitter_cfg.c **** *  configuration options from the project.
 201:.\Generated_Source\PSoC5/cyfitter_cfg.c **** *
 202:.\Generated_Source\PSoC5/cyfitter_cfg.c **** * Parameters:
ARM GAS  C:\Users\Rolando\AppData\Local\Temp\ccqnczYj.s 			page 5


 203:.\Generated_Source\PSoC5/cyfitter_cfg.c **** *  void
 204:.\Generated_Source\PSoC5/cyfitter_cfg.c **** *
 205:.\Generated_Source\PSoC5/cyfitter_cfg.c **** * Return:
 206:.\Generated_Source\PSoC5/cyfitter_cfg.c **** *  void
 207:.\Generated_Source\PSoC5/cyfitter_cfg.c **** *
 208:.\Generated_Source\PSoC5/cyfitter_cfg.c **** *******************************************************************************/
 209:.\Generated_Source\PSoC5/cyfitter_cfg.c **** static void AnalogSetDefault(void);
 210:.\Generated_Source\PSoC5/cyfitter_cfg.c **** static void AnalogSetDefault(void)
 211:.\Generated_Source\PSoC5/cyfitter_cfg.c **** {
 212:.\Generated_Source\PSoC5/cyfitter_cfg.c **** 	uint8 bg_xover_inl_trim = CY_GET_XTND_REG8((void CYFAR *)(CYREG_FLSHID_MFG_CFG_BG_XOVER_INL_TRIM +
 213:.\Generated_Source\PSoC5/cyfitter_cfg.c **** 	CY_SET_XTND_REG8((void CYFAR *)(CYREG_BG_DFT0), (bg_xover_inl_trim & 0x07u));
 214:.\Generated_Source\PSoC5/cyfitter_cfg.c **** 	CY_SET_XTND_REG8((void CYFAR *)(CYREG_BG_DFT1), ((bg_xover_inl_trim >> 4) & 0x0Fu));
 215:.\Generated_Source\PSoC5/cyfitter_cfg.c **** 	CY_SET_XTND_REG8((void CYFAR *)CYREG_PRT5_AG, 0x02u);
 216:.\Generated_Source\PSoC5/cyfitter_cfg.c **** 	CY_SET_XTND_REG8((void CYFAR *)CYREG_DAC1_SW0, 0x02u);
 217:.\Generated_Source\PSoC5/cyfitter_cfg.c **** 	CY_SET_XTND_REG8((void CYFAR *)CYREG_PUMP_CR0, 0x66u);
 218:.\Generated_Source\PSoC5/cyfitter_cfg.c **** }
 219:.\Generated_Source\PSoC5/cyfitter_cfg.c **** 
 220:.\Generated_Source\PSoC5/cyfitter_cfg.c **** 
 221:.\Generated_Source\PSoC5/cyfitter_cfg.c **** /*******************************************************************************
 222:.\Generated_Source\PSoC5/cyfitter_cfg.c **** * Function Name: SetAnalogRoutingPumps
 223:.\Generated_Source\PSoC5/cyfitter_cfg.c **** ********************************************************************************
 224:.\Generated_Source\PSoC5/cyfitter_cfg.c **** *
 225:.\Generated_Source\PSoC5/cyfitter_cfg.c **** * Summary:
 226:.\Generated_Source\PSoC5/cyfitter_cfg.c **** * Enables or disables the analog pumps feeding analog routing switches.
 227:.\Generated_Source\PSoC5/cyfitter_cfg.c **** * Intended to be called at startup, based on the Vdda system configuration;
 228:.\Generated_Source\PSoC5/cyfitter_cfg.c **** * may be called during operation when the user informs us that the Vdda voltage
 229:.\Generated_Source\PSoC5/cyfitter_cfg.c **** * crossed the pump threshold.
 230:.\Generated_Source\PSoC5/cyfitter_cfg.c **** *
 231:.\Generated_Source\PSoC5/cyfitter_cfg.c **** * Parameters:
 232:.\Generated_Source\PSoC5/cyfitter_cfg.c **** *  enabled - 1 to enable the pumps, 0 to disable the pumps
 233:.\Generated_Source\PSoC5/cyfitter_cfg.c **** *
 234:.\Generated_Source\PSoC5/cyfitter_cfg.c **** * Return:
 235:.\Generated_Source\PSoC5/cyfitter_cfg.c **** *  void
 236:.\Generated_Source\PSoC5/cyfitter_cfg.c **** *
 237:.\Generated_Source\PSoC5/cyfitter_cfg.c **** *******************************************************************************/
 238:.\Generated_Source\PSoC5/cyfitter_cfg.c **** void SetAnalogRoutingPumps(uint8 enabled)
 239:.\Generated_Source\PSoC5/cyfitter_cfg.c **** {
  27              		.loc 1 239 0
  28              		.cfi_startproc
  29              		@ args = 0, pretend = 0, frame = 0
  30              		@ frame_needed = 0, uses_anonymous_args = 0
  31              		@ link register save eliminated.
  32              	.LVL0:
 240:.\Generated_Source\PSoC5/cyfitter_cfg.c **** 	uint8 regValue = CY_GET_XTND_REG8((void CYFAR *)CYREG_PUMP_CR0);
  33              		.loc 1 240 0
  34 0000 054A     		ldr	r2, .L5
  35 0002 1378     		ldrb	r3, [r2]	@ zero_extendqisi2
  36 0004 DBB2     		uxtb	r3, r3
  37              	.LVL1:
 241:.\Generated_Source\PSoC5/cyfitter_cfg.c **** 	if (enabled != 0u)
  38              		.loc 1 241 0
  39 0006 10B1     		cbz	r0, .L2
 242:.\Generated_Source\PSoC5/cyfitter_cfg.c **** 	{
 243:.\Generated_Source\PSoC5/cyfitter_cfg.c **** 		regValue |= 0x22u;
  40              		.loc 1 243 0
  41 0008 43F02203 		orr	r3, r3, #34
  42              	.LVL2:
ARM GAS  C:\Users\Rolando\AppData\Local\Temp\ccqnczYj.s 			page 6


  43 000c 01E0     		b	.L3
  44              	.L2:
 244:.\Generated_Source\PSoC5/cyfitter_cfg.c **** 	}
 245:.\Generated_Source\PSoC5/cyfitter_cfg.c **** 	else
 246:.\Generated_Source\PSoC5/cyfitter_cfg.c **** 	{
 247:.\Generated_Source\PSoC5/cyfitter_cfg.c **** 		regValue &= (uint8)~0x22u;
  45              		.loc 1 247 0
  46 000e 03F0DD03 		and	r3, r3, #221
  47              	.LVL3:
  48              	.L3:
 248:.\Generated_Source\PSoC5/cyfitter_cfg.c **** 	}
 249:.\Generated_Source\PSoC5/cyfitter_cfg.c **** 	CY_SET_XTND_REG8((void CYFAR *)CYREG_PUMP_CR0, regValue);
  49              		.loc 1 249 0
  50 0012 1370     		strb	r3, [r2]
  51 0014 7047     		bx	lr
  52              	.L6:
  53 0016 00BF     		.align	2
  54              	.L5:
  55 0018 76580040 		.word	1073764470
  56              		.cfi_endproc
  57              	.LFE6:
  58              		.size	SetAnalogRoutingPumps, .-SetAnalogRoutingPumps
  59              		.section	.text.cyfitter_cfg,"ax",%progbits
  60              		.align	1
  61              		.global	cyfitter_cfg
  62              		.thumb
  63              		.thumb_func
  64              		.type	cyfitter_cfg, %function
  65              	cyfitter_cfg:
  66              	.LFB7:
 250:.\Generated_Source\PSoC5/cyfitter_cfg.c **** }
 251:.\Generated_Source\PSoC5/cyfitter_cfg.c **** 
 252:.\Generated_Source\PSoC5/cyfitter_cfg.c **** #define CY_AMUX_UNUSED CYREG_BOOST_SR
 253:.\Generated_Source\PSoC5/cyfitter_cfg.c **** 
 254:.\Generated_Source\PSoC5/cyfitter_cfg.c **** 
 255:.\Generated_Source\PSoC5/cyfitter_cfg.c **** /*******************************************************************************
 256:.\Generated_Source\PSoC5/cyfitter_cfg.c **** * Function Name: cyfitter_cfg
 257:.\Generated_Source\PSoC5/cyfitter_cfg.c **** ********************************************************************************
 258:.\Generated_Source\PSoC5/cyfitter_cfg.c **** * Summary:
 259:.\Generated_Source\PSoC5/cyfitter_cfg.c **** *  This function is called by the start-up code for the selected device. It
 260:.\Generated_Source\PSoC5/cyfitter_cfg.c **** *  performs all of the necessary device configuration based on the design
 261:.\Generated_Source\PSoC5/cyfitter_cfg.c **** *  settings.  This includes settings from the Design Wide Resources (DWR) such
 262:.\Generated_Source\PSoC5/cyfitter_cfg.c **** *  as Clocks and Pins as well as any component configuration that is necessary.
 263:.\Generated_Source\PSoC5/cyfitter_cfg.c **** *
 264:.\Generated_Source\PSoC5/cyfitter_cfg.c **** * Parameters:  
 265:.\Generated_Source\PSoC5/cyfitter_cfg.c **** *   void
 266:.\Generated_Source\PSoC5/cyfitter_cfg.c **** *
 267:.\Generated_Source\PSoC5/cyfitter_cfg.c **** * Return:
 268:.\Generated_Source\PSoC5/cyfitter_cfg.c **** *   void
 269:.\Generated_Source\PSoC5/cyfitter_cfg.c **** *
 270:.\Generated_Source\PSoC5/cyfitter_cfg.c **** *******************************************************************************/
 271:.\Generated_Source\PSoC5/cyfitter_cfg.c **** 
 272:.\Generated_Source\PSoC5/cyfitter_cfg.c **** void cyfitter_cfg(void)
 273:.\Generated_Source\PSoC5/cyfitter_cfg.c **** {
  67              		.loc 1 273 0
  68              		.cfi_startproc
  69              		@ args = 0, pretend = 0, frame = 0
ARM GAS  C:\Users\Rolando\AppData\Local\Temp\ccqnczYj.s 			page 7


  70              		@ frame_needed = 0, uses_anonymous_args = 0
  71 0000 38B5     		push	{r3, r4, r5, lr}
  72              		.cfi_def_cfa_offset 16
  73              		.cfi_offset 3, -16
  74              		.cfi_offset 4, -12
  75              		.cfi_offset 5, -8
  76              		.cfi_offset 14, -4
 274:.\Generated_Source\PSoC5/cyfitter_cfg.c **** #ifdef CYGlobalIntDisable
 275:.\Generated_Source\PSoC5/cyfitter_cfg.c **** 	/* Disable interrupts by default. Let user enable if/when they want. */
 276:.\Generated_Source\PSoC5/cyfitter_cfg.c **** 	CYGlobalIntDisable
  77              		.loc 1 276 0
  78              	@ 276 ".\Generated_Source\PSoC5\cyfitter_cfg.c" 1
  79 0002 72B6     		CPSID   i
  80              	@ 0 "" 2
 277:.\Generated_Source\PSoC5/cyfitter_cfg.c **** #endif
 278:.\Generated_Source\PSoC5/cyfitter_cfg.c **** 
 279:.\Generated_Source\PSoC5/cyfitter_cfg.c **** 
 280:.\Generated_Source\PSoC5/cyfitter_cfg.c **** 	/* Set Flash Cycles based on max possible frequency in case a glitch occurs during ClockSetup(). *
 281:.\Generated_Source\PSoC5/cyfitter_cfg.c **** 	CY_SET_XTND_REG8((void CYFAR *)(CYREG_CACHE_CC_CTL), (((CYDEV_INSTRUCT_CACHE_ENABLED) != 0) ? 0x01
  81              		.loc 1 281 0
  82              		.thumb
  83 0004 484B     		ldr	r3, .L17
  84 0006 0024     		movs	r4, #0
  85 0008 1C70     		strb	r4, [r3]
  86              	.LBB26:
  87              	.LBB27:
 158:.\Generated_Source\PSoC5/cyfitter_cfg.c **** 	CY_SET_XTND_REG8((void CYFAR *)(CYREG_CLKDIST_CR), 0x08u);
  88              		.loc 1 158 0
  89 000a 0222     		movs	r2, #2
  90 000c A3F5A063 		sub	r3, r3, #1280
  91 0010 1A70     		strb	r2, [r3]
 162:.\Generated_Source\PSoC5/cyfitter_cfg.c **** 	CY_SET_XTND_REG8((void CYFAR *)(CYREG_IMO_TR1), (CY_GET_XTND_REG8((void CYFAR *)CYREG_FLSHID_CUST_
  92              		.loc 1 162 0
  93 0012 0321     		movs	r1, #3
 159:.\Generated_Source\PSoC5/cyfitter_cfg.c **** 
  94              		.loc 1 159 0
  95 0014 0822     		movs	r2, #8
  96 0016 4FF04023 		mov	r3, #1073758208
  97 001a 1A70     		strb	r2, [r3]
 162:.\Generated_Source\PSoC5/cyfitter_cfg.c **** 	CY_SET_XTND_REG8((void CYFAR *)(CYREG_IMO_TR1), (CY_GET_XTND_REG8((void CYFAR *)CYREG_FLSHID_CUST_
  98              		.loc 1 162 0
  99 001c 83F80012 		strb	r1, [r3, #512]
 163:.\Generated_Source\PSoC5/cyfitter_cfg.c **** 
 100              		.loc 1 163 0
 101 0020 424B     		ldr	r3, .L17+4
 102 0022 4349     		ldr	r1, .L17+8
 103 0024 1B78     		ldrb	r3, [r3]	@ zero_extendqisi2
 167:.\Generated_Source\PSoC5/cyfitter_cfg.c **** 	/* Wait up to 250us for the PLL to lock */
 104              		.loc 1 167 0
 105 0026 1925     		movs	r5, #25
 163:.\Generated_Source\PSoC5/cyfitter_cfg.c **** 
 106              		.loc 1 163 0
 107 0028 DBB2     		uxtb	r3, r3
 108 002a 0B70     		strb	r3, [r1]
 166:.\Generated_Source\PSoC5/cyfitter_cfg.c **** 	CY_SET_XTND_REG16((void CYFAR *)(CYREG_FASTCLK_PLL_CFG0), 0x1251u);
 109              		.loc 1 166 0
 110 002c 414B     		ldr	r3, .L17+12
ARM GAS  C:\Users\Rolando\AppData\Local\Temp\ccqnczYj.s 			page 8


 111 002e 1A80     		strh	r2, [r3]	@ movhi
 167:.\Generated_Source\PSoC5/cyfitter_cfg.c **** 	/* Wait up to 250us for the PLL to lock */
 112              		.loc 1 167 0
 113 0030 41F25122 		movw	r2, #4689
 114 0034 23F8022C 		strh	r2, [r3, #-2]	@ movhi
 115              	.LVL4:
 116              	.L9:
 172:.\Generated_Source\PSoC5/cyfitter_cfg.c **** 		CyDelayCycles(10u * 12u); /* Delay 10us based on 12MHz clock */
 117              		.loc 1 172 0
 118 0038 3F4B     		ldr	r3, .L17+16
 173:.\Generated_Source\PSoC5/cyfitter_cfg.c **** 	}
 119              		.loc 1 173 0
 120 003a 7820     		movs	r0, #120
 172:.\Generated_Source\PSoC5/cyfitter_cfg.c **** 		CyDelayCycles(10u * 12u); /* Delay 10us based on 12MHz clock */
 121              		.loc 1 172 0
 122 003c 1B78     		ldrb	r3, [r3]	@ zero_extendqisi2
 123 003e 03F00103 		and	r3, r3, #1
 124 0042 43EA4404 		orr	r4, r3, r4, lsl #1
 125              	.LVL5:
 173:.\Generated_Source\PSoC5/cyfitter_cfg.c **** 	}
 126              		.loc 1 173 0
 127 0046 FFF7FEFF 		bl	CyDelayCycles
 128              	.LVL6:
 170:.\Generated_Source\PSoC5/cyfitter_cfg.c **** 	{ 
 129              		.loc 1 170 0
 130 004a 013D     		subs	r5, r5, #1
 131              	.LVL7:
 172:.\Generated_Source\PSoC5/cyfitter_cfg.c **** 		CyDelayCycles(10u * 12u); /* Delay 10us based on 12MHz clock */
 132              		.loc 1 172 0
 133 004c 04F00304 		and	r4, r4, #3
 134              	.LVL8:
 170:.\Generated_Source\PSoC5/cyfitter_cfg.c **** 	{ 
 135              		.loc 1 170 0
 136 0050 19D0     		beq	.L8
 137              	.LVL9:
 138 0052 032C     		cmp	r4, #3
 139 0054 F0D1     		bne	.L9
 182:.\Generated_Source\PSoC5/cyfitter_cfg.c **** 	CY_SET_XTND_REG8((void CYFAR *)(CYREG_CLKDIST_MSTR0), 0x07u);
 140              		.loc 1 182 0
 141 0056 394B     		ldr	r3, .L17+20
 142 0058 4FF48072 		mov	r2, #256
 143 005c 1A80     		strh	r2, [r3]	@ movhi
 183:.\Generated_Source\PSoC5/cyfitter_cfg.c **** 	CY_SET_XTND_REG8((void CYFAR *)(CYREG_CLKDIST_BCFG0), 0x00u);
 144              		.loc 1 183 0
 145 005e 0722     		movs	r2, #7
 146 0060 1A70     		strb	r2, [r3]
 184:.\Generated_Source\PSoC5/cyfitter_cfg.c **** 	CY_SET_XTND_REG8((void CYFAR *)(CYREG_CLKDIST_BCFG2), 0x48u);
 147              		.loc 1 184 0
 148 0062 374A     		ldr	r2, .L17+24
 149 0064 0024     		movs	r4, #0
 150              	.LVL10:
 185:.\Generated_Source\PSoC5/cyfitter_cfg.c **** 	CY_SET_XTND_REG8((void CYFAR *)(CYREG_CLKDIST_MSTR0), 0x00u);
 151              		.loc 1 185 0
 152 0066 4821     		movs	r1, #72
 184:.\Generated_Source\PSoC5/cyfitter_cfg.c **** 	CY_SET_XTND_REG8((void CYFAR *)(CYREG_CLKDIST_BCFG2), 0x48u);
 153              		.loc 1 184 0
 154 0068 1470     		strb	r4, [r2]
ARM GAS  C:\Users\Rolando\AppData\Local\Temp\ccqnczYj.s 			page 9


 185:.\Generated_Source\PSoC5/cyfitter_cfg.c **** 	CY_SET_XTND_REG8((void CYFAR *)(CYREG_CLKDIST_MSTR0), 0x00u);
 155              		.loc 1 185 0
 156 006a 9170     		strb	r1, [r2, #2]
 187:.\Generated_Source\PSoC5/cyfitter_cfg.c **** }
 157              		.loc 1 187 0
 158 006c 0222     		movs	r2, #2
 186:.\Generated_Source\PSoC5/cyfitter_cfg.c **** 	CY_SET_XTND_REG8((void CYFAR *)(CYREG_CLKDIST_LD), 0x02u);
 159              		.loc 1 186 0
 160 006e 1C70     		strb	r4, [r3]
 187:.\Generated_Source\PSoC5/cyfitter_cfg.c **** }
 161              		.loc 1 187 0
 162 0070 03F8032C 		strb	r2, [r3, #-3]
 163              	.LBE27:
 164              	.LBE26:
 282:.\Generated_Source\PSoC5/cyfitter_cfg.c **** 	/* Setup clocks based on selections from Clock DWR */
 283:.\Generated_Source\PSoC5/cyfitter_cfg.c **** 	ClockSetup();
 284:.\Generated_Source\PSoC5/cyfitter_cfg.c **** 	/* Set Flash Cycles based on newly configured 24.00MHz Bus Clock. */
 285:.\Generated_Source\PSoC5/cyfitter_cfg.c **** 	CY_SET_XTND_REG8((void CYFAR *)(CYREG_CACHE_CC_CTL), (((CYDEV_INSTRUCT_CACHE_ENABLED) != 0) ? 0x81
 165              		.loc 1 285 0
 166 0074 8022     		movs	r2, #128
 167 0076 83F8FC27 		strb	r2, [r3, #2044]
 286:.\Generated_Source\PSoC5/cyfitter_cfg.c **** 	/* Enable/Disable Debug functionality based on settings from System DWR */
 287:.\Generated_Source\PSoC5/cyfitter_cfg.c **** 	CY_SET_XTND_REG8((void CYFAR *)CYREG_MLOGIC_DEBUG, (CY_GET_XTND_REG8((void CYFAR *)CYREG_MLOGIC_DE
 168              		.loc 1 287 0
 169 007a 324A     		ldr	r2, .L17+28
 170 007c 1378     		ldrb	r3, [r2]	@ zero_extendqisi2
 171 007e 43F00403 		orr	r3, r3, #4
 172 0082 1370     		strb	r3, [r2]
 173              	.LVL11:
 174 0084 00E0     		b	.L11
 175              	.LVL12:
 176              	.L8:
 177 0086 FEE7     		b	.L8
 178              	.LVL13:
 179              	.L11:
 180              	.LBB28:
 181              	.LBB29:
 288:.\Generated_Source\PSoC5/cyfitter_cfg.c **** 
 289:.\Generated_Source\PSoC5/cyfitter_cfg.c **** 	{
 290:.\Generated_Source\PSoC5/cyfitter_cfg.c **** 
 291:.\Generated_Source\PSoC5/cyfitter_cfg.c **** 		CYPACKED typedef struct {
 292:.\Generated_Source\PSoC5/cyfitter_cfg.c **** 			void CYFAR *address;
 293:.\Generated_Source\PSoC5/cyfitter_cfg.c **** 			uint16 size;
 294:.\Generated_Source\PSoC5/cyfitter_cfg.c **** 		} CYPACKED_ATTR cfg_memset_t;
 295:.\Generated_Source\PSoC5/cyfitter_cfg.c **** 
 296:.\Generated_Source\PSoC5/cyfitter_cfg.c **** 		static const cfg_memset_t CYCODE cfg_memset_list [] = {
 297:.\Generated_Source\PSoC5/cyfitter_cfg.c **** 			/* address, size */
 298:.\Generated_Source\PSoC5/cyfitter_cfg.c **** 			{(void CYFAR *)(CYREG_PRT0_DR), 32u},
 299:.\Generated_Source\PSoC5/cyfitter_cfg.c **** 			{(void CYFAR *)(CYREG_PRT3_DR), 32u},
 300:.\Generated_Source\PSoC5/cyfitter_cfg.c **** 			{(void CYFAR *)(CYREG_PRT6_DR), 16u},
 301:.\Generated_Source\PSoC5/cyfitter_cfg.c **** 			{(void CYFAR *)(CYREG_PRT12_DR), 16u},
 302:.\Generated_Source\PSoC5/cyfitter_cfg.c **** 			{(void CYFAR *)(CYREG_PRT15_DR), 16u},
 303:.\Generated_Source\PSoC5/cyfitter_cfg.c **** 			{(void CYFAR *)(CYDEV_UCFG_B0_P0_U0_BASE), 4096u},
 304:.\Generated_Source\PSoC5/cyfitter_cfg.c **** 			{(void CYFAR *)(CYDEV_UCFG_B1_P2_U0_BASE), 2048u},
 305:.\Generated_Source\PSoC5/cyfitter_cfg.c **** 			{(void CYFAR *)(CYDEV_UCFG_DSI0_BASE), 2560u},
 306:.\Generated_Source\PSoC5/cyfitter_cfg.c **** 			{(void CYFAR *)(CYDEV_UCFG_DSI12_BASE), 512u},
 307:.\Generated_Source\PSoC5/cyfitter_cfg.c **** 			{(void CYFAR *)(CYREG_BCTL0_MDCLK_EN), 32u},
ARM GAS  C:\Users\Rolando\AppData\Local\Temp\ccqnczYj.s 			page 10


 308:.\Generated_Source\PSoC5/cyfitter_cfg.c **** 		};
 309:.\Generated_Source\PSoC5/cyfitter_cfg.c **** 
 310:.\Generated_Source\PSoC5/cyfitter_cfg.c **** 		uint8 CYDATA i;
 311:.\Generated_Source\PSoC5/cyfitter_cfg.c **** 
 312:.\Generated_Source\PSoC5/cyfitter_cfg.c **** 		/* Zero out critical memory blocks before beginning configuration */
 313:.\Generated_Source\PSoC5/cyfitter_cfg.c **** 		for (i = 0u; i < (sizeof(cfg_memset_list)/sizeof(cfg_memset_list[0])); i++)
 314:.\Generated_Source\PSoC5/cyfitter_cfg.c **** 		{
 315:.\Generated_Source\PSoC5/cyfitter_cfg.c **** 			const cfg_memset_t CYCODE * CYDATA ms = &cfg_memset_list[i];
 316:.\Generated_Source\PSoC5/cyfitter_cfg.c **** 			CYMEMZERO(ms->address, (size_t)(uint32)(ms->size));
 182              		.loc 1 316 0 discriminator 3
 183 0088 2F4A     		ldr	r2, .L17+32
 184 008a 0623     		movs	r3, #6
 185 008c 03FB0423 		mla	r3, r3, r4, r2
 186              	.LBB30:
 187              	.LBB31:
  64:.\Generated_Source\PSoC5/cyfitter_cfg.c **** }
 188              		.loc 1 64 0 discriminator 3
 189 0090 0021     		movs	r1, #0
 190 0092 1868     		ldr	r0, [r3]	@ unaligned
 191 0094 9A88     		ldrh	r2, [r3, #4]	@ unaligned
 192 0096 0134     		adds	r4, r4, #1
 193              	.LVL14:
 194 0098 FFF7FEFF 		bl	memset
 195              	.LVL15:
 196              	.LBE31:
 197              	.LBE30:
 198              	.LBE29:
 313:.\Generated_Source\PSoC5/cyfitter_cfg.c **** 		{
 199              		.loc 1 313 0 discriminator 3
 200 009c 0A2C     		cmp	r4, #10
 201 009e F3D1     		bne	.L11
 317:.\Generated_Source\PSoC5/cyfitter_cfg.c **** 		}
 318:.\Generated_Source\PSoC5/cyfitter_cfg.c **** 
 319:.\Generated_Source\PSoC5/cyfitter_cfg.c **** 		/* Enable digital routing */
 320:.\Generated_Source\PSoC5/cyfitter_cfg.c **** 		CY_SET_XTND_REG8((void CYFAR *)CYREG_BCTL0_BANK_CTL, CY_GET_XTND_REG8((void CYFAR *)CYREG_BCTL0_B
 202              		.loc 1 320 0
 203 00a0 2A4A     		ldr	r2, .L17+36
 321:.\Generated_Source\PSoC5/cyfitter_cfg.c **** 		CY_SET_XTND_REG8((void CYFAR *)CYREG_BCTL1_BANK_CTL, CY_GET_XTND_REG8((void CYFAR *)CYREG_BCTL1_B
 322:.\Generated_Source\PSoC5/cyfitter_cfg.c **** 
 323:.\Generated_Source\PSoC5/cyfitter_cfg.c **** 		/* Enable UDB array */
 324:.\Generated_Source\PSoC5/cyfitter_cfg.c **** 		CY_SET_XTND_REG8((void CYFAR *)CYREG_PM_ACT_CFG0, CY_GET_XTND_REG8((void CYFAR *)CYREG_PM_ACT_CFG
 325:.\Generated_Source\PSoC5/cyfitter_cfg.c **** 		CY_SET_XTND_REG8((void CYFAR *)CYREG_PM_AVAIL_CR2, CY_GET_XTND_REG8((void CYFAR *)CYREG_PM_AVAIL_
 204              		.loc 1 325 0
 205 00a2 2B49     		ldr	r1, .L17+40
 320:.\Generated_Source\PSoC5/cyfitter_cfg.c **** 		CY_SET_XTND_REG8((void CYFAR *)CYREG_BCTL1_BANK_CTL, CY_GET_XTND_REG8((void CYFAR *)CYREG_BCTL1_B
 206              		.loc 1 320 0
 207 00a4 1378     		ldrb	r3, [r2]	@ zero_extendqisi2
 208              	.LBE28:
 209              	.LBB32:
 210              	.LBB33:
  71:.\Generated_Source\PSoC5/cyfitter_cfg.c **** }
 211              		.loc 1 71 0
 212 00a6 2B4C     		ldr	r4, .L17+44
 213              	.LVL16:
 214              	.LBE33:
 215              	.LBE32:
 216              	.LBB35:
ARM GAS  C:\Users\Rolando\AppData\Local\Temp\ccqnczYj.s 			page 11


 320:.\Generated_Source\PSoC5/cyfitter_cfg.c **** 		CY_SET_XTND_REG8((void CYFAR *)CYREG_BCTL1_BANK_CTL, CY_GET_XTND_REG8((void CYFAR *)CYREG_BCTL1_B
 217              		.loc 1 320 0
 218 00a8 43F00203 		orr	r3, r3, #2
 219 00ac 1370     		strb	r3, [r2]
 321:.\Generated_Source\PSoC5/cyfitter_cfg.c **** 		CY_SET_XTND_REG8((void CYFAR *)CYREG_BCTL1_BANK_CTL, CY_GET_XTND_REG8((void CYFAR *)CYREG_BCTL1_B
 220              		.loc 1 321 0
 221 00ae 137C     		ldrb	r3, [r2, #16]	@ zero_extendqisi2
 222              	.LBE35:
 223              	.LBB36:
 224              	.LBB37:
  71:.\Generated_Source\PSoC5/cyfitter_cfg.c **** }
 225              		.loc 1 71 0
 226 00b0 A4F67254 		subw	r4, r4, #3442
 227              	.LBE37:
 228              	.LBE36:
 229              	.LBB39:
 321:.\Generated_Source\PSoC5/cyfitter_cfg.c **** 		CY_SET_XTND_REG8((void CYFAR *)CYREG_BCTL1_BANK_CTL, CY_GET_XTND_REG8((void CYFAR *)CYREG_BCTL1_B
 230              		.loc 1 321 0
 231 00b4 43F00203 		orr	r3, r3, #2
 232 00b8 1374     		strb	r3, [r2, #16]
 324:.\Generated_Source\PSoC5/cyfitter_cfg.c **** 		CY_SET_XTND_REG8((void CYFAR *)CYREG_PM_AVAIL_CR2, CY_GET_XTND_REG8((void CYFAR *)CYREG_PM_AVAIL_
 233              		.loc 1 324 0
 234 00ba A2F58632 		sub	r2, r2, #68608
 235 00be 633A     		subs	r2, r2, #99
 236 00c0 1378     		ldrb	r3, [r2]	@ zero_extendqisi2
 237 00c2 43F04003 		orr	r3, r3, #64
 238 00c6 1370     		strb	r3, [r2]
 239              		.loc 1 325 0
 240 00c8 0B78     		ldrb	r3, [r1]	@ zero_extendqisi2
 241 00ca 43F01003 		orr	r3, r3, #16
 242 00ce 0B70     		strb	r3, [r1]
 243              	.LVL17:
 244              	.LBE39:
 245              	.LBB40:
 246              	.LBB34:
  71:.\Generated_Source\PSoC5/cyfitter_cfg.c **** }
 247              		.loc 1 71 0
 248 00d0 4FF09043 		mov	r3, #1207959552
 249 00d4 03CB     		ldmia	r3!, {r0, r1}
 250 00d6 C4F8720D 		str	r0, [r4, #3442]	@ unaligned
 251 00da C4F8761D 		str	r1, [r4, #3446]	@ unaligned
 252              	.LVL18:
 253              	.LBE34:
 254              	.LBE40:
 255              	.LBB41:
 256              	.LBB42:
 257 00de 03CB     		ldmia	r3!, {r0, r1}
 258 00e0 C4F8A61D 		str	r1, [r4, #3494]	@ unaligned
 259              	.LBE42:
 260              	.LBE41:
 326:.\Generated_Source\PSoC5/cyfitter_cfg.c **** 	}
 327:.\Generated_Source\PSoC5/cyfitter_cfg.c **** 
 328:.\Generated_Source\PSoC5/cyfitter_cfg.c **** 
 329:.\Generated_Source\PSoC5/cyfitter_cfg.c **** 	/* Perform second pass device configuration. These items must be configured in specific order afte
 330:.\Generated_Source\PSoC5/cyfitter_cfg.c **** 	CYCONFIGCPY((void CYFAR *)(CYREG_PRT2_DM0), (const void CYFAR *)(BS_IOPINS0_2_VAL), 8u);
 331:.\Generated_Source\PSoC5/cyfitter_cfg.c **** 	CYCONFIGCPY((void CYFAR *)(CYREG_PRT5_DM0), (const void CYFAR *)(BS_IOPINS0_5_VAL), 8u);
 332:.\Generated_Source\PSoC5/cyfitter_cfg.c **** 	/* Switch Boost to the precision bandgap reference from its internal reference */
ARM GAS  C:\Users\Rolando\AppData\Local\Temp\ccqnczYj.s 			page 12


 333:.\Generated_Source\PSoC5/cyfitter_cfg.c **** 	CY_SET_REG8((void CYXDATA *)CYREG_BOOST_CR2, (CY_GET_REG8((void CYXDATA *)CYREG_BOOST_CR2) | 0x08u
 261              		.loc 1 333 0
 262 00e4 1C49     		ldr	r1, .L17+48
 263              	.LBB44:
 264              	.LBB43:
  71:.\Generated_Source\PSoC5/cyfitter_cfg.c **** }
 265              		.loc 1 71 0
 266 00e6 C4F8A20D 		str	r0, [r4, #3490]	@ unaligned
 267              	.LBE43:
 268              	.LBE44:
 269              		.loc 1 333 0
 270 00ea 0B78     		ldrb	r3, [r1]	@ zero_extendqisi2
 271 00ec 43F00803 		orr	r3, r3, #8
 272 00f0 0B70     		strb	r3, [r1]
 334:.\Generated_Source\PSoC5/cyfitter_cfg.c **** 	CY_SET_XTND_REG8((void CYFAR *)(CYREG_PANTHER_WAITPIPE), 0x01u);
 273              		.loc 1 334 0
 274 00f2 1A4B     		ldr	r3, .L17+52
 275 00f4 0121     		movs	r1, #1
 276 00f6 1970     		strb	r1, [r3]
 277              	.LBB45:
 278              	.LBB46:
 212:.\Generated_Source\PSoC5/cyfitter_cfg.c **** 	CY_SET_XTND_REG8((void CYFAR *)(CYREG_BG_DFT0), (bg_xover_inl_trim & 0x07u));
 279              		.loc 1 212 0
 280 00f8 194B     		ldr	r3, .L17+56
 213:.\Generated_Source\PSoC5/cyfitter_cfg.c **** 	CY_SET_XTND_REG8((void CYFAR *)(CYREG_BG_DFT1), ((bg_xover_inl_trim >> 4) & 0x0Fu));
 281              		.loc 1 213 0
 282 00fa 1A49     		ldr	r1, .L17+60
 212:.\Generated_Source\PSoC5/cyfitter_cfg.c **** 	CY_SET_XTND_REG8((void CYFAR *)(CYREG_BG_DFT0), (bg_xover_inl_trim & 0x07u));
 283              		.loc 1 212 0
 284 00fc 1B78     		ldrb	r3, [r3]	@ zero_extendqisi2
 285 00fe DBB2     		uxtb	r3, r3
 286              	.LVL19:
 213:.\Generated_Source\PSoC5/cyfitter_cfg.c **** 	CY_SET_XTND_REG8((void CYFAR *)(CYREG_BG_DFT1), ((bg_xover_inl_trim >> 4) & 0x0Fu));
 287              		.loc 1 213 0
 288 0100 03F00700 		and	r0, r3, #7
 289 0104 0870     		strb	r0, [r1]
 214:.\Generated_Source\PSoC5/cyfitter_cfg.c **** 	CY_SET_XTND_REG8((void CYFAR *)CYREG_PRT5_AG, 0x02u);
 290              		.loc 1 214 0
 291 0106 1B09     		lsrs	r3, r3, #4
 292              	.LVL20:
 215:.\Generated_Source\PSoC5/cyfitter_cfg.c **** 	CY_SET_XTND_REG8((void CYFAR *)CYREG_DAC1_SW0, 0x02u);
 293              		.loc 1 215 0
 294 0108 6FF4E260 		mvn	r0, #1808
 214:.\Generated_Source\PSoC5/cyfitter_cfg.c **** 	CY_SET_XTND_REG8((void CYFAR *)CYREG_PRT5_AG, 0x02u);
 295              		.loc 1 214 0
 296 010c 4B70     		strb	r3, [r1, #1]
 215:.\Generated_Source\PSoC5/cyfitter_cfg.c **** 	CY_SET_XTND_REG8((void CYFAR *)CYREG_DAC1_SW0, 0x02u);
 297              		.loc 1 215 0
 298 010e 0144     		add	r1, r1, r0
 299 0110 0223     		movs	r3, #2
 300 0112 0B70     		strb	r3, [r1]
 216:.\Generated_Source\PSoC5/cyfitter_cfg.c **** 	CY_SET_XTND_REG8((void CYFAR *)CYREG_PUMP_CR0, 0x66u);
 301              		.loc 1 216 0
 302 0114 81F82B39 		strb	r3, [r1, #2347]
 217:.\Generated_Source\PSoC5/cyfitter_cfg.c **** }
 303              		.loc 1 217 0
 304 0118 134B     		ldr	r3, .L17+64
ARM GAS  C:\Users\Rolando\AppData\Local\Temp\ccqnczYj.s 			page 13


 305 011a 6621     		movs	r1, #102
 306 011c 1970     		strb	r1, [r3]
 307              	.LVL21:
 308              	.LBE46:
 309              	.LBE45:
 310              	.LBB47:
 311              	.LBB38:
  71:.\Generated_Source\PSoC5/cyfitter_cfg.c **** }
 312              		.loc 1 71 0
 313 011e 0FCA     		ldmia	r2, {r0, r1, r2, r3}
 314 0120 07C4     		stmia	r4!, {r0, r1, r2}
 315 0122 2380     		strh	r3, [r4]	@ movhi
 316 0124 38BD     		pop	{r3, r4, r5, pc}
 317              	.LVL22:
 318              	.L18:
 319 0126 00BF     		.align	2
 320              	.L17:
 321 0128 00480040 		.word	1073760256
 322 012c 08010049 		.word	1224737032
 323 0130 A1460040 		.word	1073759905
 324 0134 22420040 		.word	1073758754
 325 0138 25420040 		.word	1073758757
 326 013c 04400040 		.word	1073758212
 327 0140 06400040 		.word	1073758214
 328 0144 E8460040 		.word	1073759976
 329 0148 00000000 		.word	.LANCHOR0
 330 014c 03500140 		.word	1073827843
 331 0150 C2430040 		.word	1073759170
 332 0154 22510040 		.word	1073762594
 333 0158 22430040 		.word	1073759010
 334 015c 04000840 		.word	1074266116
 335 0160 CF010049 		.word	1224737231
 336 0164 6E580040 		.word	1073764462
 337 0168 76580040 		.word	1073764470
 338              	.LBE38:
 339              	.LBE47:
 340              		.cfi_endproc
 341              	.LFE7:
 342              		.size	cyfitter_cfg, .-cyfitter_cfg
 343              		.section	.rodata
 344              		.set	.LANCHOR0,. + 0
 345              		.type	cfg_memset_list.4859, %object
 346              		.size	cfg_memset_list.4859, 60
 347              	cfg_memset_list.4859:
 348 0000 00510040 		.4byte	1073762560
 349 0004 2000     		.2byte	32
 350 0006 30510040 		.4byte	1073762608
 351 000a 2000     		.2byte	32
 352 000c 60510040 		.4byte	1073762656
 353 0010 1000     		.2byte	16
 354 0012 C0510040 		.4byte	1073762752
 355 0016 1000     		.2byte	16
 356 0018 F0510040 		.4byte	1073762800
 357 001c 1000     		.2byte	16
 358 001e 00000140 		.4byte	1073807360
 359 0022 0010     		.2byte	4096
 360 0024 00140140 		.4byte	1073812480
ARM GAS  C:\Users\Rolando\AppData\Local\Temp\ccqnczYj.s 			page 14


 361 0028 0008     		.2byte	2048
 362 002a 00400140 		.4byte	1073823744
 363 002e 000A     		.2byte	2560
 364 0030 004C0140 		.4byte	1073826816
 365 0034 0002     		.2byte	512
 366 0036 00500140 		.4byte	1073827840
 367 003a 2000     		.2byte	32
 368              		.text
 369              	.Letext0:
 370              		.file 2 "c:\\program files (x86)\\cypress\\psoc creator\\3.3\\psoc creator\\import\\gnu\\arm\\4.9.
 371              		.file 3 ".\\Generated_Source\\PSoC5\\cytypes.h"
 372              		.file 4 ".\\Generated_Source\\PSoC5\\CyLib.h"