ARM GAS  C:\Users\Rolando\AppData\Local\Temp\ccQSghZP.s 			page 1


   1              		.syntax unified
   2              		.cpu cortex-m3
   3              		.fpu softvfp
   4              		.eabi_attribute 20, 1
   5              		.eabi_attribute 21, 1
   6              		.eabi_attribute 23, 3
   7              		.eabi_attribute 24, 1
   8              		.eabi_attribute 25, 1
   9              		.eabi_attribute 26, 1
  10              		.eabi_attribute 30, 6
  11              		.eabi_attribute 34, 1
  12              		.eabi_attribute 18, 4
  13              		.thumb
  14              		.file	"cyfitter_cfg.c"
  15              		.text
  16              	.Ltext0:
  17              		.cfi_sections	.debug_frame
  18              		.section	.text.CYMEMZERO,"ax",%progbits
  19              		.align	2
  20              		.thumb
  21              		.thumb_func
  22              		.type	CYMEMZERO, %function
  23              	CYMEMZERO:
  24              	.LFB0:
  25              		.file 1 ".\\Generated_Source\\PSoC5\\cyfitter_cfg.c"
   1:.\Generated_Source\PSoC5/cyfitter_cfg.c **** /*******************************************************************************
   2:.\Generated_Source\PSoC5/cyfitter_cfg.c **** * File Name: cyfitter_cfg.c
   3:.\Generated_Source\PSoC5/cyfitter_cfg.c **** * 
   4:.\Generated_Source\PSoC5/cyfitter_cfg.c **** * PSoC Creator  3.3 SP1
   5:.\Generated_Source\PSoC5/cyfitter_cfg.c **** *
   6:.\Generated_Source\PSoC5/cyfitter_cfg.c **** * Description:
   7:.\Generated_Source\PSoC5/cyfitter_cfg.c **** * This file contains device initialization code.
   8:.\Generated_Source\PSoC5/cyfitter_cfg.c **** * Except for the user defined sections in CyClockStartupError(), this file should not be modified.
   9:.\Generated_Source\PSoC5/cyfitter_cfg.c **** * This file is automatically generated by PSoC Creator.
  10:.\Generated_Source\PSoC5/cyfitter_cfg.c **** *
  11:.\Generated_Source\PSoC5/cyfitter_cfg.c **** ********************************************************************************
  12:.\Generated_Source\PSoC5/cyfitter_cfg.c **** * Copyright (c) 2007-2015 Cypress Semiconductor.  All rights reserved.
  13:.\Generated_Source\PSoC5/cyfitter_cfg.c **** * You may use this file only in accordance with the license, terms, conditions, 
  14:.\Generated_Source\PSoC5/cyfitter_cfg.c **** * disclaimers, and limitations in the end user license agreement accompanying 
  15:.\Generated_Source\PSoC5/cyfitter_cfg.c **** * the software package with which this file was provided.
  16:.\Generated_Source\PSoC5/cyfitter_cfg.c **** ********************************************************************************/
  17:.\Generated_Source\PSoC5/cyfitter_cfg.c **** 
  18:.\Generated_Source\PSoC5/cyfitter_cfg.c **** #include <string.h>
  19:.\Generated_Source\PSoC5/cyfitter_cfg.c **** #include "cytypes.h"
  20:.\Generated_Source\PSoC5/cyfitter_cfg.c **** #include "cydevice_trm.h"
  21:.\Generated_Source\PSoC5/cyfitter_cfg.c **** #include "cyfitter.h"
  22:.\Generated_Source\PSoC5/cyfitter_cfg.c **** #include "CyLib.h"
  23:.\Generated_Source\PSoC5/cyfitter_cfg.c **** #include "cyfitter_cfg.h"
  24:.\Generated_Source\PSoC5/cyfitter_cfg.c **** 
  25:.\Generated_Source\PSoC5/cyfitter_cfg.c **** #define CY_NEED_CYCLOCKSTARTUPERROR 1
  26:.\Generated_Source\PSoC5/cyfitter_cfg.c **** 
  27:.\Generated_Source\PSoC5/cyfitter_cfg.c **** 
  28:.\Generated_Source\PSoC5/cyfitter_cfg.c **** #if defined(__GNUC__) || defined(__ARMCC_VERSION)
  29:.\Generated_Source\PSoC5/cyfitter_cfg.c ****     #define CYPACKED 
  30:.\Generated_Source\PSoC5/cyfitter_cfg.c ****     #define CYPACKED_ATTR __attribute__ ((packed))
  31:.\Generated_Source\PSoC5/cyfitter_cfg.c ****     #define CYALIGNED __attribute__ ((aligned))
  32:.\Generated_Source\PSoC5/cyfitter_cfg.c ****     #define CY_CFG_UNUSED __attribute__ ((unused))
ARM GAS  C:\Users\Rolando\AppData\Local\Temp\ccQSghZP.s 			page 2


  33:.\Generated_Source\PSoC5/cyfitter_cfg.c ****     #ifndef CY_CFG_SECTION
  34:.\Generated_Source\PSoC5/cyfitter_cfg.c ****         #define CY_CFG_SECTION __attribute__ ((section(".psocinit")))
  35:.\Generated_Source\PSoC5/cyfitter_cfg.c ****     #endif
  36:.\Generated_Source\PSoC5/cyfitter_cfg.c ****     
  37:.\Generated_Source\PSoC5/cyfitter_cfg.c ****     #if CYDEV_CONFIGURATION_DMA
  38:.\Generated_Source\PSoC5/cyfitter_cfg.c ****         #if (defined(__ARMCC_VERSION) || defined(__GNUC__))
  39:.\Generated_Source\PSoC5/cyfitter_cfg.c ****             #ifndef DMAINITSEC
  40:.\Generated_Source\PSoC5/cyfitter_cfg.c ****                 #define DMAINITSEC __attribute__ ((section(".dma_init")))
  41:.\Generated_Source\PSoC5/cyfitter_cfg.c ****             #endif
  42:.\Generated_Source\PSoC5/cyfitter_cfg.c ****         #elif defined(__ICCARM__)
  43:.\Generated_Source\PSoC5/cyfitter_cfg.c ****             #define DMAINITSEC _Pragma("location=\".dma_init\"")
  44:.\Generated_Source\PSoC5/cyfitter_cfg.c ****         #endif
  45:.\Generated_Source\PSoC5/cyfitter_cfg.c ****     #else
  46:.\Generated_Source\PSoC5/cyfitter_cfg.c ****         #define DMAINITSEC
  47:.\Generated_Source\PSoC5/cyfitter_cfg.c ****     #endif
  48:.\Generated_Source\PSoC5/cyfitter_cfg.c **** 
  49:.\Generated_Source\PSoC5/cyfitter_cfg.c ****     #if defined(__ARMCC_VERSION)
  50:.\Generated_Source\PSoC5/cyfitter_cfg.c ****         #define CY_CFG_MEMORY_BARRIER() __memory_changed()
  51:.\Generated_Source\PSoC5/cyfitter_cfg.c ****     #else
  52:.\Generated_Source\PSoC5/cyfitter_cfg.c ****         #define CY_CFG_MEMORY_BARRIER() __sync_synchronize()
  53:.\Generated_Source\PSoC5/cyfitter_cfg.c ****     #endif
  54:.\Generated_Source\PSoC5/cyfitter_cfg.c ****     
  55:.\Generated_Source\PSoC5/cyfitter_cfg.c **** #elif defined(__ICCARM__)
  56:.\Generated_Source\PSoC5/cyfitter_cfg.c ****     #include <intrinsics.h>
  57:.\Generated_Source\PSoC5/cyfitter_cfg.c **** 
  58:.\Generated_Source\PSoC5/cyfitter_cfg.c ****     #define CYPACKED __packed
  59:.\Generated_Source\PSoC5/cyfitter_cfg.c ****     #define CYPACKED_ATTR 
  60:.\Generated_Source\PSoC5/cyfitter_cfg.c ****     #define CYALIGNED _Pragma("data_alignment=4")
  61:.\Generated_Source\PSoC5/cyfitter_cfg.c ****     #define CY_CFG_UNUSED _Pragma("diag_suppress=Pe177")
  62:.\Generated_Source\PSoC5/cyfitter_cfg.c ****     #define CY_CFG_SECTION _Pragma("location=\".psocinit\"")
  63:.\Generated_Source\PSoC5/cyfitter_cfg.c ****     
  64:.\Generated_Source\PSoC5/cyfitter_cfg.c ****     #if CYDEV_CONFIGURATION_DMA
  65:.\Generated_Source\PSoC5/cyfitter_cfg.c ****         #if (defined(__ARMCC_VERSION) || defined(__GNUC__))
  66:.\Generated_Source\PSoC5/cyfitter_cfg.c ****             #ifndef DMAINITSEC
  67:.\Generated_Source\PSoC5/cyfitter_cfg.c ****                 #define DMAINITSEC __attribute__ ((section(".dma_init")))
  68:.\Generated_Source\PSoC5/cyfitter_cfg.c ****             #endif
  69:.\Generated_Source\PSoC5/cyfitter_cfg.c ****         #elif defined(__ICCARM__)
  70:.\Generated_Source\PSoC5/cyfitter_cfg.c ****             #define DMAINITSEC _Pragma("location=\".dma_init\"")
  71:.\Generated_Source\PSoC5/cyfitter_cfg.c ****         #endif
  72:.\Generated_Source\PSoC5/cyfitter_cfg.c ****     #else
  73:.\Generated_Source\PSoC5/cyfitter_cfg.c ****         #define DMAINITSEC
  74:.\Generated_Source\PSoC5/cyfitter_cfg.c ****     #endif
  75:.\Generated_Source\PSoC5/cyfitter_cfg.c **** 
  76:.\Generated_Source\PSoC5/cyfitter_cfg.c ****     #define CY_CFG_MEMORY_BARRIER() __DMB()
  77:.\Generated_Source\PSoC5/cyfitter_cfg.c ****     
  78:.\Generated_Source\PSoC5/cyfitter_cfg.c **** #else
  79:.\Generated_Source\PSoC5/cyfitter_cfg.c ****     #error Unsupported toolchain
  80:.\Generated_Source\PSoC5/cyfitter_cfg.c **** #endif
  81:.\Generated_Source\PSoC5/cyfitter_cfg.c **** 
  82:.\Generated_Source\PSoC5/cyfitter_cfg.c **** 
  83:.\Generated_Source\PSoC5/cyfitter_cfg.c **** CY_CFG_UNUSED
  84:.\Generated_Source\PSoC5/cyfitter_cfg.c **** static void CYMEMZERO(void *s, size_t n);
  85:.\Generated_Source\PSoC5/cyfitter_cfg.c **** CY_CFG_UNUSED
  86:.\Generated_Source\PSoC5/cyfitter_cfg.c **** static void CYMEMZERO(void *s, size_t n)
  87:.\Generated_Source\PSoC5/cyfitter_cfg.c **** {
  26              		.loc 1 87 0
  27              		.cfi_startproc
ARM GAS  C:\Users\Rolando\AppData\Local\Temp\ccQSghZP.s 			page 3


  28              		@ args = 0, pretend = 0, frame = 8
  29              		@ frame_needed = 1, uses_anonymous_args = 0
  30 0000 80B5     		push	{r7, lr}
  31              		.cfi_def_cfa_offset 8
  32              		.cfi_offset 7, -8
  33              		.cfi_offset 14, -4
  34 0002 82B0     		sub	sp, sp, #8
  35              		.cfi_def_cfa_offset 16
  36 0004 00AF     		add	r7, sp, #0
  37              		.cfi_def_cfa_register 7
  38 0006 7860     		str	r0, [r7, #4]
  39 0008 3960     		str	r1, [r7]
  88:.\Generated_Source\PSoC5/cyfitter_cfg.c **** 	(void)memset(s, 0, n);
  40              		.loc 1 88 0
  41 000a 7868     		ldr	r0, [r7, #4]
  42 000c 0021     		movs	r1, #0
  43 000e 3A68     		ldr	r2, [r7]
  44 0010 FFF7FEFF 		bl	memset
  89:.\Generated_Source\PSoC5/cyfitter_cfg.c **** }
  45              		.loc 1 89 0
  46 0014 0837     		adds	r7, r7, #8
  47              		.cfi_def_cfa_offset 8
  48 0016 BD46     		mov	sp, r7
  49              		.cfi_def_cfa_register 13
  50              		@ sp needed
  51 0018 80BD     		pop	{r7, pc}
  52              		.cfi_endproc
  53              	.LFE0:
  54              		.size	CYMEMZERO, .-CYMEMZERO
  55 001a 00BF     		.section	.text.CYCONFIGCPY,"ax",%progbits
  56              		.align	2
  57              		.thumb
  58              		.thumb_func
  59              		.type	CYCONFIGCPY, %function
  60              	CYCONFIGCPY:
  61              	.LFB1:
  90:.\Generated_Source\PSoC5/cyfitter_cfg.c **** CY_CFG_UNUSED
  91:.\Generated_Source\PSoC5/cyfitter_cfg.c **** static void CYCONFIGCPY(void *dest, const void *src, size_t n);
  92:.\Generated_Source\PSoC5/cyfitter_cfg.c **** CY_CFG_UNUSED
  93:.\Generated_Source\PSoC5/cyfitter_cfg.c **** static void CYCONFIGCPY(void *dest, const void *src, size_t n)
  94:.\Generated_Source\PSoC5/cyfitter_cfg.c **** {
  62              		.loc 1 94 0
  63              		.cfi_startproc
  64              		@ args = 0, pretend = 0, frame = 16
  65              		@ frame_needed = 1, uses_anonymous_args = 0
  66 0000 80B5     		push	{r7, lr}
  67              		.cfi_def_cfa_offset 8
  68              		.cfi_offset 7, -8
  69              		.cfi_offset 14, -4
  70 0002 84B0     		sub	sp, sp, #16
  71              		.cfi_def_cfa_offset 24
  72 0004 00AF     		add	r7, sp, #0
  73              		.cfi_def_cfa_register 7
  74 0006 F860     		str	r0, [r7, #12]
  75 0008 B960     		str	r1, [r7, #8]
  76 000a 7A60     		str	r2, [r7, #4]
  95:.\Generated_Source\PSoC5/cyfitter_cfg.c **** 	(void)memcpy(dest, src, n);
ARM GAS  C:\Users\Rolando\AppData\Local\Temp\ccQSghZP.s 			page 4


  77              		.loc 1 95 0
  78 000c F868     		ldr	r0, [r7, #12]
  79 000e B968     		ldr	r1, [r7, #8]
  80 0010 7A68     		ldr	r2, [r7, #4]
  81 0012 FFF7FEFF 		bl	memcpy
  96:.\Generated_Source\PSoC5/cyfitter_cfg.c **** }
  82              		.loc 1 96 0
  83 0016 1037     		adds	r7, r7, #16
  84              		.cfi_def_cfa_offset 8
  85 0018 BD46     		mov	sp, r7
  86              		.cfi_def_cfa_register 13
  87              		@ sp needed
  88 001a 80BD     		pop	{r7, pc}
  89              		.cfi_endproc
  90              	.LFE1:
  91              		.size	CYCONFIGCPY, .-CYCONFIGCPY
  92              		.section	.text.CYCONFIGCPYCODE,"ax",%progbits
  93              		.align	2
  94              		.thumb
  95              		.thumb_func
  96              		.type	CYCONFIGCPYCODE, %function
  97              	CYCONFIGCPYCODE:
  98              	.LFB2:
  97:.\Generated_Source\PSoC5/cyfitter_cfg.c **** CY_CFG_UNUSED
  98:.\Generated_Source\PSoC5/cyfitter_cfg.c **** static void CYCONFIGCPYCODE(void *dest, const void *src, size_t n);
  99:.\Generated_Source\PSoC5/cyfitter_cfg.c **** CY_CFG_UNUSED
 100:.\Generated_Source\PSoC5/cyfitter_cfg.c **** static void CYCONFIGCPYCODE(void *dest, const void *src, size_t n)
 101:.\Generated_Source\PSoC5/cyfitter_cfg.c **** {
  99              		.loc 1 101 0
 100              		.cfi_startproc
 101              		@ args = 0, pretend = 0, frame = 16
 102              		@ frame_needed = 1, uses_anonymous_args = 0
 103 0000 80B5     		push	{r7, lr}
 104              		.cfi_def_cfa_offset 8
 105              		.cfi_offset 7, -8
 106              		.cfi_offset 14, -4
 107 0002 84B0     		sub	sp, sp, #16
 108              		.cfi_def_cfa_offset 24
 109 0004 00AF     		add	r7, sp, #0
 110              		.cfi_def_cfa_register 7
 111 0006 F860     		str	r0, [r7, #12]
 112 0008 B960     		str	r1, [r7, #8]
 113 000a 7A60     		str	r2, [r7, #4]
 102:.\Generated_Source\PSoC5/cyfitter_cfg.c **** 	(void)memcpy(dest, src, n);
 114              		.loc 1 102 0
 115 000c F868     		ldr	r0, [r7, #12]
 116 000e B968     		ldr	r1, [r7, #8]
 117 0010 7A68     		ldr	r2, [r7, #4]
 118 0012 FFF7FEFF 		bl	memcpy
 103:.\Generated_Source\PSoC5/cyfitter_cfg.c **** }
 119              		.loc 1 103 0
 120 0016 1037     		adds	r7, r7, #16
 121              		.cfi_def_cfa_offset 8
 122 0018 BD46     		mov	sp, r7
 123              		.cfi_def_cfa_register 13
 124              		@ sp needed
 125 001a 80BD     		pop	{r7, pc}
ARM GAS  C:\Users\Rolando\AppData\Local\Temp\ccQSghZP.s 			page 5


 126              		.cfi_endproc
 127              	.LFE2:
 128              		.size	CYCONFIGCPYCODE, .-CYCONFIGCPYCODE
 129              		.section	.text.CyClockStartupError,"ax",%progbits
 130              		.align	2
 131              		.thumb
 132              		.thumb_func
 133              		.type	CyClockStartupError, %function
 134              	CyClockStartupError:
 135              	.LFB3:
 104:.\Generated_Source\PSoC5/cyfitter_cfg.c **** 
 105:.\Generated_Source\PSoC5/cyfitter_cfg.c **** 
 106:.\Generated_Source\PSoC5/cyfitter_cfg.c **** 
 107:.\Generated_Source\PSoC5/cyfitter_cfg.c **** /* Clock startup error codes                                                   */
 108:.\Generated_Source\PSoC5/cyfitter_cfg.c **** #define CYCLOCKSTART_NO_ERROR    0u
 109:.\Generated_Source\PSoC5/cyfitter_cfg.c **** #define CYCLOCKSTART_XTAL_ERROR  1u
 110:.\Generated_Source\PSoC5/cyfitter_cfg.c **** #define CYCLOCKSTART_32KHZ_ERROR 2u
 111:.\Generated_Source\PSoC5/cyfitter_cfg.c **** #define CYCLOCKSTART_PLL_ERROR   3u
 112:.\Generated_Source\PSoC5/cyfitter_cfg.c **** 
 113:.\Generated_Source\PSoC5/cyfitter_cfg.c **** #ifdef CY_NEED_CYCLOCKSTARTUPERROR
 114:.\Generated_Source\PSoC5/cyfitter_cfg.c **** /*******************************************************************************
 115:.\Generated_Source\PSoC5/cyfitter_cfg.c **** * Function Name: CyClockStartupError
 116:.\Generated_Source\PSoC5/cyfitter_cfg.c **** ********************************************************************************
 117:.\Generated_Source\PSoC5/cyfitter_cfg.c **** * Summary:
 118:.\Generated_Source\PSoC5/cyfitter_cfg.c **** *  If an error is encountered during clock configuration (crystal startup error,
 119:.\Generated_Source\PSoC5/cyfitter_cfg.c **** *  PLL lock error, etc.), the system will end up here.  Unless reimplemented by
 120:.\Generated_Source\PSoC5/cyfitter_cfg.c **** *  the customer, this function will stop in an infinite loop.
 121:.\Generated_Source\PSoC5/cyfitter_cfg.c **** *
 122:.\Generated_Source\PSoC5/cyfitter_cfg.c **** * Parameters:
 123:.\Generated_Source\PSoC5/cyfitter_cfg.c **** *   void
 124:.\Generated_Source\PSoC5/cyfitter_cfg.c **** *
 125:.\Generated_Source\PSoC5/cyfitter_cfg.c **** * Return:
 126:.\Generated_Source\PSoC5/cyfitter_cfg.c **** *   void
 127:.\Generated_Source\PSoC5/cyfitter_cfg.c **** *
 128:.\Generated_Source\PSoC5/cyfitter_cfg.c **** *******************************************************************************/
 129:.\Generated_Source\PSoC5/cyfitter_cfg.c **** CY_CFG_UNUSED
 130:.\Generated_Source\PSoC5/cyfitter_cfg.c **** static void CyClockStartupError(uint8 errorCode);
 131:.\Generated_Source\PSoC5/cyfitter_cfg.c **** CY_CFG_UNUSED
 132:.\Generated_Source\PSoC5/cyfitter_cfg.c **** static void CyClockStartupError(uint8 errorCode)
 133:.\Generated_Source\PSoC5/cyfitter_cfg.c **** {
 136              		.loc 1 133 0
 137              		.cfi_startproc
 138              		@ args = 0, pretend = 0, frame = 8
 139              		@ frame_needed = 1, uses_anonymous_args = 0
 140              		@ link register save eliminated.
 141 0000 80B4     		push	{r7}
 142              		.cfi_def_cfa_offset 4
 143              		.cfi_offset 7, -4
 144 0002 83B0     		sub	sp, sp, #12
 145              		.cfi_def_cfa_offset 16
 146 0004 00AF     		add	r7, sp, #0
 147              		.cfi_def_cfa_register 7
 148 0006 0346     		mov	r3, r0
 149 0008 FB71     		strb	r3, [r7, #7]
 150              	.L5:
 134:.\Generated_Source\PSoC5/cyfitter_cfg.c ****     /* To remove the compiler warning if errorCode not used.                */
 135:.\Generated_Source\PSoC5/cyfitter_cfg.c ****     errorCode = errorCode;
ARM GAS  C:\Users\Rolando\AppData\Local\Temp\ccQSghZP.s 			page 6


 136:.\Generated_Source\PSoC5/cyfitter_cfg.c **** 
 137:.\Generated_Source\PSoC5/cyfitter_cfg.c ****     /* `#START CyClockStartupError` */
 138:.\Generated_Source\PSoC5/cyfitter_cfg.c **** 
 139:.\Generated_Source\PSoC5/cyfitter_cfg.c ****     /* If we have a clock startup error (bad MHz crystal, PLL lock, etc.),  */
 140:.\Generated_Source\PSoC5/cyfitter_cfg.c ****     /* we will end up here to allow the customer to implement something to  */
 141:.\Generated_Source\PSoC5/cyfitter_cfg.c ****     /* deal with the clock condition.                                       */
 142:.\Generated_Source\PSoC5/cyfitter_cfg.c **** 
 143:.\Generated_Source\PSoC5/cyfitter_cfg.c ****     /* `#END` */
 144:.\Generated_Source\PSoC5/cyfitter_cfg.c **** 
 145:.\Generated_Source\PSoC5/cyfitter_cfg.c ****     /* If nothing else, stop here since the clocks have not started         */
 146:.\Generated_Source\PSoC5/cyfitter_cfg.c ****     /* correctly.                                                           */
 147:.\Generated_Source\PSoC5/cyfitter_cfg.c ****     while(1) {}
 151              		.loc 1 147 0 discriminator 1
 152 000a FEE7     		b	.L5
 153              		.cfi_endproc
 154              	.LFE3:
 155              		.size	CyClockStartupError, .-CyClockStartupError
 156              		.section	.text.cfg_dma_init,"ax",%progbits
 157              		.align	2
 158              		.thumb
 159              		.thumb_func
 160              		.type	cfg_dma_init, %function
 161              	cfg_dma_init:
 162              	.LFB4:
 148:.\Generated_Source\PSoC5/cyfitter_cfg.c **** }
 149:.\Generated_Source\PSoC5/cyfitter_cfg.c **** #endif
 150:.\Generated_Source\PSoC5/cyfitter_cfg.c **** 
 151:.\Generated_Source\PSoC5/cyfitter_cfg.c **** /* IOPORT_8 Address: CYDEV_PRTDSI_PRT15_BASE Size (bytes): 7 */
 152:.\Generated_Source\PSoC5/cyfitter_cfg.c **** #define BS_IOPORT_8_VAL ((const uint8 CYFAR *)0x48000000u)
 153:.\Generated_Source\PSoC5/cyfitter_cfg.c **** 
 154:.\Generated_Source\PSoC5/cyfitter_cfg.c **** /* PICU_8 Address: CYDEV_PICU_INTTYPE_PICU15_BASE Size (bytes): 8 */
 155:.\Generated_Source\PSoC5/cyfitter_cfg.c **** #define BS_PICU_8_VAL ((const uint8 CYFAR *)0x48000008u)
 156:.\Generated_Source\PSoC5/cyfitter_cfg.c **** 
 157:.\Generated_Source\PSoC5/cyfitter_cfg.c **** /* IDMUX_IRQ Address: CYREG_IDMUX_IRQ_CTL0 Size (bytes): 8 */
 158:.\Generated_Source\PSoC5/cyfitter_cfg.c **** #define BS_IDMUX_IRQ_VAL ((const uint8 CYFAR *)0x48000010u)
 159:.\Generated_Source\PSoC5/cyfitter_cfg.c **** 
 160:.\Generated_Source\PSoC5/cyfitter_cfg.c **** /* DSI0_1_HV_ROUTING Address: CYDEV_UCFG_DSI12_BASE + 0x00000080u Size (bytes): 128 */
 161:.\Generated_Source\PSoC5/cyfitter_cfg.c **** #define BS_DSI0_1_HV_ROUTING_VAL ((const uint8 CYFAR *)0x48000018u)
 162:.\Generated_Source\PSoC5/cyfitter_cfg.c **** 
 163:.\Generated_Source\PSoC5/cyfitter_cfg.c **** /* DSISWITCH_0_2 Address: CYDEV_UCFG_DSI7_BASE Size (bytes): 128 */
 164:.\Generated_Source\PSoC5/cyfitter_cfg.c **** #define BS_DSISWITCH_0_2_VAL ((const uint8 CYFAR *)0x48000098u)
 165:.\Generated_Source\PSoC5/cyfitter_cfg.c **** 
 166:.\Generated_Source\PSoC5/cyfitter_cfg.c **** /* DSI0_2_HV_ROUTING Address: CYDEV_UCFG_DSI7_BASE + 0x00000080u Size (bytes): 128 */
 167:.\Generated_Source\PSoC5/cyfitter_cfg.c **** #define BS_DSI0_2_HV_ROUTING_VAL ((const uint8 CYFAR *)0x48000118u)
 168:.\Generated_Source\PSoC5/cyfitter_cfg.c **** 
 169:.\Generated_Source\PSoC5/cyfitter_cfg.c **** /* DSISWITCH_0_3 Address: CYDEV_UCFG_DSI6_BASE Size (bytes): 128 */
 170:.\Generated_Source\PSoC5/cyfitter_cfg.c **** #define BS_DSISWITCH_0_3_VAL ((const uint8 CYFAR *)0x48000198u)
 171:.\Generated_Source\PSoC5/cyfitter_cfg.c **** 
 172:.\Generated_Source\PSoC5/cyfitter_cfg.c **** /* DSI0_3_HV_ROUTING Address: CYDEV_UCFG_DSI6_BASE + 0x00000080u Size (bytes): 128 */
 173:.\Generated_Source\PSoC5/cyfitter_cfg.c **** #define BS_DSI0_3_HV_ROUTING_VAL ((const uint8 CYFAR *)0x48000218u)
 174:.\Generated_Source\PSoC5/cyfitter_cfg.c **** 
 175:.\Generated_Source\PSoC5/cyfitter_cfg.c **** /* DSI0_4_HV_ROUTING Address: CYDEV_UCFG_DSI5_BASE + 0x00000080u Size (bytes): 128 */
 176:.\Generated_Source\PSoC5/cyfitter_cfg.c **** #define BS_DSI0_4_HV_ROUTING_VAL ((const uint8 CYFAR *)0x48000298u)
 177:.\Generated_Source\PSoC5/cyfitter_cfg.c **** 
 178:.\Generated_Source\PSoC5/cyfitter_cfg.c **** /* DSI0_5_HV_ROUTING Address: CYDEV_UCFG_DSI4_BASE + 0x00000080u Size (bytes): 128 */
 179:.\Generated_Source\PSoC5/cyfitter_cfg.c **** #define BS_DSI0_5_HV_ROUTING_VAL ((const uint8 CYFAR *)0x48000318u)
 180:.\Generated_Source\PSoC5/cyfitter_cfg.c **** 
ARM GAS  C:\Users\Rolando\AppData\Local\Temp\ccQSghZP.s 			page 7


 181:.\Generated_Source\PSoC5/cyfitter_cfg.c **** /* UDB_1_1_HV_ROUTING Address: CYDEV_UCFG_B1_P4_ROUTE_BASE + 0x00000080u Size (bytes): 128 */
 182:.\Generated_Source\PSoC5/cyfitter_cfg.c **** #define BS_UDB_1_1_HV_ROUTING_VAL ((const uint8 CYFAR *)0x48000398u)
 183:.\Generated_Source\PSoC5/cyfitter_cfg.c **** 
 184:.\Generated_Source\PSoC5/cyfitter_cfg.c **** /* UDB_2_1_HV_ROUTING Address: CYDEV_UCFG_B1_P3_ROUTE_BASE + 0x00000080u Size (bytes): 128 */
 185:.\Generated_Source\PSoC5/cyfitter_cfg.c **** #define BS_UDB_2_1_HV_ROUTING_VAL ((const uint8 CYFAR *)0x48000418u)
 186:.\Generated_Source\PSoC5/cyfitter_cfg.c **** 
 187:.\Generated_Source\PSoC5/cyfitter_cfg.c **** /* UDB_1_2_HV_ROUTING Address: CYDEV_UCFG_B0_P4_ROUTE_BASE + 0x00000080u Size (bytes): 128 */
 188:.\Generated_Source\PSoC5/cyfitter_cfg.c **** #define BS_UDB_1_2_HV_ROUTING_VAL ((const uint8 CYFAR *)0x48000498u)
 189:.\Generated_Source\PSoC5/cyfitter_cfg.c **** 
 190:.\Generated_Source\PSoC5/cyfitter_cfg.c **** /* UDB_2_2_HV_ROUTING Address: CYDEV_UCFG_B0_P3_ROUTE_BASE + 0x00000080u Size (bytes): 128 */
 191:.\Generated_Source\PSoC5/cyfitter_cfg.c **** #define BS_UDB_2_2_HV_ROUTING_VAL ((const uint8 CYFAR *)0x48000518u)
 192:.\Generated_Source\PSoC5/cyfitter_cfg.c **** 
 193:.\Generated_Source\PSoC5/cyfitter_cfg.c **** /* UDB_1_4_HV_ROUTING Address: CYDEV_UCFG_B0_P6_ROUTE_BASE + 0x00000080u Size (bytes): 128 */
 194:.\Generated_Source\PSoC5/cyfitter_cfg.c **** #define BS_UDB_1_4_HV_ROUTING_VAL ((const uint8 CYFAR *)0x48000598u)
 195:.\Generated_Source\PSoC5/cyfitter_cfg.c **** 
 196:.\Generated_Source\PSoC5/cyfitter_cfg.c **** /* UDB_2_4_HV_ROUTING Address: CYDEV_UCFG_B0_P1_ROUTE_BASE + 0x00000080u Size (bytes): 128 */
 197:.\Generated_Source\PSoC5/cyfitter_cfg.c **** #define BS_UDB_2_4_HV_ROUTING_VAL ((const uint8 CYFAR *)0x48000618u)
 198:.\Generated_Source\PSoC5/cyfitter_cfg.c **** 
 199:.\Generated_Source\PSoC5/cyfitter_cfg.c **** /* UDB_1_5_HV_ROUTING Address: CYDEV_UCFG_B0_P7_ROUTE_BASE + 0x00000080u Size (bytes): 128 */
 200:.\Generated_Source\PSoC5/cyfitter_cfg.c **** #define BS_UDB_1_5_HV_ROUTING_VAL ((const uint8 CYFAR *)0x48000698u)
 201:.\Generated_Source\PSoC5/cyfitter_cfg.c **** 
 202:.\Generated_Source\PSoC5/cyfitter_cfg.c **** /* UDB_2_5_HV_ROUTING Address: CYDEV_UCFG_B0_P0_ROUTE_BASE + 0x00000080u Size (bytes): 128 */
 203:.\Generated_Source\PSoC5/cyfitter_cfg.c **** #define BS_UDB_2_5_HV_ROUTING_VAL ((const uint8 CYFAR *)0x48000718u)
 204:.\Generated_Source\PSoC5/cyfitter_cfg.c **** 
 205:.\Generated_Source\PSoC5/cyfitter_cfg.c **** /* DSI3_1_HV_ROUTING Address: CYDEV_UCFG_DSI8_BASE + 0x00000080u Size (bytes): 128 */
 206:.\Generated_Source\PSoC5/cyfitter_cfg.c **** #define BS_DSI3_1_HV_ROUTING_VAL ((const uint8 CYFAR *)0x48000798u)
 207:.\Generated_Source\PSoC5/cyfitter_cfg.c **** 
 208:.\Generated_Source\PSoC5/cyfitter_cfg.c **** /* DSI3_2_HV_ROUTING Address: CYDEV_UCFG_DSI3_BASE + 0x00000080u Size (bytes): 128 */
 209:.\Generated_Source\PSoC5/cyfitter_cfg.c **** #define BS_DSI3_2_HV_ROUTING_VAL ((const uint8 CYFAR *)0x48000818u)
 210:.\Generated_Source\PSoC5/cyfitter_cfg.c **** 
 211:.\Generated_Source\PSoC5/cyfitter_cfg.c **** /* DSI3_3_HV_ROUTING Address: CYDEV_UCFG_DSI2_BASE + 0x00000080u Size (bytes): 128 */
 212:.\Generated_Source\PSoC5/cyfitter_cfg.c **** #define BS_DSI3_3_HV_ROUTING_VAL ((const uint8 CYFAR *)0x48000898u)
 213:.\Generated_Source\PSoC5/cyfitter_cfg.c **** 
 214:.\Generated_Source\PSoC5/cyfitter_cfg.c **** /* DSI3_4_HV_ROUTING Address: CYDEV_UCFG_DSI1_BASE + 0x00000080u Size (bytes): 128 */
 215:.\Generated_Source\PSoC5/cyfitter_cfg.c **** #define BS_DSI3_4_HV_ROUTING_VAL ((const uint8 CYFAR *)0x48000918u)
 216:.\Generated_Source\PSoC5/cyfitter_cfg.c **** 
 217:.\Generated_Source\PSoC5/cyfitter_cfg.c **** /* DSISWITCH_1_5 Address: CYDEV_UCFG_DSI0_BASE Size (bytes): 128 */
 218:.\Generated_Source\PSoC5/cyfitter_cfg.c **** #define BS_DSISWITCH_1_5_VAL ((const uint8 CYFAR *)0x48000998u)
 219:.\Generated_Source\PSoC5/cyfitter_cfg.c **** 
 220:.\Generated_Source\PSoC5/cyfitter_cfg.c **** /* DSI3_5_HV_ROUTING Address: CYDEV_UCFG_DSI0_BASE + 0x00000080u Size (bytes): 128 */
 221:.\Generated_Source\PSoC5/cyfitter_cfg.c **** #define BS_DSI3_5_HV_ROUTING_VAL ((const uint8 CYFAR *)0x48000A18u)
 222:.\Generated_Source\PSoC5/cyfitter_cfg.c **** 
 223:.\Generated_Source\PSoC5/cyfitter_cfg.c **** /* IOPINS0_8 Address: CYREG_PRT15_DR Size (bytes): 10 */
 224:.\Generated_Source\PSoC5/cyfitter_cfg.c **** #define BS_IOPINS0_8_VAL ((const uint8 CYFAR *)0x48000A98u)
 225:.\Generated_Source\PSoC5/cyfitter_cfg.c **** 
 226:.\Generated_Source\PSoC5/cyfitter_cfg.c **** /* IOPINS0_2 Address: CYREG_PRT2_DM0 Size (bytes): 8 */
 227:.\Generated_Source\PSoC5/cyfitter_cfg.c **** #define BS_IOPINS0_2_VAL ((const uint8 CYFAR *)0x48000AA4u)
 228:.\Generated_Source\PSoC5/cyfitter_cfg.c **** 
 229:.\Generated_Source\PSoC5/cyfitter_cfg.c **** /* IOPINS0_6 Address: CYREG_PRT6_DM0 Size (bytes): 8 */
 230:.\Generated_Source\PSoC5/cyfitter_cfg.c **** #define BS_IOPINS0_6_VAL ((const uint8 CYFAR *)0x48000AACu)
 231:.\Generated_Source\PSoC5/cyfitter_cfg.c **** 
 232:.\Generated_Source\PSoC5/cyfitter_cfg.c **** /* CYDEV_CLKDIST_ACFG0_CFG0 Address: CYREG_CLKDIST_ACFG0_CFG0 Size (bytes): 4 */
 233:.\Generated_Source\PSoC5/cyfitter_cfg.c **** #define BS_CYDEV_CLKDIST_ACFG0_CFG0_VAL ((const uint8 CYFAR *)0x48000AB4u)
 234:.\Generated_Source\PSoC5/cyfitter_cfg.c **** 
 235:.\Generated_Source\PSoC5/cyfitter_cfg.c **** 
 236:.\Generated_Source\PSoC5/cyfitter_cfg.c **** /*******************************************************************************
 237:.\Generated_Source\PSoC5/cyfitter_cfg.c **** * Function Name: cfg_dma_init
ARM GAS  C:\Users\Rolando\AppData\Local\Temp\ccQSghZP.s 			page 8


 238:.\Generated_Source\PSoC5/cyfitter_cfg.c **** ********************************************************************************
 239:.\Generated_Source\PSoC5/cyfitter_cfg.c **** * Summary:
 240:.\Generated_Source\PSoC5/cyfitter_cfg.c **** *  This function is used to copy device configuration data from constant values
 241:.\Generated_Source\PSoC5/cyfitter_cfg.c **** *  stored in memory into the proper chip configuration registers using DMA.  It
 242:.\Generated_Source\PSoC5/cyfitter_cfg.c **** *  pulls data out of the CFG_TD_LISTs to know exactly how/what to configure.
 243:.\Generated_Source\PSoC5/cyfitter_cfg.c **** *
 244:.\Generated_Source\PSoC5/cyfitter_cfg.c **** * Parameters:  
 245:.\Generated_Source\PSoC5/cyfitter_cfg.c **** *   void
 246:.\Generated_Source\PSoC5/cyfitter_cfg.c **** *
 247:.\Generated_Source\PSoC5/cyfitter_cfg.c **** * Return:
 248:.\Generated_Source\PSoC5/cyfitter_cfg.c **** *   void
 249:.\Generated_Source\PSoC5/cyfitter_cfg.c **** *
 250:.\Generated_Source\PSoC5/cyfitter_cfg.c **** *******************************************************************************/
 251:.\Generated_Source\PSoC5/cyfitter_cfg.c **** static void cfg_dma_init(void);
 252:.\Generated_Source\PSoC5/cyfitter_cfg.c **** static void cfg_dma_init(void)
 253:.\Generated_Source\PSoC5/cyfitter_cfg.c **** {
 163              		.loc 1 253 0
 164              		.cfi_startproc
 165              		@ args = 0, pretend = 0, frame = 8
 166              		@ frame_needed = 1, uses_anonymous_args = 0
 167              		@ link register save eliminated.
 168 0000 80B4     		push	{r7}
 169              		.cfi_def_cfa_offset 4
 170              		.cfi_offset 7, -4
 171 0002 83B0     		sub	sp, sp, #12
 172              		.cfi_def_cfa_offset 16
 173 0004 00AF     		add	r7, sp, #0
 174              		.cfi_def_cfa_register 7
 254:.\Generated_Source\PSoC5/cyfitter_cfg.c **** 	/* TD structure for little-endian systems. Does not require endian swap */
 255:.\Generated_Source\PSoC5/cyfitter_cfg.c **** 	CYPACKED struct td_t {
 256:.\Generated_Source\PSoC5/cyfitter_cfg.c **** 		uint16 size;
 257:.\Generated_Source\PSoC5/cyfitter_cfg.c **** 		uint8 next_td_ptr;
 258:.\Generated_Source\PSoC5/cyfitter_cfg.c **** 		uint8 flags;
 259:.\Generated_Source\PSoC5/cyfitter_cfg.c **** 		uint16 src;
 260:.\Generated_Source\PSoC5/cyfitter_cfg.c **** 		uint16 dest;
 261:.\Generated_Source\PSoC5/cyfitter_cfg.c **** 	} CYPACKED_ATTR;
 262:.\Generated_Source\PSoC5/cyfitter_cfg.c **** 
 263:.\Generated_Source\PSoC5/cyfitter_cfg.c **** 	/* PHUB_CH1_CFGMEM_CFG0/1 initialization data */
 264:.\Generated_Source\PSoC5/cyfitter_cfg.c **** 	DMAINITSEC static const uint8 CYCODE CH1_ADDR_DATA0[] = { 0x01u, 0x00u, 0x00u, 0x00u, 0x00u, 0x20u
 265:.\Generated_Source\PSoC5/cyfitter_cfg.c **** 
 266:.\Generated_Source\PSoC5/cyfitter_cfg.c **** 	/* PHUB_CH2_CFGMEM_CFG0/1 initialization data */
 267:.\Generated_Source\PSoC5/cyfitter_cfg.c **** 	DMAINITSEC static const uint8 CYCODE CH2_ADDR_DATA0[] = { 0x01u, 0x00u, 0x00u, 0x00u, 0x00u, 0x20u
 268:.\Generated_Source\PSoC5/cyfitter_cfg.c **** 
 269:.\Generated_Source\PSoC5/cyfitter_cfg.c **** 	/* PHUB_CH5_CFGMEM_CFG0/1 initialization data */
 270:.\Generated_Source\PSoC5/cyfitter_cfg.c **** 	DMAINITSEC static const uint8 CYCODE CH5_ADDR_DATA0[] = { 0x01u, 0x00u, 0x00u, 0x00u, 0x00u, 0x48u
 271:.\Generated_Source\PSoC5/cyfitter_cfg.c **** 
 272:.\Generated_Source\PSoC5/cyfitter_cfg.c **** 	/* PHUB_CH6_CFGMEM_CFG0/1 initialization data */
 273:.\Generated_Source\PSoC5/cyfitter_cfg.c **** 	DMAINITSEC static const uint8 CYCODE CH6_ADDR_DATA0[] = { 0x01u, 0x00u, 0x00u, 0x00u, 0x00u, 0x48u
 274:.\Generated_Source\PSoC5/cyfitter_cfg.c **** 
 275:.\Generated_Source\PSoC5/cyfitter_cfg.c **** 	/* Initialization data for each DMA channel's TD registers */
 276:.\Generated_Source\PSoC5/cyfitter_cfg.c **** 	DMAINITSEC static const uint8 CYCODE DMA_TD_START_CMD[] = { 0x01u, 0x00u, 0x00u, 0x00u, 0x01u };
 277:.\Generated_Source\PSoC5/cyfitter_cfg.c **** 
 278:.\Generated_Source\PSoC5/cyfitter_cfg.c **** 	CYALIGNED static uint32 CYXDATA DMA_ZERO_VAL;
 279:.\Generated_Source\PSoC5/cyfitter_cfg.c **** 
 280:.\Generated_Source\PSoC5/cyfitter_cfg.c **** 	/* This table holds all of the initialization data necessary for the DMA
 281:.\Generated_Source\PSoC5/cyfitter_cfg.c **** 	   process to transfer data from the source location to the destination. */
 282:.\Generated_Source\PSoC5/cyfitter_cfg.c **** 	/* Source addresses can be relocated, but only when in 32bit addresses.
ARM GAS  C:\Users\Rolando\AppData\Local\Temp\ccQSghZP.s 			page 9


 283:.\Generated_Source\PSoC5/cyfitter_cfg.c **** 	   Because the standard TD table only has 16bit addresses, we generate a
 284:.\Generated_Source\PSoC5/cyfitter_cfg.c **** 	   separate CFG_TD_ADDR table for the source addresses that supports 32bit
 285:.\Generated_Source\PSoC5/cyfitter_cfg.c **** 	   addresses. */
 286:.\Generated_Source\PSoC5/cyfitter_cfg.c **** 	DMAINITSEC static const struct td_t CYCODE CFG_TD_LIST0[] = {
 287:.\Generated_Source\PSoC5/cyfitter_cfg.c **** 		/* Size, Next, Flags, Source, Destination */
 288:.\Generated_Source\PSoC5/cyfitter_cfg.c **** 		{ 8u, 0x02u, 0x23u, (uint16)(uint32)(0u), (uint16)(CYREG_PHUB_CFGMEM1_CFG0) },	/* TD 1 */
 289:.\Generated_Source\PSoC5/cyfitter_cfg.c **** 		{ 8u, 0x03u, 0x23u, (uint16)(uint32)(0u), (uint16)(CYREG_PHUB_CFGMEM2_CFG0) },	/* TD 2 */
 290:.\Generated_Source\PSoC5/cyfitter_cfg.c **** 		{ 8u, 0x04u, 0x23u, (uint16)(uint32)(0u), (uint16)(CYREG_PHUB_CFGMEM5_CFG0) },	/* TD 3 */
 291:.\Generated_Source\PSoC5/cyfitter_cfg.c **** 		{ 8u, 0x05u, 0x23u, (uint16)(uint32)(0u), (uint16)(CYREG_PHUB_CFGMEM6_CFG0) },	/* TD 4 */
 292:.\Generated_Source\PSoC5/cyfitter_cfg.c **** 		{ 5u, 0x06u, 0x23u, (uint16)(uint32)(0u), (uint16)(CYREG_PHUB_CH1_BASIC_CFG) },	/* TD 5 */
 293:.\Generated_Source\PSoC5/cyfitter_cfg.c **** 		{ 5u, 0x07u, 0x23u, (uint16)(uint32)(0u), (uint16)(CYREG_PHUB_CH2_BASIC_CFG) },	/* TD 6 */
 294:.\Generated_Source\PSoC5/cyfitter_cfg.c **** 		{ 5u, 0x08u, 0x23u, (uint16)(uint32)(0u), (uint16)(CYREG_PHUB_CH5_BASIC_CFG) },	/* TD 7 */
 295:.\Generated_Source\PSoC5/cyfitter_cfg.c **** 		{ 5u, 0xFEu, 0x23u, (uint16)(uint32)(0u), (uint16)(CYREG_PHUB_CH6_BASIC_CFG) },	/* TD 8 */
 296:.\Generated_Source\PSoC5/cyfitter_cfg.c **** 		{ 32u, 0x0Au, 0x22u, (uint16)(uint32)(0u), (uint16)(CYREG_PRT0_DR) },	/* TD 9 */
 297:.\Generated_Source\PSoC5/cyfitter_cfg.c **** 		{ 48u, 0x0Bu, 0x22u, (uint16)(uint32)(0u), (uint16)(CYREG_PRT3_DR) },	/* TD 10 */
 298:.\Generated_Source\PSoC5/cyfitter_cfg.c **** 		{ 16u, 0xFEu, 0x22u, (uint16)(uint32)(0u), (uint16)(CYREG_PRT12_DR) },	/* TD 11 */
 299:.\Generated_Source\PSoC5/cyfitter_cfg.c **** 		{ 384u, 0x0Du, 0x22u, (uint16)(uint32)(0u), (uint16)(CYDEV_UCFG_B0_P0_U0_BASE) },	/* TD 12 */
 300:.\Generated_Source\PSoC5/cyfitter_cfg.c **** 		{ 384u, 0x0Eu, 0x22u, (uint16)(uint32)(0u), (uint16)(CYDEV_UCFG_B0_P1_U0_BASE) },	/* TD 13 */
 301:.\Generated_Source\PSoC5/cyfitter_cfg.c **** 		{ 896u, 0x0Fu, 0x22u, (uint16)(uint32)(0u), (uint16)(CYDEV_UCFG_B0_P2_U0_BASE) },	/* TD 14 */
 302:.\Generated_Source\PSoC5/cyfitter_cfg.c **** 		{ 384u, 0x10u, 0x22u, (uint16)(uint32)(0u), (uint16)(CYDEV_UCFG_B0_P4_U0_BASE) },	/* TD 15 */
 303:.\Generated_Source\PSoC5/cyfitter_cfg.c **** 		{ 896u, 0x11u, 0x22u, (uint16)(uint32)(0u), (uint16)(CYDEV_UCFG_B0_P5_U0_BASE) },	/* TD 16 */
 304:.\Generated_Source\PSoC5/cyfitter_cfg.c **** 		{ 384u, 0x12u, 0x22u, (uint16)(uint32)(0u), (uint16)(CYDEV_UCFG_B0_P7_U0_BASE) },	/* TD 17 */
 305:.\Generated_Source\PSoC5/cyfitter_cfg.c **** 		{ 896u, 0x13u, 0x22u, (uint16)(uint32)(0u), (uint16)(CYDEV_UCFG_B1_P2_U0_BASE) },	/* TD 18 */
 306:.\Generated_Source\PSoC5/cyfitter_cfg.c **** 		{ 384u, 0x14u, 0x22u, (uint16)(uint32)(0u), (uint16)(CYDEV_UCFG_B1_P4_U0_BASE) },	/* TD 19 */
 307:.\Generated_Source\PSoC5/cyfitter_cfg.c **** 		{ 512u, 0x15u, 0x22u, (uint16)(uint32)(0u), (uint16)(CYDEV_UCFG_B1_P5_U0_BASE) },	/* TD 20 */
 308:.\Generated_Source\PSoC5/cyfitter_cfg.c **** 		{ 128u, 0x16u, 0x22u, (uint16)(uint32)(0u), (uint16)(CYDEV_UCFG_DSI1_BASE) },	/* TD 21 */
 309:.\Generated_Source\PSoC5/cyfitter_cfg.c **** 		{ 128u, 0x17u, 0x22u, (uint16)(uint32)(0u), (uint16)(CYDEV_UCFG_DSI2_BASE) },	/* TD 22 */
 310:.\Generated_Source\PSoC5/cyfitter_cfg.c **** 		{ 128u, 0x18u, 0x22u, (uint16)(uint32)(0u), (uint16)(CYDEV_UCFG_DSI3_BASE) },	/* TD 23 */
 311:.\Generated_Source\PSoC5/cyfitter_cfg.c **** 		{ 128u, 0x19u, 0x22u, (uint16)(uint32)(0u), (uint16)(CYDEV_UCFG_DSI4_BASE) },	/* TD 24 */
 312:.\Generated_Source\PSoC5/cyfitter_cfg.c **** 		{ 128u, 0x1Au, 0x22u, (uint16)(uint32)(0u), (uint16)(CYDEV_UCFG_DSI5_BASE) },	/* TD 25 */
 313:.\Generated_Source\PSoC5/cyfitter_cfg.c **** 		{ 128u, 0x1Bu, 0x22u, (uint16)(uint32)(0u), (uint16)(CYDEV_UCFG_DSI8_BASE) },	/* TD 26 */
 314:.\Generated_Source\PSoC5/cyfitter_cfg.c **** 		{ 256u, 0x1Cu, 0x22u, (uint16)(uint32)(0u), (uint16)(CYDEV_UCFG_DSI9_BASE) },	/* TD 27 */
 315:.\Generated_Source\PSoC5/cyfitter_cfg.c **** 		{ 128u, 0x1Du, 0x22u, (uint16)(uint32)(0u), (uint16)(CYDEV_UCFG_DSI12_BASE) },	/* TD 28 */
 316:.\Generated_Source\PSoC5/cyfitter_cfg.c **** 		{ 256u, 0x1Eu, 0x22u, (uint16)(uint32)(0u), (uint16)(CYDEV_UCFG_DSI13_BASE) },	/* TD 29 */
 317:.\Generated_Source\PSoC5/cyfitter_cfg.c **** 		{ 32u, 0xFEu, 0x22u, (uint16)(uint32)(0u), (uint16)(CYREG_BCTL0_MDCLK_EN) },	/* TD 30 */
 318:.\Generated_Source\PSoC5/cyfitter_cfg.c **** 		{ 7u, 0x20u, 0x23u, (uint16)(uint32)(0u), (uint16)(CYDEV_PRTDSI_PRT15_BASE) },	/* TD 31 */
 319:.\Generated_Source\PSoC5/cyfitter_cfg.c **** 		{ 8u, 0xFEu, 0x23u, (uint16)(uint32)(0u), (uint16)(CYDEV_PICU_INTTYPE_PICU15_BASE) },	/* TD 32 */
 320:.\Generated_Source\PSoC5/cyfitter_cfg.c **** 		{ 8u, 0x22u, 0x23u, (uint16)(uint32)(0u), (uint16)(CYREG_IDMUX_IRQ_CTL0) },	/* TD 33 */
 321:.\Generated_Source\PSoC5/cyfitter_cfg.c **** 		{ 128u, 0x23u, 0x23u, (uint16)(uint32)(0u), (uint16)(CYDEV_UCFG_DSI12_BASE + 0x00000080u) },	/* T
 322:.\Generated_Source\PSoC5/cyfitter_cfg.c **** 		{ 128u, 0x24u, 0x23u, (uint16)(uint32)(0u), (uint16)(CYDEV_UCFG_DSI7_BASE) },	/* TD 35 */
 323:.\Generated_Source\PSoC5/cyfitter_cfg.c **** 		{ 128u, 0x25u, 0x23u, (uint16)(uint32)(0u), (uint16)(CYDEV_UCFG_DSI7_BASE + 0x00000080u) },	/* TD
 324:.\Generated_Source\PSoC5/cyfitter_cfg.c **** 		{ 128u, 0x26u, 0x23u, (uint16)(uint32)(0u), (uint16)(CYDEV_UCFG_DSI6_BASE) },	/* TD 37 */
 325:.\Generated_Source\PSoC5/cyfitter_cfg.c **** 		{ 128u, 0x27u, 0x23u, (uint16)(uint32)(0u), (uint16)(CYDEV_UCFG_DSI6_BASE + 0x00000080u) },	/* TD
 326:.\Generated_Source\PSoC5/cyfitter_cfg.c **** 		{ 128u, 0x28u, 0x23u, (uint16)(uint32)(0u), (uint16)(CYDEV_UCFG_DSI5_BASE + 0x00000080u) },	/* TD
 327:.\Generated_Source\PSoC5/cyfitter_cfg.c **** 		{ 128u, 0x29u, 0x23u, (uint16)(uint32)(0u), (uint16)(CYDEV_UCFG_DSI4_BASE + 0x00000080u) },	/* TD
 328:.\Generated_Source\PSoC5/cyfitter_cfg.c **** 		{ 128u, 0x2Au, 0x23u, (uint16)(uint32)(0u), (uint16)(CYDEV_UCFG_B1_P4_ROUTE_BASE + 0x00000080u) }
 329:.\Generated_Source\PSoC5/cyfitter_cfg.c **** 		{ 128u, 0x2Bu, 0x23u, (uint16)(uint32)(0u), (uint16)(CYDEV_UCFG_B1_P3_ROUTE_BASE + 0x00000080u) }
 330:.\Generated_Source\PSoC5/cyfitter_cfg.c **** 		{ 128u, 0x2Cu, 0x23u, (uint16)(uint32)(0u), (uint16)(CYDEV_UCFG_B0_P4_ROUTE_BASE + 0x00000080u) }
 331:.\Generated_Source\PSoC5/cyfitter_cfg.c **** 		{ 128u, 0x2Du, 0x23u, (uint16)(uint32)(0u), (uint16)(CYDEV_UCFG_B0_P3_ROUTE_BASE + 0x00000080u) }
 332:.\Generated_Source\PSoC5/cyfitter_cfg.c **** 		{ 128u, 0x2Eu, 0x23u, (uint16)(uint32)(0u), (uint16)(CYDEV_UCFG_B0_P6_ROUTE_BASE + 0x00000080u) }
 333:.\Generated_Source\PSoC5/cyfitter_cfg.c **** 		{ 128u, 0x2Fu, 0x23u, (uint16)(uint32)(0u), (uint16)(CYDEV_UCFG_B0_P1_ROUTE_BASE + 0x00000080u) }
 334:.\Generated_Source\PSoC5/cyfitter_cfg.c **** 		{ 128u, 0x30u, 0x23u, (uint16)(uint32)(0u), (uint16)(CYDEV_UCFG_B0_P7_ROUTE_BASE + 0x00000080u) }
 335:.\Generated_Source\PSoC5/cyfitter_cfg.c **** 		{ 128u, 0x31u, 0x23u, (uint16)(uint32)(0u), (uint16)(CYDEV_UCFG_B0_P0_ROUTE_BASE + 0x00000080u) }
 336:.\Generated_Source\PSoC5/cyfitter_cfg.c **** 		{ 128u, 0x32u, 0x23u, (uint16)(uint32)(0u), (uint16)(CYDEV_UCFG_DSI8_BASE + 0x00000080u) },	/* TD
 337:.\Generated_Source\PSoC5/cyfitter_cfg.c **** 		{ 128u, 0x33u, 0x23u, (uint16)(uint32)(0u), (uint16)(CYDEV_UCFG_DSI3_BASE + 0x00000080u) },	/* TD
 338:.\Generated_Source\PSoC5/cyfitter_cfg.c **** 		{ 128u, 0x34u, 0x23u, (uint16)(uint32)(0u), (uint16)(CYDEV_UCFG_DSI2_BASE + 0x00000080u) },	/* TD
 339:.\Generated_Source\PSoC5/cyfitter_cfg.c **** 		{ 128u, 0x35u, 0x23u, (uint16)(uint32)(0u), (uint16)(CYDEV_UCFG_DSI1_BASE + 0x00000080u) },	/* TD
ARM GAS  C:\Users\Rolando\AppData\Local\Temp\ccQSghZP.s 			page 10


 340:.\Generated_Source\PSoC5/cyfitter_cfg.c **** 		{ 128u, 0x36u, 0x23u, (uint16)(uint32)(0u), (uint16)(CYDEV_UCFG_DSI0_BASE) },	/* TD 53 */
 341:.\Generated_Source\PSoC5/cyfitter_cfg.c **** 		{ 128u, 0xFEu, 0x23u, (uint16)(uint32)(0u), (uint16)(CYDEV_UCFG_DSI0_BASE + 0x00000080u) },	/* TD
 342:.\Generated_Source\PSoC5/cyfitter_cfg.c **** 	};
 343:.\Generated_Source\PSoC5/cyfitter_cfg.c **** 
 344:.\Generated_Source\PSoC5/cyfitter_cfg.c **** 	/* Source addresses can be relocated, but only when in 32bit addresses.
 345:.\Generated_Source\PSoC5/cyfitter_cfg.c **** 	   Because the standard TD table only has 16bit addresses, we generate a
 346:.\Generated_Source\PSoC5/cyfitter_cfg.c **** 	   separate table for the source addresses that does use 32bit addresses. This
 347:.\Generated_Source\PSoC5/cyfitter_cfg.c **** 	   table will be re-merged with the corresponding CFG_TD_LIST table during
 348:.\Generated_Source\PSoC5/cyfitter_cfg.c **** 	   initialization. */
 349:.\Generated_Source\PSoC5/cyfitter_cfg.c **** 	static const void * const CFG_TD_ADDR0[] = {
 350:.\Generated_Source\PSoC5/cyfitter_cfg.c **** 		(const void *)(CH1_ADDR_DATA0),	/* TD 1 */
 351:.\Generated_Source\PSoC5/cyfitter_cfg.c **** 		(const void *)(CH2_ADDR_DATA0),	/* TD 2 */
 352:.\Generated_Source\PSoC5/cyfitter_cfg.c **** 		(const void *)(CH5_ADDR_DATA0),	/* TD 3 */
 353:.\Generated_Source\PSoC5/cyfitter_cfg.c **** 		(const void *)(CH6_ADDR_DATA0),	/* TD 4 */
 354:.\Generated_Source\PSoC5/cyfitter_cfg.c **** 		(const void *)(DMA_TD_START_CMD),	/* TD 5 */
 355:.\Generated_Source\PSoC5/cyfitter_cfg.c **** 		(const void *)(DMA_TD_START_CMD),	/* TD 6 */
 356:.\Generated_Source\PSoC5/cyfitter_cfg.c **** 		(const void *)(DMA_TD_START_CMD),	/* TD 7 */
 357:.\Generated_Source\PSoC5/cyfitter_cfg.c **** 		(const void *)(DMA_TD_START_CMD),	/* TD 8 */
 358:.\Generated_Source\PSoC5/cyfitter_cfg.c **** 		(const void *)(&DMA_ZERO_VAL),	/* TD 9 */
 359:.\Generated_Source\PSoC5/cyfitter_cfg.c **** 		(const void *)(&DMA_ZERO_VAL),	/* TD 10 */
 360:.\Generated_Source\PSoC5/cyfitter_cfg.c **** 		(const void *)(&DMA_ZERO_VAL),	/* TD 11 */
 361:.\Generated_Source\PSoC5/cyfitter_cfg.c **** 		(const void *)(&DMA_ZERO_VAL),	/* TD 12 */
 362:.\Generated_Source\PSoC5/cyfitter_cfg.c **** 		(const void *)(&DMA_ZERO_VAL),	/* TD 13 */
 363:.\Generated_Source\PSoC5/cyfitter_cfg.c **** 		(const void *)(&DMA_ZERO_VAL),	/* TD 14 */
 364:.\Generated_Source\PSoC5/cyfitter_cfg.c **** 		(const void *)(&DMA_ZERO_VAL),	/* TD 15 */
 365:.\Generated_Source\PSoC5/cyfitter_cfg.c **** 		(const void *)(&DMA_ZERO_VAL),	/* TD 16 */
 366:.\Generated_Source\PSoC5/cyfitter_cfg.c **** 		(const void *)(&DMA_ZERO_VAL),	/* TD 17 */
 367:.\Generated_Source\PSoC5/cyfitter_cfg.c **** 		(const void *)(&DMA_ZERO_VAL),	/* TD 18 */
 368:.\Generated_Source\PSoC5/cyfitter_cfg.c **** 		(const void *)(&DMA_ZERO_VAL),	/* TD 19 */
 369:.\Generated_Source\PSoC5/cyfitter_cfg.c **** 		(const void *)(&DMA_ZERO_VAL),	/* TD 20 */
 370:.\Generated_Source\PSoC5/cyfitter_cfg.c **** 		(const void *)(&DMA_ZERO_VAL),	/* TD 21 */
 371:.\Generated_Source\PSoC5/cyfitter_cfg.c **** 		(const void *)(&DMA_ZERO_VAL),	/* TD 22 */
 372:.\Generated_Source\PSoC5/cyfitter_cfg.c **** 		(const void *)(&DMA_ZERO_VAL),	/* TD 23 */
 373:.\Generated_Source\PSoC5/cyfitter_cfg.c **** 		(const void *)(&DMA_ZERO_VAL),	/* TD 24 */
 374:.\Generated_Source\PSoC5/cyfitter_cfg.c **** 		(const void *)(&DMA_ZERO_VAL),	/* TD 25 */
 375:.\Generated_Source\PSoC5/cyfitter_cfg.c **** 		(const void *)(&DMA_ZERO_VAL),	/* TD 26 */
 376:.\Generated_Source\PSoC5/cyfitter_cfg.c **** 		(const void *)(&DMA_ZERO_VAL),	/* TD 27 */
 377:.\Generated_Source\PSoC5/cyfitter_cfg.c **** 		(const void *)(&DMA_ZERO_VAL),	/* TD 28 */
 378:.\Generated_Source\PSoC5/cyfitter_cfg.c **** 		(const void *)(&DMA_ZERO_VAL),	/* TD 29 */
 379:.\Generated_Source\PSoC5/cyfitter_cfg.c **** 		(const void *)(&DMA_ZERO_VAL),	/* TD 30 */
 380:.\Generated_Source\PSoC5/cyfitter_cfg.c **** 		(const void *)(BS_IOPORT_8_VAL),	/* TD 31 */
 381:.\Generated_Source\PSoC5/cyfitter_cfg.c **** 		(const void *)(BS_PICU_8_VAL),	/* TD 32 */
 382:.\Generated_Source\PSoC5/cyfitter_cfg.c **** 		(const void *)(BS_IDMUX_IRQ_VAL),	/* TD 33 */
 383:.\Generated_Source\PSoC5/cyfitter_cfg.c **** 		(const void *)(BS_DSI0_1_HV_ROUTING_VAL),	/* TD 34 */
 384:.\Generated_Source\PSoC5/cyfitter_cfg.c **** 		(const void *)(BS_DSISWITCH_0_2_VAL),	/* TD 35 */
 385:.\Generated_Source\PSoC5/cyfitter_cfg.c **** 		(const void *)(BS_DSI0_2_HV_ROUTING_VAL),	/* TD 36 */
 386:.\Generated_Source\PSoC5/cyfitter_cfg.c **** 		(const void *)(BS_DSISWITCH_0_3_VAL),	/* TD 37 */
 387:.\Generated_Source\PSoC5/cyfitter_cfg.c **** 		(const void *)(BS_DSI0_3_HV_ROUTING_VAL),	/* TD 38 */
 388:.\Generated_Source\PSoC5/cyfitter_cfg.c **** 		(const void *)(BS_DSI0_4_HV_ROUTING_VAL),	/* TD 39 */
 389:.\Generated_Source\PSoC5/cyfitter_cfg.c **** 		(const void *)(BS_DSI0_5_HV_ROUTING_VAL),	/* TD 40 */
 390:.\Generated_Source\PSoC5/cyfitter_cfg.c **** 		(const void *)(BS_UDB_1_1_HV_ROUTING_VAL),	/* TD 41 */
 391:.\Generated_Source\PSoC5/cyfitter_cfg.c **** 		(const void *)(BS_UDB_2_1_HV_ROUTING_VAL),	/* TD 42 */
 392:.\Generated_Source\PSoC5/cyfitter_cfg.c **** 		(const void *)(BS_UDB_1_2_HV_ROUTING_VAL),	/* TD 43 */
 393:.\Generated_Source\PSoC5/cyfitter_cfg.c **** 		(const void *)(BS_UDB_2_2_HV_ROUTING_VAL),	/* TD 44 */
 394:.\Generated_Source\PSoC5/cyfitter_cfg.c **** 		(const void *)(BS_UDB_1_4_HV_ROUTING_VAL),	/* TD 45 */
 395:.\Generated_Source\PSoC5/cyfitter_cfg.c **** 		(const void *)(BS_UDB_2_4_HV_ROUTING_VAL),	/* TD 46 */
 396:.\Generated_Source\PSoC5/cyfitter_cfg.c **** 		(const void *)(BS_UDB_1_5_HV_ROUTING_VAL),	/* TD 47 */
ARM GAS  C:\Users\Rolando\AppData\Local\Temp\ccQSghZP.s 			page 11


 397:.\Generated_Source\PSoC5/cyfitter_cfg.c **** 		(const void *)(BS_UDB_2_5_HV_ROUTING_VAL),	/* TD 48 */
 398:.\Generated_Source\PSoC5/cyfitter_cfg.c **** 		(const void *)(BS_DSI3_1_HV_ROUTING_VAL),	/* TD 49 */
 399:.\Generated_Source\PSoC5/cyfitter_cfg.c **** 		(const void *)(BS_DSI3_2_HV_ROUTING_VAL),	/* TD 50 */
 400:.\Generated_Source\PSoC5/cyfitter_cfg.c **** 		(const void *)(BS_DSI3_3_HV_ROUTING_VAL),	/* TD 51 */
 401:.\Generated_Source\PSoC5/cyfitter_cfg.c **** 		(const void *)(BS_DSI3_4_HV_ROUTING_VAL),	/* TD 52 */
 402:.\Generated_Source\PSoC5/cyfitter_cfg.c **** 		(const void *)(BS_DSISWITCH_1_5_VAL),	/* TD 53 */
 403:.\Generated_Source\PSoC5/cyfitter_cfg.c **** 		(const void *)(BS_DSI3_5_HV_ROUTING_VAL),	/* TD 54 */
 404:.\Generated_Source\PSoC5/cyfitter_cfg.c **** 	};
 405:.\Generated_Source\PSoC5/cyfitter_cfg.c **** 
 406:.\Generated_Source\PSoC5/cyfitter_cfg.c **** 
 407:.\Generated_Source\PSoC5/cyfitter_cfg.c **** 	uint32 i;
 408:.\Generated_Source\PSoC5/cyfitter_cfg.c **** 
 409:.\Generated_Source\PSoC5/cyfitter_cfg.c **** 	DMA_ZERO_VAL = 0u;
 175              		.loc 1 409 0
 176 0006 434B     		ldr	r3, .L15
 177 0008 0022     		movs	r2, #0
 178 000a 1A60     		str	r2, [r3]
 410:.\Generated_Source\PSoC5/cyfitter_cfg.c **** 	CY_SET_REG8((void CYXDATA *)CYREG_PHUB_CFGMEM0_CFG0, 0x10u);	/* set burstcnt */
 179              		.loc 1 410 0
 180 000c 424B     		ldr	r3, .L15+4
 181 000e 1022     		movs	r2, #16
 182 0010 1A70     		strb	r2, [r3]
 411:.\Generated_Source\PSoC5/cyfitter_cfg.c **** 	CY_SET_REG8((void CYXDATA *)CYREG_PHUB_CH0_BASIC_CFG, 0x01u);	/* enable ch0 */
 183              		.loc 1 411 0
 184 0012 424B     		ldr	r3, .L15+8
 185 0014 0122     		movs	r2, #1
 186 0016 1A70     		strb	r2, [r3]
 412:.\Generated_Source\PSoC5/cyfitter_cfg.c **** 	CY_SET_REG8((void CYXDATA *)(CYREG_PHUB_CH0_BASIC_STATUS+1u), 0x00u);	/* set first TD to 0 */
 187              		.loc 1 412 0
 188 0018 414B     		ldr	r3, .L15+12
 189 001a 0022     		movs	r2, #0
 190 001c 1A70     		strb	r2, [r3]
 413:.\Generated_Source\PSoC5/cyfitter_cfg.c **** 	CY_SET_REG16((void CYXDATA *)CYREG_PHUB_TDMEM0_ORIG_TD0, 54u*8u);	/* transfer size */
 191              		.loc 1 413 0
 192 001e 414B     		ldr	r3, .L15+16
 193 0020 4FF4D872 		mov	r2, #432
 194 0024 1A80     		strh	r2, [r3]	@ movhi
 414:.\Generated_Source\PSoC5/cyfitter_cfg.c **** 	CY_SET_REG8((void CYXDATA *)(CYREG_PHUB_TDMEM0_ORIG_TD0+2u), 0x01u);	/* set next TD to 1 */
 195              		.loc 1 414 0
 196 0026 404B     		ldr	r3, .L15+20
 197 0028 0122     		movs	r2, #1
 198 002a 1A70     		strb	r2, [r3]
 415:.\Generated_Source\PSoC5/cyfitter_cfg.c **** 	CY_SET_REG8((void CYXDATA *)(CYREG_PHUB_TDMEM0_ORIG_TD0+3u), 0x03u);	/* set TD flags */
 199              		.loc 1 415 0
 200 002c 3F4B     		ldr	r3, .L15+24
 201 002e 0322     		movs	r2, #3
 202 0030 1A70     		strb	r2, [r3]
 416:.\Generated_Source\PSoC5/cyfitter_cfg.c **** 	CY_SET_REG16((void CYXDATA *)CYREG_PHUB_TDMEM0_ORIG_TD1, (uint16)((uint32)CFG_TD_LIST0 & 0x0000FFF
 203              		.loc 1 416 0
 204 0032 3F4B     		ldr	r3, .L15+28
 205 0034 3F4A     		ldr	r2, .L15+32
 206 0036 92B2     		uxth	r2, r2
 207 0038 1A80     		strh	r2, [r3]	@ movhi
 417:.\Generated_Source\PSoC5/cyfitter_cfg.c **** 	CY_SET_REG16((void CYXDATA *)(CYREG_PHUB_TDMEM0_ORIG_TD1+2u), CYDEV_PHUB_TDMEM1_BASE);	/* set td0'
 208              		.loc 1 417 0
 209 003a 3F4B     		ldr	r3, .L15+36
 210 003c 47F60802 		movw	r2, #30728
ARM GAS  C:\Users\Rolando\AppData\Local\Temp\ccQSghZP.s 			page 12


 211 0040 1A80     		strh	r2, [r3]	@ movhi
 418:.\Generated_Source\PSoC5/cyfitter_cfg.c **** 	CY_SET_REG16((void CYXDATA *)CYREG_PHUB_CFGMEM0_CFG1, (uint16)(CYDEV_FLASH_BASE >> 16));	/* set ch
 212              		.loc 1 418 0
 213 0042 3E4B     		ldr	r3, .L15+40
 214 0044 0022     		movs	r2, #0
 215 0046 1A80     		strh	r2, [r3]	@ movhi
 419:.\Generated_Source\PSoC5/cyfitter_cfg.c **** 	CY_SET_REG16((void CYXDATA *)(CYREG_PHUB_CFGMEM0_CFG1+2u), (uint16)(CYDEV_PHUB_TDMEM1_BASE >> 16))
 216              		.loc 1 419 0
 217 0048 3D4B     		ldr	r3, .L15+44
 218 004a 4FF48042 		mov	r2, #16384
 219 004e 1A80     		strh	r2, [r3]	@ movhi
 420:.\Generated_Source\PSoC5/cyfitter_cfg.c **** 	CY_SET_REG8((void CYXDATA *)(CYREG_PHUB_CH1_BASIC_STATUS+1u), 0x09u);	/* ch1 first TD: 9 */
 220              		.loc 1 420 0
 221 0050 3C4B     		ldr	r3, .L15+48
 222 0052 0922     		movs	r2, #9
 223 0054 1A70     		strb	r2, [r3]
 421:.\Generated_Source\PSoC5/cyfitter_cfg.c **** 	CY_SET_REG8((void CYXDATA *)(CYREG_PHUB_CH2_BASIC_STATUS+1u), 0x0Cu);	/* ch2 first TD: 12 */
 224              		.loc 1 421 0
 225 0056 3C4B     		ldr	r3, .L15+52
 226 0058 0C22     		movs	r2, #12
 227 005a 1A70     		strb	r2, [r3]
 422:.\Generated_Source\PSoC5/cyfitter_cfg.c **** 	CY_SET_REG8((void CYXDATA *)(CYREG_PHUB_CH5_BASIC_STATUS+1u), 0x1Fu);	/* ch5 first TD: 31 */
 228              		.loc 1 422 0
 229 005c 3B4B     		ldr	r3, .L15+56
 230 005e 1F22     		movs	r2, #31
 231 0060 1A70     		strb	r2, [r3]
 423:.\Generated_Source\PSoC5/cyfitter_cfg.c **** 	CY_SET_REG8((void CYXDATA *)(CYREG_PHUB_CH6_BASIC_STATUS+1u), 0x21u);	/* ch6 first TD: 33 */
 232              		.loc 1 423 0
 233 0062 3B4B     		ldr	r3, .L15+60
 234 0064 2122     		movs	r2, #33
 235 0066 1A70     		strb	r2, [r3]
 424:.\Generated_Source\PSoC5/cyfitter_cfg.c **** 
 425:.\Generated_Source\PSoC5/cyfitter_cfg.c **** 	CY_CFG_MEMORY_BARRIER();
 236              		.loc 1 425 0
 237 0068 BFF35F8F 		dmb	sy
 426:.\Generated_Source\PSoC5/cyfitter_cfg.c **** 	CY_SET_REG8((void CYXDATA *)CYREG_PHUB_CH0_ACTION, 0x01u); /* cpu_req */
 238              		.loc 1 426 0
 239 006c 394B     		ldr	r3, .L15+64
 240 006e 0122     		movs	r2, #1
 241 0070 1A70     		strb	r2, [r3]
 427:.\Generated_Source\PSoC5/cyfitter_cfg.c **** 	CY_CFG_MEMORY_BARRIER();
 242              		.loc 1 427 0
 243 0072 BFF35F8F 		dmb	sy
 428:.\Generated_Source\PSoC5/cyfitter_cfg.c **** 
 429:.\Generated_Source\PSoC5/cyfitter_cfg.c **** 	/* Wait for TDs to be copied into TDMEM */
 430:.\Generated_Source\PSoC5/cyfitter_cfg.c **** 	while (CY_GET_REG16((void CYXDATA *)CYREG_PHUB_TDMEM0_ORIG_TD0) != 0u) { }
 244              		.loc 1 430 0
 245 0076 00BF     		nop
 246              	.L7:
 247              		.loc 1 430 0 is_stmt 0 discriminator 1
 248 0078 2A4B     		ldr	r3, .L15+16
 249 007a 1B88     		ldrh	r3, [r3]	@ movhi
 250 007c 9BB2     		uxth	r3, r3
 251 007e 002B     		cmp	r3, #0
 252 0080 FAD1     		bne	.L7
 431:.\Generated_Source\PSoC5/cyfitter_cfg.c **** 
 432:.\Generated_Source\PSoC5/cyfitter_cfg.c **** 	/* Recombine TD source table (CFG_TD_ADDR0) with full TD table (CFG_TD_LIST0) */
ARM GAS  C:\Users\Rolando\AppData\Local\Temp\ccQSghZP.s 			page 13


 433:.\Generated_Source\PSoC5/cyfitter_cfg.c **** 	for (i = 0u; i < 54u; i++)
 253              		.loc 1 433 0 is_stmt 1
 254 0082 0023     		movs	r3, #0
 255 0084 7B60     		str	r3, [r7, #4]
 256 0086 0DE0     		b	.L8
 257              	.L9:
 434:.\Generated_Source\PSoC5/cyfitter_cfg.c **** 	{
 435:.\Generated_Source\PSoC5/cyfitter_cfg.c **** 		CY_SET_REG16((void CYXDATA *)(CYREG_PHUB_TDMEM1_ORIG_TD1 + (sizeof(struct td_t)*i)), (uint16)(uin
 258              		.loc 1 435 0 discriminator 3
 259 0088 7B68     		ldr	r3, [r7, #4]
 260 008a DA00     		lsls	r2, r3, #3
 261 008c 324B     		ldr	r3, .L15+68
 262 008e 1344     		add	r3, r3, r2
 263 0090 1946     		mov	r1, r3
 264 0092 324A     		ldr	r2, .L15+72
 265 0094 7B68     		ldr	r3, [r7, #4]
 266 0096 52F82330 		ldr	r3, [r2, r3, lsl #2]
 267 009a 9BB2     		uxth	r3, r3
 268 009c 0B80     		strh	r3, [r1]	@ movhi
 433:.\Generated_Source\PSoC5/cyfitter_cfg.c **** 	{
 269              		.loc 1 433 0 discriminator 3
 270 009e 7B68     		ldr	r3, [r7, #4]
 271 00a0 0133     		adds	r3, r3, #1
 272 00a2 7B60     		str	r3, [r7, #4]
 273              	.L8:
 433:.\Generated_Source\PSoC5/cyfitter_cfg.c **** 	{
 274              		.loc 1 433 0 is_stmt 0 discriminator 1
 275 00a4 7B68     		ldr	r3, [r7, #4]
 276 00a6 352B     		cmp	r3, #53
 277 00a8 EED9     		bls	.L9
 436:.\Generated_Source\PSoC5/cyfitter_cfg.c **** 	}
 437:.\Generated_Source\PSoC5/cyfitter_cfg.c **** 
 438:.\Generated_Source\PSoC5/cyfitter_cfg.c **** 	CY_CFG_MEMORY_BARRIER();
 278              		.loc 1 438 0 is_stmt 1
 279 00aa BFF35F8F 		dmb	sy
 439:.\Generated_Source\PSoC5/cyfitter_cfg.c **** 	CY_SET_REG8((void CYXDATA *)CYREG_PHUB_CH0_ACTION, 0x01u); /* cpu_req */
 280              		.loc 1 439 0
 281 00ae 294B     		ldr	r3, .L15+64
 282 00b0 0122     		movs	r2, #1
 283 00b2 1A70     		strb	r2, [r3]
 440:.\Generated_Source\PSoC5/cyfitter_cfg.c **** 	CY_CFG_MEMORY_BARRIER();
 284              		.loc 1 440 0
 285 00b4 BFF35F8F 		dmb	sy
 441:.\Generated_Source\PSoC5/cyfitter_cfg.c **** 
 442:.\Generated_Source\PSoC5/cyfitter_cfg.c **** 	/* Wait for all DMA transfers to complete */
 443:.\Generated_Source\PSoC5/cyfitter_cfg.c **** 	while(0u != (CY_GET_REG8((void CYXDATA *)CYREG_PHUB_CH0_BASIC_STATUS) & 0x01u)){}
 286              		.loc 1 443 0
 287 00b8 00BF     		nop
 288              	.L10:
 289              		.loc 1 443 0 is_stmt 0 discriminator 1
 290 00ba 294B     		ldr	r3, .L15+76
 291 00bc 1B78     		ldrb	r3, [r3]
 292 00be DBB2     		uxtb	r3, r3
 293 00c0 03F00103 		and	r3, r3, #1
 294 00c4 002B     		cmp	r3, #0
 295 00c6 F8D1     		bne	.L10
 444:.\Generated_Source\PSoC5/cyfitter_cfg.c **** 	while(0u != (CY_GET_REG8((void CYXDATA *)CYREG_PHUB_CH1_BASIC_STATUS) & 0x01u)){}
ARM GAS  C:\Users\Rolando\AppData\Local\Temp\ccQSghZP.s 			page 14


 296              		.loc 1 444 0 is_stmt 1
 297 00c8 00BF     		nop
 298              	.L11:
 299              		.loc 1 444 0 is_stmt 0 discriminator 1
 300 00ca 264B     		ldr	r3, .L15+80
 301 00cc 1B78     		ldrb	r3, [r3]
 302 00ce DBB2     		uxtb	r3, r3
 303 00d0 03F00103 		and	r3, r3, #1
 304 00d4 002B     		cmp	r3, #0
 305 00d6 F8D1     		bne	.L11
 445:.\Generated_Source\PSoC5/cyfitter_cfg.c **** 	while(0u != (CY_GET_REG8((void CYXDATA *)CYREG_PHUB_CH2_BASIC_STATUS) & 0x01u)){}
 306              		.loc 1 445 0 is_stmt 1
 307 00d8 00BF     		nop
 308              	.L12:
 309              		.loc 1 445 0 is_stmt 0 discriminator 1
 310 00da 234B     		ldr	r3, .L15+84
 311 00dc 1B78     		ldrb	r3, [r3]
 312 00de DBB2     		uxtb	r3, r3
 313 00e0 03F00103 		and	r3, r3, #1
 314 00e4 002B     		cmp	r3, #0
 315 00e6 F8D1     		bne	.L12
 446:.\Generated_Source\PSoC5/cyfitter_cfg.c **** 	while(0u != (CY_GET_REG8((void CYXDATA *)CYREG_PHUB_CH5_BASIC_STATUS) & 0x01u)){}
 316              		.loc 1 446 0 is_stmt 1
 317 00e8 00BF     		nop
 318              	.L13:
 319              		.loc 1 446 0 is_stmt 0 discriminator 1
 320 00ea 204B     		ldr	r3, .L15+88
 321 00ec 1B78     		ldrb	r3, [r3]
 322 00ee DBB2     		uxtb	r3, r3
 323 00f0 03F00103 		and	r3, r3, #1
 324 00f4 002B     		cmp	r3, #0
 325 00f6 F8D1     		bne	.L13
 447:.\Generated_Source\PSoC5/cyfitter_cfg.c **** 	while(0u != (CY_GET_REG8((void CYXDATA *)CYREG_PHUB_CH6_BASIC_STATUS) & 0x01u)){}
 326              		.loc 1 447 0 is_stmt 1
 327 00f8 00BF     		nop
 328              	.L14:
 329              		.loc 1 447 0 is_stmt 0 discriminator 1
 330 00fa 1D4B     		ldr	r3, .L15+92
 331 00fc 1B78     		ldrb	r3, [r3]
 332 00fe DBB2     		uxtb	r3, r3
 333 0100 03F00103 		and	r3, r3, #1
 334 0104 002B     		cmp	r3, #0
 335 0106 F8D1     		bne	.L14
 448:.\Generated_Source\PSoC5/cyfitter_cfg.c **** 
 449:.\Generated_Source\PSoC5/cyfitter_cfg.c **** 
 450:.\Generated_Source\PSoC5/cyfitter_cfg.c **** }
 336              		.loc 1 450 0 is_stmt 1
 337 0108 0C37     		adds	r7, r7, #12
 338              		.cfi_def_cfa_offset 4
 339 010a BD46     		mov	sp, r7
 340              		.cfi_def_cfa_register 13
 341              		@ sp needed
 342 010c 5DF8047B 		ldr	r7, [sp], #4
 343              		.cfi_restore 7
 344              		.cfi_def_cfa_offset 0
 345 0110 7047     		bx	lr
 346              	.L16:
ARM GAS  C:\Users\Rolando\AppData\Local\Temp\ccQSghZP.s 			page 15


 347 0112 00BF     		.align	2
 348              	.L15:
 349 0114 00000000 		.word	DMA_ZERO_VAL.4804
 350 0118 00760040 		.word	1073772032
 351 011c 10700040 		.word	1073770512
 352 0120 19700040 		.word	1073770521
 353 0124 00780040 		.word	1073772544
 354 0128 02780040 		.word	1073772546
 355 012c 03780040 		.word	1073772547
 356 0130 04780040 		.word	1073772548
 357 0134 00000000 		.word	CFG_TD_LIST0.4805
 358 0138 06780040 		.word	1073772550
 359 013c 04760040 		.word	1073772036
 360 0140 06760040 		.word	1073772038
 361 0144 29700040 		.word	1073770537
 362 0148 39700040 		.word	1073770553
 363 014c 69700040 		.word	1073770601
 364 0150 79700040 		.word	1073770617
 365 0154 14700040 		.word	1073770516
 366 0158 0C780040 		.word	1073772556
 367 015c 00000000 		.word	CFG_TD_ADDR0.4806
 368 0160 18700040 		.word	1073770520
 369 0164 28700040 		.word	1073770536
 370 0168 38700040 		.word	1073770552
 371 016c 68700040 		.word	1073770600
 372 0170 78700040 		.word	1073770616
 373              		.cfi_endproc
 374              	.LFE4:
 375              		.size	cfg_dma_init, .-cfg_dma_init
 376              		.section	.text.ClockSetup,"ax",%progbits
 377              		.align	2
 378              		.thumb
 379              		.thumb_func
 380              		.type	ClockSetup, %function
 381              	ClockSetup:
 382              	.LFB5:
 451:.\Generated_Source\PSoC5/cyfitter_cfg.c **** /*******************************************************************************
 452:.\Generated_Source\PSoC5/cyfitter_cfg.c **** * Function Name: ClockSetup
 453:.\Generated_Source\PSoC5/cyfitter_cfg.c **** ********************************************************************************
 454:.\Generated_Source\PSoC5/cyfitter_cfg.c **** *
 455:.\Generated_Source\PSoC5/cyfitter_cfg.c **** * Summary:
 456:.\Generated_Source\PSoC5/cyfitter_cfg.c **** *  Performs the initialization of all of the clocks in the device based on the
 457:.\Generated_Source\PSoC5/cyfitter_cfg.c **** *  settings in the Clock tab of the DWR.  This includes enabling the requested
 458:.\Generated_Source\PSoC5/cyfitter_cfg.c **** *  clocks and setting the necessary dividers to produce the desired frequency. 
 459:.\Generated_Source\PSoC5/cyfitter_cfg.c **** *
 460:.\Generated_Source\PSoC5/cyfitter_cfg.c **** * Parameters:
 461:.\Generated_Source\PSoC5/cyfitter_cfg.c **** *  void
 462:.\Generated_Source\PSoC5/cyfitter_cfg.c **** *
 463:.\Generated_Source\PSoC5/cyfitter_cfg.c **** * Return:
 464:.\Generated_Source\PSoC5/cyfitter_cfg.c **** *  void
 465:.\Generated_Source\PSoC5/cyfitter_cfg.c **** *
 466:.\Generated_Source\PSoC5/cyfitter_cfg.c **** *******************************************************************************/
 467:.\Generated_Source\PSoC5/cyfitter_cfg.c **** static void ClockSetup(void);
 468:.\Generated_Source\PSoC5/cyfitter_cfg.c **** static void ClockSetup(void)
 469:.\Generated_Source\PSoC5/cyfitter_cfg.c **** {
 383              		.loc 1 469 0
 384              		.cfi_startproc
ARM GAS  C:\Users\Rolando\AppData\Local\Temp\ccQSghZP.s 			page 16


 385              		@ args = 0, pretend = 0, frame = 8
 386              		@ frame_needed = 1, uses_anonymous_args = 0
 387 0000 80B5     		push	{r7, lr}
 388              		.cfi_def_cfa_offset 8
 389              		.cfi_offset 7, -8
 390              		.cfi_offset 14, -4
 391 0002 82B0     		sub	sp, sp, #8
 392              		.cfi_def_cfa_offset 16
 393 0004 00AF     		add	r7, sp, #0
 394              		.cfi_def_cfa_register 7
 470:.\Generated_Source\PSoC5/cyfitter_cfg.c **** 	uint32 timeout;
 471:.\Generated_Source\PSoC5/cyfitter_cfg.c **** 	uint8 pllLock;
 472:.\Generated_Source\PSoC5/cyfitter_cfg.c **** 
 473:.\Generated_Source\PSoC5/cyfitter_cfg.c **** 
 474:.\Generated_Source\PSoC5/cyfitter_cfg.c **** 	/* Configure Analog Clocks based on settings from Clock DWR */
 475:.\Generated_Source\PSoC5/cyfitter_cfg.c **** 	CYCONFIGCPY((void CYFAR *)(CYREG_CLKDIST_ACFG0_CFG0), (const void CYFAR *)(BS_CYDEV_CLKDIST_ACFG0_
 395              		.loc 1 475 0
 396 0006 3548     		ldr	r0, .L22
 397 0008 3549     		ldr	r1, .L22+4
 398 000a 0422     		movs	r2, #4
 399 000c FFF7FEFF 		bl	CYCONFIGCPY
 476:.\Generated_Source\PSoC5/cyfitter_cfg.c **** 
 477:.\Generated_Source\PSoC5/cyfitter_cfg.c **** 	/* Configure ILO based on settings from Clock DWR */
 478:.\Generated_Source\PSoC5/cyfitter_cfg.c **** 	CY_SET_XTND_REG8((void CYFAR *)(CYREG_SLOWCLK_ILO_CR0), 0x06u);
 400              		.loc 1 478 0
 401 0010 344B     		ldr	r3, .L22+8
 402 0012 0622     		movs	r2, #6
 403 0014 1A70     		strb	r2, [r3]
 479:.\Generated_Source\PSoC5/cyfitter_cfg.c **** 
 480:.\Generated_Source\PSoC5/cyfitter_cfg.c **** 	/* Configure IMO based on settings from Clock DWR */
 481:.\Generated_Source\PSoC5/cyfitter_cfg.c **** 	CY_SET_XTND_REG8((void CYFAR *)(CYREG_FASTCLK_IMO_CR), 0x52u);
 404              		.loc 1 481 0
 405 0016 344B     		ldr	r3, .L22+12
 406 0018 5222     		movs	r2, #82
 407 001a 1A70     		strb	r2, [r3]
 482:.\Generated_Source\PSoC5/cyfitter_cfg.c **** 	CY_SET_XTND_REG8((void CYFAR *)(CYREG_IMO_TR1), (CY_GET_XTND_REG8((void CYFAR *)CYREG_FLSHID_CUST_
 408              		.loc 1 482 0
 409 001c 334B     		ldr	r3, .L22+16
 410 001e 344A     		ldr	r2, .L22+20
 411 0020 1278     		ldrb	r2, [r2]
 412 0022 D2B2     		uxtb	r2, r2
 413 0024 1A70     		strb	r2, [r3]
 483:.\Generated_Source\PSoC5/cyfitter_cfg.c **** 
 484:.\Generated_Source\PSoC5/cyfitter_cfg.c **** 	/* Configure PLL based on settings from Clock DWR */
 485:.\Generated_Source\PSoC5/cyfitter_cfg.c **** 	CY_SET_XTND_REG16((void CYFAR *)(CYREG_FASTCLK_PLL_P), 0x070Bu);
 414              		.loc 1 485 0
 415 0026 334B     		ldr	r3, .L22+24
 416 0028 40F20B72 		movw	r2, #1803
 417 002c 1A80     		strh	r2, [r3]	@ movhi
 486:.\Generated_Source\PSoC5/cyfitter_cfg.c **** 	CY_SET_XTND_REG16((void CYFAR *)(CYREG_FASTCLK_PLL_CFG0), 0x1251u);
 418              		.loc 1 486 0
 419 002e 324B     		ldr	r3, .L22+28
 420 0030 41F25122 		movw	r2, #4689
 421 0034 1A80     		strh	r2, [r3]	@ movhi
 487:.\Generated_Source\PSoC5/cyfitter_cfg.c **** 	/* Wait up to 250us for the PLL to lock */
 488:.\Generated_Source\PSoC5/cyfitter_cfg.c **** 	pllLock = 0u;
 422              		.loc 1 488 0
ARM GAS  C:\Users\Rolando\AppData\Local\Temp\ccQSghZP.s 			page 17


 423 0036 0023     		movs	r3, #0
 424 0038 FB70     		strb	r3, [r7, #3]
 489:.\Generated_Source\PSoC5/cyfitter_cfg.c **** 	for (timeout = 250u / 10u; (timeout > 0u) && (pllLock != 0x03u); timeout--)
 425              		.loc 1 489 0
 426 003a 1923     		movs	r3, #25
 427 003c 7B60     		str	r3, [r7, #4]
 428 003e 14E0     		b	.L18
 429              	.L20:
 490:.\Generated_Source\PSoC5/cyfitter_cfg.c **** 	{ 
 491:.\Generated_Source\PSoC5/cyfitter_cfg.c **** 		pllLock = 0x03u & ((uint8)((uint8)pllLock << 1) | ((CY_GET_XTND_REG8((void CYFAR *)CYREG_FASTCLK_
 430              		.loc 1 491 0 discriminator 4
 431 0040 FB78     		ldrb	r3, [r7, #3]
 432 0042 5B00     		lsls	r3, r3, #1
 433 0044 DAB2     		uxtb	r2, r3
 434 0046 2D4B     		ldr	r3, .L22+32
 435 0048 1B78     		ldrb	r3, [r3]
 436 004a DBB2     		uxtb	r3, r3
 437 004c 03F00103 		and	r3, r3, #1
 438 0050 DBB2     		uxtb	r3, r3
 439 0052 1343     		orrs	r3, r3, r2
 440 0054 DBB2     		uxtb	r3, r3
 441 0056 03F00303 		and	r3, r3, #3
 442 005a FB70     		strb	r3, [r7, #3]
 492:.\Generated_Source\PSoC5/cyfitter_cfg.c **** 		CyDelayCycles(10u * 48u); /* Delay 10us based on 48MHz clock */
 443              		.loc 1 492 0 discriminator 4
 444 005c 4FF4F070 		mov	r0, #480
 445 0060 FFF7FEFF 		bl	CyDelayCycles
 489:.\Generated_Source\PSoC5/cyfitter_cfg.c **** 	for (timeout = 250u / 10u; (timeout > 0u) && (pllLock != 0x03u); timeout--)
 446              		.loc 1 489 0 discriminator 4
 447 0064 7B68     		ldr	r3, [r7, #4]
 448 0066 013B     		subs	r3, r3, #1
 449 0068 7B60     		str	r3, [r7, #4]
 450              	.L18:
 489:.\Generated_Source\PSoC5/cyfitter_cfg.c **** 	for (timeout = 250u / 10u; (timeout > 0u) && (pllLock != 0x03u); timeout--)
 451              		.loc 1 489 0 is_stmt 0 discriminator 1
 452 006a 7B68     		ldr	r3, [r7, #4]
 453 006c 002B     		cmp	r3, #0
 454 006e 02D0     		beq	.L19
 489:.\Generated_Source\PSoC5/cyfitter_cfg.c **** 	for (timeout = 250u / 10u; (timeout > 0u) && (pllLock != 0x03u); timeout--)
 455              		.loc 1 489 0 discriminator 3
 456 0070 FB78     		ldrb	r3, [r7, #3]	@ zero_extendqisi2
 457 0072 032B     		cmp	r3, #3
 458 0074 E4D1     		bne	.L20
 459              	.L19:
 493:.\Generated_Source\PSoC5/cyfitter_cfg.c **** 	}
 494:.\Generated_Source\PSoC5/cyfitter_cfg.c **** 	/* If we ran out of time the PLL didn't lock so go to the error function */
 495:.\Generated_Source\PSoC5/cyfitter_cfg.c **** 	if (timeout == 0u)
 460              		.loc 1 495 0 is_stmt 1
 461 0076 7B68     		ldr	r3, [r7, #4]
 462 0078 002B     		cmp	r3, #0
 463 007a 02D1     		bne	.L21
 496:.\Generated_Source\PSoC5/cyfitter_cfg.c **** 	{
 497:.\Generated_Source\PSoC5/cyfitter_cfg.c **** 		CyClockStartupError(CYCLOCKSTART_PLL_ERROR);
 464              		.loc 1 497 0
 465 007c 0320     		movs	r0, #3
 466 007e FFF7FEFF 		bl	CyClockStartupError
 467              	.L21:
ARM GAS  C:\Users\Rolando\AppData\Local\Temp\ccQSghZP.s 			page 18


 498:.\Generated_Source\PSoC5/cyfitter_cfg.c **** 	}
 499:.\Generated_Source\PSoC5/cyfitter_cfg.c **** 
 500:.\Generated_Source\PSoC5/cyfitter_cfg.c **** 	/* Configure Bus/Master Clock based on settings from Clock DWR */
 501:.\Generated_Source\PSoC5/cyfitter_cfg.c **** 	CY_SET_XTND_REG16((void CYFAR *)(CYREG_CLKDIST_MSTR0), 0x0100u);
 468              		.loc 1 501 0
 469 0082 1F4B     		ldr	r3, .L22+36
 470 0084 4FF48072 		mov	r2, #256
 471 0088 1A80     		strh	r2, [r3]	@ movhi
 502:.\Generated_Source\PSoC5/cyfitter_cfg.c **** 	CY_SET_XTND_REG8((void CYFAR *)(CYREG_CLKDIST_MSTR0), 0x07u);
 472              		.loc 1 502 0
 473 008a 1D4B     		ldr	r3, .L22+36
 474 008c 0722     		movs	r2, #7
 475 008e 1A70     		strb	r2, [r3]
 503:.\Generated_Source\PSoC5/cyfitter_cfg.c **** 	CY_SET_XTND_REG8((void CYFAR *)(CYREG_CLKDIST_BCFG0), 0x00u);
 476              		.loc 1 503 0
 477 0090 1C4B     		ldr	r3, .L22+40
 478 0092 0022     		movs	r2, #0
 479 0094 1A70     		strb	r2, [r3]
 504:.\Generated_Source\PSoC5/cyfitter_cfg.c **** 	CY_SET_XTND_REG8((void CYFAR *)(CYREG_CLKDIST_BCFG2), 0x48u);
 480              		.loc 1 504 0
 481 0096 1C4B     		ldr	r3, .L22+44
 482 0098 4822     		movs	r2, #72
 483 009a 1A70     		strb	r2, [r3]
 505:.\Generated_Source\PSoC5/cyfitter_cfg.c **** 	CY_SET_XTND_REG8((void CYFAR *)(CYREG_CLKDIST_MSTR0), 0x00u);
 484              		.loc 1 505 0
 485 009c 184B     		ldr	r3, .L22+36
 486 009e 0022     		movs	r2, #0
 487 00a0 1A70     		strb	r2, [r3]
 506:.\Generated_Source\PSoC5/cyfitter_cfg.c **** 
 507:.\Generated_Source\PSoC5/cyfitter_cfg.c **** 	/* Configure USB Clock based on settings from Clock DWR */
 508:.\Generated_Source\PSoC5/cyfitter_cfg.c **** 	CY_SET_XTND_REG8((void CYFAR *)(CYREG_CLKDIST_UCFG), 0x00u);
 488              		.loc 1 508 0
 489 00a2 1A4B     		ldr	r3, .L22+48
 490 00a4 0022     		movs	r2, #0
 491 00a6 1A70     		strb	r2, [r3]
 509:.\Generated_Source\PSoC5/cyfitter_cfg.c **** 	CY_SET_XTND_REG8((void CYFAR *)(CYREG_CLKDIST_LD), 0x02u);
 492              		.loc 1 509 0
 493 00a8 194B     		ldr	r3, .L22+52
 494 00aa 0222     		movs	r2, #2
 495 00ac 1A70     		strb	r2, [r3]
 510:.\Generated_Source\PSoC5/cyfitter_cfg.c **** 	CY_SET_XTND_REG8((void CYFAR *)(CYREG_CLKDIST_DLY1), 0x04u);
 496              		.loc 1 510 0
 497 00ae 194B     		ldr	r3, .L22+56
 498 00b0 0422     		movs	r2, #4
 499 00b2 1A70     		strb	r2, [r3]
 511:.\Generated_Source\PSoC5/cyfitter_cfg.c **** 
 512:.\Generated_Source\PSoC5/cyfitter_cfg.c **** 	CY_SET_XTND_REG8((void CYFAR *)(CYREG_PM_ACT_CFG1), ((CY_GET_XTND_REG8((void CYFAR *)CYREG_PM_ACT_
 500              		.loc 1 512 0
 501 00b4 184A     		ldr	r2, .L22+60
 502 00b6 184B     		ldr	r3, .L22+60
 503 00b8 1B78     		ldrb	r3, [r3]
 504 00ba DBB2     		uxtb	r3, r3
 505 00bc 43F00103 		orr	r3, r3, #1
 506 00c0 DBB2     		uxtb	r3, r3
 507 00c2 1370     		strb	r3, [r2]
 513:.\Generated_Source\PSoC5/cyfitter_cfg.c **** 	CY_SET_XTND_REG8((void CYFAR *)(CYREG_PM_ACT_CFG0), ((CY_GET_XTND_REG8((void CYFAR *)CYREG_PM_ACT_
 508              		.loc 1 513 0
ARM GAS  C:\Users\Rolando\AppData\Local\Temp\ccQSghZP.s 			page 19


 509 00c4 154A     		ldr	r2, .L22+64
 510 00c6 154B     		ldr	r3, .L22+64
 511 00c8 1B78     		ldrb	r3, [r3]
 512 00ca DBB2     		uxtb	r3, r3
 513 00cc 63F07F03 		orn	r3, r3, #127
 514 00d0 DBB2     		uxtb	r3, r3
 515 00d2 1370     		strb	r3, [r2]
 514:.\Generated_Source\PSoC5/cyfitter_cfg.c **** }
 516              		.loc 1 514 0
 517 00d4 0837     		adds	r7, r7, #8
 518              		.cfi_def_cfa_offset 8
 519 00d6 BD46     		mov	sp, r7
 520              		.cfi_def_cfa_register 13
 521              		@ sp needed
 522 00d8 80BD     		pop	{r7, pc}
 523              	.L23:
 524 00da 00BF     		.align	2
 525              	.L22:
 526 00dc 00410040 		.word	1073758464
 527 00e0 B40A0048 		.word	1207962292
 528 00e4 00430040 		.word	1073758976
 529 00e8 00420040 		.word	1073758720
 530 00ec A1460040 		.word	1073759905
 531 00f0 0F010049 		.word	1224737039
 532 00f4 22420040 		.word	1073758754
 533 00f8 20420040 		.word	1073758752
 534 00fc 25420040 		.word	1073758757
 535 0100 04400040 		.word	1073758212
 536 0104 06400040 		.word	1073758214
 537 0108 08400040 		.word	1073758216
 538 010c 09400040 		.word	1073758217
 539 0110 01400040 		.word	1073758209
 540 0114 0B400040 		.word	1073758219
 541 0118 A1430040 		.word	1073759137
 542 011c A0430040 		.word	1073759136
 543              		.cfi_endproc
 544              	.LFE5:
 545              		.size	ClockSetup, .-ClockSetup
 546              		.section	.text.AnalogSetDefault,"ax",%progbits
 547              		.align	2
 548              		.thumb
 549              		.thumb_func
 550              		.type	AnalogSetDefault, %function
 551              	AnalogSetDefault:
 552              	.LFB6:
 515:.\Generated_Source\PSoC5/cyfitter_cfg.c **** 
 516:.\Generated_Source\PSoC5/cyfitter_cfg.c **** 
 517:.\Generated_Source\PSoC5/cyfitter_cfg.c **** /* Analog API Functions */
 518:.\Generated_Source\PSoC5/cyfitter_cfg.c **** 
 519:.\Generated_Source\PSoC5/cyfitter_cfg.c **** 
 520:.\Generated_Source\PSoC5/cyfitter_cfg.c **** /*******************************************************************************
 521:.\Generated_Source\PSoC5/cyfitter_cfg.c **** * Function Name: AnalogSetDefault
 522:.\Generated_Source\PSoC5/cyfitter_cfg.c **** ********************************************************************************
 523:.\Generated_Source\PSoC5/cyfitter_cfg.c **** *
 524:.\Generated_Source\PSoC5/cyfitter_cfg.c **** * Summary:
 525:.\Generated_Source\PSoC5/cyfitter_cfg.c **** *  Sets up the analog portions of the chip to default values based on chip
 526:.\Generated_Source\PSoC5/cyfitter_cfg.c **** *  configuration options from the project.
ARM GAS  C:\Users\Rolando\AppData\Local\Temp\ccQSghZP.s 			page 20


 527:.\Generated_Source\PSoC5/cyfitter_cfg.c **** *
 528:.\Generated_Source\PSoC5/cyfitter_cfg.c **** * Parameters:
 529:.\Generated_Source\PSoC5/cyfitter_cfg.c **** *  void
 530:.\Generated_Source\PSoC5/cyfitter_cfg.c **** *
 531:.\Generated_Source\PSoC5/cyfitter_cfg.c **** * Return:
 532:.\Generated_Source\PSoC5/cyfitter_cfg.c **** *  void
 533:.\Generated_Source\PSoC5/cyfitter_cfg.c **** *
 534:.\Generated_Source\PSoC5/cyfitter_cfg.c **** *******************************************************************************/
 535:.\Generated_Source\PSoC5/cyfitter_cfg.c **** static void AnalogSetDefault(void);
 536:.\Generated_Source\PSoC5/cyfitter_cfg.c **** static void AnalogSetDefault(void)
 537:.\Generated_Source\PSoC5/cyfitter_cfg.c **** {
 553              		.loc 1 537 0
 554              		.cfi_startproc
 555              		@ args = 0, pretend = 0, frame = 8
 556              		@ frame_needed = 1, uses_anonymous_args = 0
 557              		@ link register save eliminated.
 558 0000 80B4     		push	{r7}
 559              		.cfi_def_cfa_offset 4
 560              		.cfi_offset 7, -4
 561 0002 83B0     		sub	sp, sp, #12
 562              		.cfi_def_cfa_offset 16
 563 0004 00AF     		add	r7, sp, #0
 564              		.cfi_def_cfa_register 7
 538:.\Generated_Source\PSoC5/cyfitter_cfg.c **** 	uint8 bg_xover_inl_trim = CY_GET_XTND_REG8((void CYFAR *)(CYREG_FLSHID_MFG_CFG_BG_XOVER_INL_TRIM +
 565              		.loc 1 538 0
 566 0006 1E4B     		ldr	r3, .L25
 567 0008 1B78     		ldrb	r3, [r3]
 568 000a FB71     		strb	r3, [r7, #7]
 539:.\Generated_Source\PSoC5/cyfitter_cfg.c **** 	uint8 cr4 = CY_GET_XTND_REG8((void CYFAR *)(CYREG_RESET_CR4));
 569              		.loc 1 539 0
 570 000c 1D4B     		ldr	r3, .L25+4
 571 000e 1B78     		ldrb	r3, [r3]
 572 0010 BB71     		strb	r3, [r7, #6]
 540:.\Generated_Source\PSoC5/cyfitter_cfg.c **** 	uint8 cr5 = CY_GET_XTND_REG8((void CYFAR *)(CYREG_RESET_CR5));
 573              		.loc 1 540 0
 574 0012 1D4B     		ldr	r3, .L25+8
 575 0014 1B78     		ldrb	r3, [r3]
 576 0016 7B71     		strb	r3, [r7, #5]
 541:.\Generated_Source\PSoC5/cyfitter_cfg.c **** 	CY_SET_XTND_REG8((void CYFAR *)(CYREG_BG_DFT0), (bg_xover_inl_trim & 0x07u));
 577              		.loc 1 541 0
 578 0018 1C4A     		ldr	r2, .L25+12
 579 001a FB79     		ldrb	r3, [r7, #7]
 580 001c 03F00703 		and	r3, r3, #7
 581 0020 DBB2     		uxtb	r3, r3
 582 0022 1370     		strb	r3, [r2]
 542:.\Generated_Source\PSoC5/cyfitter_cfg.c **** 	CY_SET_XTND_REG8((void CYFAR *)(CYREG_BG_DFT1), ((bg_xover_inl_trim >> 4) & 0x0Fu));
 583              		.loc 1 542 0
 584 0024 1A4A     		ldr	r2, .L25+16
 585 0026 FB79     		ldrb	r3, [r7, #7]	@ zero_extendqisi2
 586 0028 1B09     		lsrs	r3, r3, #4
 587 002a DBB2     		uxtb	r3, r3
 588 002c 1370     		strb	r3, [r2]
 543:.\Generated_Source\PSoC5/cyfitter_cfg.c **** 	/* Disable PRES while setting up SAR voltage reference */
 544:.\Generated_Source\PSoC5/cyfitter_cfg.c **** 	CY_SET_XTND_REG8((void CYFAR *)(CYREG_RESET_CR4), (cr4 | 0x03u));
 589              		.loc 1 544 0
 590 002e 154A     		ldr	r2, .L25+4
 591 0030 BB79     		ldrb	r3, [r7, #6]
ARM GAS  C:\Users\Rolando\AppData\Local\Temp\ccQSghZP.s 			page 21


 592 0032 43F00303 		orr	r3, r3, #3
 593 0036 DBB2     		uxtb	r3, r3
 594 0038 1370     		strb	r3, [r2]
 545:.\Generated_Source\PSoC5/cyfitter_cfg.c **** 	CY_SET_XTND_REG8((void CYFAR *)(CYREG_RESET_CR5), (cr5 | 0x03u));
 595              		.loc 1 545 0
 596 003a 134A     		ldr	r2, .L25+8
 597 003c 7B79     		ldrb	r3, [r7, #5]
 598 003e 43F00303 		orr	r3, r3, #3
 599 0042 DBB2     		uxtb	r3, r3
 600 0044 1370     		strb	r3, [r2]
 546:.\Generated_Source\PSoC5/cyfitter_cfg.c **** 	CY_SET_XTND_REG8((void CYFAR *)CYREG_PRT6_AG, 0x20u);
 601              		.loc 1 546 0
 602 0046 134B     		ldr	r3, .L25+20
 603 0048 2022     		movs	r2, #32
 604 004a 1A70     		strb	r2, [r3]
 547:.\Generated_Source\PSoC5/cyfitter_cfg.c **** 	CY_SET_XTND_REG8((void CYFAR *)CYREG_SAR0_CSR1, 0x40u);
 605              		.loc 1 547 0
 606 004c 124B     		ldr	r3, .L25+24
 607 004e 4022     		movs	r2, #64
 608 0050 1A70     		strb	r2, [r3]
 548:.\Generated_Source\PSoC5/cyfitter_cfg.c **** 	CY_SET_XTND_REG8((void CYFAR *)CYREG_SAR0_CSR3, 0x40u);
 609              		.loc 1 548 0
 610 0052 124B     		ldr	r3, .L25+28
 611 0054 4022     		movs	r2, #64
 612 0056 1A70     		strb	r2, [r3]
 549:.\Generated_Source\PSoC5/cyfitter_cfg.c **** 	CY_SET_XTND_REG8((void CYFAR *)CYREG_SAR0_SW0, 0x02u);
 613              		.loc 1 549 0
 614 0058 114B     		ldr	r3, .L25+32
 615 005a 0222     		movs	r2, #2
 616 005c 1A70     		strb	r2, [r3]
 550:.\Generated_Source\PSoC5/cyfitter_cfg.c **** 	CY_SET_XTND_REG8((void CYFAR *)CYREG_SAR0_SW3, 0x20u);
 617              		.loc 1 550 0
 618 005e 114B     		ldr	r3, .L25+36
 619 0060 2022     		movs	r2, #32
 620 0062 1A70     		strb	r2, [r3]
 551:.\Generated_Source\PSoC5/cyfitter_cfg.c **** 	CY_SET_XTND_REG8((void CYFAR *)(CYREG_RESET_CR5), (cr5));
 621              		.loc 1 551 0
 622 0064 084A     		ldr	r2, .L25+8
 623 0066 7B79     		ldrb	r3, [r7, #5]
 624 0068 1370     		strb	r3, [r2]
 552:.\Generated_Source\PSoC5/cyfitter_cfg.c **** 	CY_SET_XTND_REG8((void CYFAR *)(CYREG_RESET_CR4), (cr4));
 625              		.loc 1 552 0
 626 006a 064A     		ldr	r2, .L25+4
 627 006c BB79     		ldrb	r3, [r7, #6]
 628 006e 1370     		strb	r3, [r2]
 553:.\Generated_Source\PSoC5/cyfitter_cfg.c **** 	CY_SET_XTND_REG8((void CYFAR *)CYREG_PUMP_CR0, 0x44u);
 629              		.loc 1 553 0
 630 0070 0D4B     		ldr	r3, .L25+40
 631 0072 4422     		movs	r2, #68
 632 0074 1A70     		strb	r2, [r3]
 554:.\Generated_Source\PSoC5/cyfitter_cfg.c **** }
 633              		.loc 1 554 0
 634 0076 0C37     		adds	r7, r7, #12
 635              		.cfi_def_cfa_offset 4
 636 0078 BD46     		mov	sp, r7
 637              		.cfi_def_cfa_register 13
 638              		@ sp needed
ARM GAS  C:\Users\Rolando\AppData\Local\Temp\ccQSghZP.s 			page 22


 639 007a 5DF8047B 		ldr	r7, [sp], #4
 640              		.cfi_restore 7
 641              		.cfi_def_cfa_offset 0
 642 007e 7047     		bx	lr
 643              	.L26:
 644              		.align	2
 645              	.L25:
 646 0080 CF010049 		.word	1224737231
 647 0084 F8460040 		.word	1073759992
 648 0088 F9460040 		.word	1073759993
 649 008c 6E580040 		.word	1073764462
 650 0090 6F580040 		.word	1073764463
 651 0094 6D510040 		.word	1073762669
 652 0098 01590040 		.word	1073764609
 653 009c 03590040 		.word	1073764611
 654 00a0 205B0040 		.word	1073765152
 655 00a4 235B0040 		.word	1073765155
 656 00a8 76580040 		.word	1073764470
 657              		.cfi_endproc
 658              	.LFE6:
 659              		.size	AnalogSetDefault, .-AnalogSetDefault
 660              		.section	.text.SetAnalogRoutingPumps,"ax",%progbits
 661              		.align	2
 662              		.global	SetAnalogRoutingPumps
 663              		.thumb
 664              		.thumb_func
 665              		.type	SetAnalogRoutingPumps, %function
 666              	SetAnalogRoutingPumps:
 667              	.LFB7:
 555:.\Generated_Source\PSoC5/cyfitter_cfg.c **** 
 556:.\Generated_Source\PSoC5/cyfitter_cfg.c **** 
 557:.\Generated_Source\PSoC5/cyfitter_cfg.c **** /*******************************************************************************
 558:.\Generated_Source\PSoC5/cyfitter_cfg.c **** * Function Name: SetAnalogRoutingPumps
 559:.\Generated_Source\PSoC5/cyfitter_cfg.c **** ********************************************************************************
 560:.\Generated_Source\PSoC5/cyfitter_cfg.c **** *
 561:.\Generated_Source\PSoC5/cyfitter_cfg.c **** * Summary:
 562:.\Generated_Source\PSoC5/cyfitter_cfg.c **** * Enables or disables the analog pumps feeding analog routing switches.
 563:.\Generated_Source\PSoC5/cyfitter_cfg.c **** * Intended to be called at startup, based on the Vdda system configuration;
 564:.\Generated_Source\PSoC5/cyfitter_cfg.c **** * may be called during operation when the user informs us that the Vdda voltage
 565:.\Generated_Source\PSoC5/cyfitter_cfg.c **** * crossed the pump threshold.
 566:.\Generated_Source\PSoC5/cyfitter_cfg.c **** *
 567:.\Generated_Source\PSoC5/cyfitter_cfg.c **** * Parameters:
 568:.\Generated_Source\PSoC5/cyfitter_cfg.c **** *  enabled - 1 to enable the pumps, 0 to disable the pumps
 569:.\Generated_Source\PSoC5/cyfitter_cfg.c **** *
 570:.\Generated_Source\PSoC5/cyfitter_cfg.c **** * Return:
 571:.\Generated_Source\PSoC5/cyfitter_cfg.c **** *  void
 572:.\Generated_Source\PSoC5/cyfitter_cfg.c **** *
 573:.\Generated_Source\PSoC5/cyfitter_cfg.c **** *******************************************************************************/
 574:.\Generated_Source\PSoC5/cyfitter_cfg.c **** void SetAnalogRoutingPumps(uint8 enabled)
 575:.\Generated_Source\PSoC5/cyfitter_cfg.c **** {
 668              		.loc 1 575 0
 669              		.cfi_startproc
 670              		@ args = 0, pretend = 0, frame = 16
 671              		@ frame_needed = 1, uses_anonymous_args = 0
 672              		@ link register save eliminated.
 673 0000 80B4     		push	{r7}
 674              		.cfi_def_cfa_offset 4
ARM GAS  C:\Users\Rolando\AppData\Local\Temp\ccQSghZP.s 			page 23


 675              		.cfi_offset 7, -4
 676 0002 85B0     		sub	sp, sp, #20
 677              		.cfi_def_cfa_offset 24
 678 0004 00AF     		add	r7, sp, #0
 679              		.cfi_def_cfa_register 7
 680 0006 0346     		mov	r3, r0
 681 0008 FB71     		strb	r3, [r7, #7]
 576:.\Generated_Source\PSoC5/cyfitter_cfg.c **** 	uint8 regValue = CY_GET_XTND_REG8((void CYFAR *)CYREG_PUMP_CR0);
 682              		.loc 1 576 0
 683 000a 0B4B     		ldr	r3, .L30
 684 000c 1B78     		ldrb	r3, [r3]
 685 000e FB73     		strb	r3, [r7, #15]
 577:.\Generated_Source\PSoC5/cyfitter_cfg.c **** 	if (enabled != 0u)
 686              		.loc 1 577 0
 687 0010 FB79     		ldrb	r3, [r7, #7]	@ zero_extendqisi2
 688 0012 002B     		cmp	r3, #0
 689 0014 04D0     		beq	.L28
 578:.\Generated_Source\PSoC5/cyfitter_cfg.c **** 	{
 579:.\Generated_Source\PSoC5/cyfitter_cfg.c **** 		regValue |= 0x22u;
 690              		.loc 1 579 0
 691 0016 FB7B     		ldrb	r3, [r7, #15]
 692 0018 43F02203 		orr	r3, r3, #34
 693 001c FB73     		strb	r3, [r7, #15]
 694 001e 03E0     		b	.L29
 695              	.L28:
 580:.\Generated_Source\PSoC5/cyfitter_cfg.c **** 	}
 581:.\Generated_Source\PSoC5/cyfitter_cfg.c **** 	else
 582:.\Generated_Source\PSoC5/cyfitter_cfg.c **** 	{
 583:.\Generated_Source\PSoC5/cyfitter_cfg.c **** 		regValue &= (uint8)~0x22u;
 696              		.loc 1 583 0
 697 0020 FB7B     		ldrb	r3, [r7, #15]
 698 0022 23F02203 		bic	r3, r3, #34
 699 0026 FB73     		strb	r3, [r7, #15]
 700              	.L29:
 584:.\Generated_Source\PSoC5/cyfitter_cfg.c **** 	}
 585:.\Generated_Source\PSoC5/cyfitter_cfg.c **** 	CY_SET_XTND_REG8((void CYFAR *)CYREG_PUMP_CR0, regValue);
 701              		.loc 1 585 0
 702 0028 034A     		ldr	r2, .L30
 703 002a FB7B     		ldrb	r3, [r7, #15]
 704 002c 1370     		strb	r3, [r2]
 586:.\Generated_Source\PSoC5/cyfitter_cfg.c **** }
 705              		.loc 1 586 0
 706 002e 1437     		adds	r7, r7, #20
 707              		.cfi_def_cfa_offset 4
 708 0030 BD46     		mov	sp, r7
 709              		.cfi_def_cfa_register 13
 710              		@ sp needed
 711 0032 5DF8047B 		ldr	r7, [sp], #4
 712              		.cfi_restore 7
 713              		.cfi_def_cfa_offset 0
 714 0036 7047     		bx	lr
 715              	.L31:
 716              		.align	2
 717              	.L30:
 718 0038 76580040 		.word	1073764470
 719              		.cfi_endproc
 720              	.LFE7:
ARM GAS  C:\Users\Rolando\AppData\Local\Temp\ccQSghZP.s 			page 24


 721              		.size	SetAnalogRoutingPumps, .-SetAnalogRoutingPumps
 722              		.section	.text.cyfitter_cfg,"ax",%progbits
 723              		.align	2
 724              		.global	cyfitter_cfg
 725              		.thumb
 726              		.thumb_func
 727              		.type	cyfitter_cfg, %function
 728              	cyfitter_cfg:
 729              	.LFB8:
 587:.\Generated_Source\PSoC5/cyfitter_cfg.c **** 
 588:.\Generated_Source\PSoC5/cyfitter_cfg.c **** #define CY_AMUX_UNUSED CYREG_BOOST_SR
 589:.\Generated_Source\PSoC5/cyfitter_cfg.c **** 
 590:.\Generated_Source\PSoC5/cyfitter_cfg.c **** 
 591:.\Generated_Source\PSoC5/cyfitter_cfg.c **** /*******************************************************************************
 592:.\Generated_Source\PSoC5/cyfitter_cfg.c **** * Function Name: cyfitter_cfg
 593:.\Generated_Source\PSoC5/cyfitter_cfg.c **** ********************************************************************************
 594:.\Generated_Source\PSoC5/cyfitter_cfg.c **** * Summary:
 595:.\Generated_Source\PSoC5/cyfitter_cfg.c **** *  This function is called by the start-up code for the selected device. It
 596:.\Generated_Source\PSoC5/cyfitter_cfg.c **** *  performs all of the necessary device configuration based on the design
 597:.\Generated_Source\PSoC5/cyfitter_cfg.c **** *  settings.  This includes settings from the Design Wide Resources (DWR) such
 598:.\Generated_Source\PSoC5/cyfitter_cfg.c **** *  as Clocks and Pins as well as any component configuration that is necessary.
 599:.\Generated_Source\PSoC5/cyfitter_cfg.c **** *
 600:.\Generated_Source\PSoC5/cyfitter_cfg.c **** * Parameters:  
 601:.\Generated_Source\PSoC5/cyfitter_cfg.c **** *   void
 602:.\Generated_Source\PSoC5/cyfitter_cfg.c **** *
 603:.\Generated_Source\PSoC5/cyfitter_cfg.c **** * Return:
 604:.\Generated_Source\PSoC5/cyfitter_cfg.c **** *   void
 605:.\Generated_Source\PSoC5/cyfitter_cfg.c **** *
 606:.\Generated_Source\PSoC5/cyfitter_cfg.c **** *******************************************************************************/
 607:.\Generated_Source\PSoC5/cyfitter_cfg.c **** 
 608:.\Generated_Source\PSoC5/cyfitter_cfg.c **** void cyfitter_cfg(void)
 609:.\Generated_Source\PSoC5/cyfitter_cfg.c **** {
 730              		.loc 1 609 0
 731              		.cfi_startproc
 732              		@ args = 0, pretend = 0, frame = 0
 733              		@ frame_needed = 1, uses_anonymous_args = 0
 734 0000 80B5     		push	{r7, lr}
 735              		.cfi_def_cfa_offset 8
 736              		.cfi_offset 7, -8
 737              		.cfi_offset 14, -4
 738 0002 00AF     		add	r7, sp, #0
 739              		.cfi_def_cfa_register 7
 610:.\Generated_Source\PSoC5/cyfitter_cfg.c **** #ifdef CYGlobalIntDisable
 611:.\Generated_Source\PSoC5/cyfitter_cfg.c **** 	/* Disable interrupts by default. Let user enable if/when they want. */
 612:.\Generated_Source\PSoC5/cyfitter_cfg.c **** 	CYGlobalIntDisable
 740              		.loc 1 612 0
 741              	@ 612 ".\Generated_Source\PSoC5\cyfitter_cfg.c" 1
 742 0004 72B6     		CPSID   i
 743              	@ 0 "" 2
 613:.\Generated_Source\PSoC5/cyfitter_cfg.c **** #endif
 614:.\Generated_Source\PSoC5/cyfitter_cfg.c **** 
 615:.\Generated_Source\PSoC5/cyfitter_cfg.c **** 	/* Enable/Disable Debug functionality based on settings from System DWR */
 616:.\Generated_Source\PSoC5/cyfitter_cfg.c **** 	CY_SET_XTND_REG8((void CYFAR *)CYREG_MLOGIC_DEBUG, (CY_GET_XTND_REG8((void CYFAR *)CYREG_MLOGIC_DE
 744              		.loc 1 616 0
 745              		.thumb
 746 0006 284A     		ldr	r2, .L33
 747 0008 274B     		ldr	r3, .L33
ARM GAS  C:\Users\Rolando\AppData\Local\Temp\ccQSghZP.s 			page 25


 748 000a 1B78     		ldrb	r3, [r3]
 749 000c DBB2     		uxtb	r3, r3
 750 000e 43F00403 		orr	r3, r3, #4
 751 0012 DBB2     		uxtb	r3, r3
 752 0014 1370     		strb	r3, [r2]
 617:.\Generated_Source\PSoC5/cyfitter_cfg.c **** 
 618:.\Generated_Source\PSoC5/cyfitter_cfg.c **** 	{
 619:.\Generated_Source\PSoC5/cyfitter_cfg.c **** 		cfg_dma_init();
 753              		.loc 1 619 0
 754 0016 FFF7FEFF 		bl	cfg_dma_init
 620:.\Generated_Source\PSoC5/cyfitter_cfg.c **** 
 621:.\Generated_Source\PSoC5/cyfitter_cfg.c **** 		/* Enable digital routing */
 622:.\Generated_Source\PSoC5/cyfitter_cfg.c **** 		CY_SET_XTND_REG8((void CYFAR *)CYREG_BCTL0_BANK_CTL, CY_GET_XTND_REG8((void CYFAR *)CYREG_BCTL0_B
 755              		.loc 1 622 0
 756 001a 244A     		ldr	r2, .L33+4
 757 001c 234B     		ldr	r3, .L33+4
 758 001e 1B78     		ldrb	r3, [r3]
 759 0020 DBB2     		uxtb	r3, r3
 760 0022 43F00203 		orr	r3, r3, #2
 761 0026 DBB2     		uxtb	r3, r3
 762 0028 1370     		strb	r3, [r2]
 623:.\Generated_Source\PSoC5/cyfitter_cfg.c **** 		CY_SET_XTND_REG8((void CYFAR *)CYREG_BCTL1_BANK_CTL, CY_GET_XTND_REG8((void CYFAR *)CYREG_BCTL1_B
 763              		.loc 1 623 0
 764 002a 214A     		ldr	r2, .L33+8
 765 002c 204B     		ldr	r3, .L33+8
 766 002e 1B78     		ldrb	r3, [r3]
 767 0030 DBB2     		uxtb	r3, r3
 768 0032 43F00203 		orr	r3, r3, #2
 769 0036 DBB2     		uxtb	r3, r3
 770 0038 1370     		strb	r3, [r2]
 624:.\Generated_Source\PSoC5/cyfitter_cfg.c **** 
 625:.\Generated_Source\PSoC5/cyfitter_cfg.c **** 		/* Enable UDB array */
 626:.\Generated_Source\PSoC5/cyfitter_cfg.c **** 		CY_SET_XTND_REG8((void CYFAR *)CYREG_PM_ACT_CFG0, CY_GET_XTND_REG8((void CYFAR *)CYREG_PM_ACT_CFG
 771              		.loc 1 626 0
 772 003a 1E4A     		ldr	r2, .L33+12
 773 003c 1D4B     		ldr	r3, .L33+12
 774 003e 1B78     		ldrb	r3, [r3]
 775 0040 DBB2     		uxtb	r3, r3
 776 0042 43F04003 		orr	r3, r3, #64
 777 0046 DBB2     		uxtb	r3, r3
 778 0048 1370     		strb	r3, [r2]
 627:.\Generated_Source\PSoC5/cyfitter_cfg.c **** 		CY_SET_XTND_REG8((void CYFAR *)CYREG_PM_AVAIL_CR2, CY_GET_XTND_REG8((void CYFAR *)CYREG_PM_AVAIL_
 779              		.loc 1 627 0
 780 004a 1B4A     		ldr	r2, .L33+16
 781 004c 1A4B     		ldr	r3, .L33+16
 782 004e 1B78     		ldrb	r3, [r3]
 783 0050 DBB2     		uxtb	r3, r3
 784 0052 43F01003 		orr	r3, r3, #16
 785 0056 DBB2     		uxtb	r3, r3
 786 0058 1370     		strb	r3, [r2]
 628:.\Generated_Source\PSoC5/cyfitter_cfg.c **** 	}
 629:.\Generated_Source\PSoC5/cyfitter_cfg.c **** 
 630:.\Generated_Source\PSoC5/cyfitter_cfg.c **** 
 631:.\Generated_Source\PSoC5/cyfitter_cfg.c **** 	/* Perform second pass device configuration. These items must be configured in specific order afte
 632:.\Generated_Source\PSoC5/cyfitter_cfg.c **** 	CYCONFIGCPY((void CYFAR *)(CYREG_PRT15_DR), (const void CYFAR *)(BS_IOPINS0_8_VAL), 10u);
 787              		.loc 1 632 0
 788 005a 1848     		ldr	r0, .L33+20
ARM GAS  C:\Users\Rolando\AppData\Local\Temp\ccQSghZP.s 			page 26


 789 005c 1849     		ldr	r1, .L33+24
 790 005e 0A22     		movs	r2, #10
 791 0060 FFF7FEFF 		bl	CYCONFIGCPY
 633:.\Generated_Source\PSoC5/cyfitter_cfg.c **** 	CYCONFIGCPY((void CYFAR *)(CYREG_PRT2_DM0), (const void CYFAR *)(BS_IOPINS0_2_VAL), 8u);
 792              		.loc 1 633 0
 793 0064 1748     		ldr	r0, .L33+28
 794 0066 1849     		ldr	r1, .L33+32
 795 0068 0822     		movs	r2, #8
 796 006a FFF7FEFF 		bl	CYCONFIGCPY
 634:.\Generated_Source\PSoC5/cyfitter_cfg.c **** 	CYCONFIGCPY((void CYFAR *)(CYREG_PRT6_DM0), (const void CYFAR *)(BS_IOPINS0_6_VAL), 8u);
 797              		.loc 1 634 0
 798 006e 1748     		ldr	r0, .L33+36
 799 0070 1749     		ldr	r1, .L33+40
 800 0072 0822     		movs	r2, #8
 801 0074 FFF7FEFF 		bl	CYCONFIGCPY
 635:.\Generated_Source\PSoC5/cyfitter_cfg.c **** 	/* Switch Boost to the precision bandgap reference from its internal reference */
 636:.\Generated_Source\PSoC5/cyfitter_cfg.c **** 	CY_SET_REG8((void CYXDATA *)CYREG_BOOST_CR2, (CY_GET_REG8((void CYXDATA *)CYREG_BOOST_CR2) | 0x08u
 802              		.loc 1 636 0
 803 0078 164A     		ldr	r2, .L33+44
 804 007a 164B     		ldr	r3, .L33+44
 805 007c 1B78     		ldrb	r3, [r3]
 806 007e DBB2     		uxtb	r3, r3
 807 0080 43F00803 		orr	r3, r3, #8
 808 0084 DBB2     		uxtb	r3, r3
 809 0086 1370     		strb	r3, [r2]
 637:.\Generated_Source\PSoC5/cyfitter_cfg.c **** 
 638:.\Generated_Source\PSoC5/cyfitter_cfg.c **** 	/* Set Flash Cycles based on max possible frequency in case a glitch occurs during ClockSetup(). *
 639:.\Generated_Source\PSoC5/cyfitter_cfg.c **** 	CY_SET_XTND_REG8((void CYFAR *)(CYREG_CACHE_CC_CTL), (((CYDEV_INSTRUCT_CACHE_ENABLED) != 0) ? 0x01
 810              		.loc 1 639 0
 811 0088 134B     		ldr	r3, .L33+48
 812 008a 0122     		movs	r2, #1
 813 008c 1A70     		strb	r2, [r3]
 640:.\Generated_Source\PSoC5/cyfitter_cfg.c **** 	/* Setup clocks based on selections from Clock DWR */
 641:.\Generated_Source\PSoC5/cyfitter_cfg.c **** 	ClockSetup();
 814              		.loc 1 641 0
 815 008e FFF7FEFF 		bl	ClockSetup
 642:.\Generated_Source\PSoC5/cyfitter_cfg.c **** 	/* Set Flash Cycles based on newly configured 33.00MHz Bus Clock. */
 643:.\Generated_Source\PSoC5/cyfitter_cfg.c **** 	CY_SET_XTND_REG8((void CYFAR *)(CYREG_CACHE_CC_CTL), (((CYDEV_INSTRUCT_CACHE_ENABLED) != 0) ? 0x81
 816              		.loc 1 643 0
 817 0092 114B     		ldr	r3, .L33+48
 818 0094 8122     		movs	r2, #129
 819 0096 1A70     		strb	r2, [r3]
 644:.\Generated_Source\PSoC5/cyfitter_cfg.c **** 
 645:.\Generated_Source\PSoC5/cyfitter_cfg.c **** 	/* Perform basic analog initialization to defaults */
 646:.\Generated_Source\PSoC5/cyfitter_cfg.c **** 	AnalogSetDefault();
 820              		.loc 1 646 0
 821 0098 FFF7FEFF 		bl	AnalogSetDefault
 647:.\Generated_Source\PSoC5/cyfitter_cfg.c **** 
 648:.\Generated_Source\PSoC5/cyfitter_cfg.c **** 	/* Configure alternate active mode */
 649:.\Generated_Source\PSoC5/cyfitter_cfg.c **** 	CYCONFIGCPY((void CYFAR *)CYDEV_PM_STBY_BASE, (const void CYFAR *)CYDEV_PM_ACT_BASE, 14u);
 822              		.loc 1 649 0
 823 009c 0F48     		ldr	r0, .L33+52
 824 009e 0549     		ldr	r1, .L33+12
 825 00a0 0E22     		movs	r2, #14
 826 00a2 FFF7FEFF 		bl	CYCONFIGCPY
 650:.\Generated_Source\PSoC5/cyfitter_cfg.c **** }
 827              		.loc 1 650 0
ARM GAS  C:\Users\Rolando\AppData\Local\Temp\ccQSghZP.s 			page 27


 828 00a6 80BD     		pop	{r7, pc}
 829              	.L34:
 830              		.align	2
 831              	.L33:
 832 00a8 E8460040 		.word	1073759976
 833 00ac 03500140 		.word	1073827843
 834 00b0 13500140 		.word	1073827859
 835 00b4 A0430040 		.word	1073759136
 836 00b8 C2430040 		.word	1073759170
 837 00bc F0510040 		.word	1073762800
 838 00c0 980A0048 		.word	1207962264
 839 00c4 22510040 		.word	1073762594
 840 00c8 A40A0048 		.word	1207962276
 841 00cc 62510040 		.word	1073762658
 842 00d0 AC0A0048 		.word	1207962284
 843 00d4 22430040 		.word	1073759010
 844 00d8 00480040 		.word	1073760256
 845 00dc B0430040 		.word	1073759152
 846              		.cfi_endproc
 847              	.LFE8:
 848              		.size	cyfitter_cfg, .-cyfitter_cfg
 849              		.bss
 850              		.align	3
 851              	DMA_ZERO_VAL.4804:
 852 0000 00000000 		.space	4
 853 0004 00000000 		.section	.dma_init,"a",%progbits
 854              		.align	2
 855              		.type	CFG_TD_LIST0.4805, %object
 856              		.size	CFG_TD_LIST0.4805, 432
 857              	CFG_TD_LIST0.4805:
 858 0000 0800     		.short	8
 859 0002 02       		.byte	2
 860 0003 23       		.byte	35
 861 0004 0000     		.short	0
 862 0006 0876     		.short	30216
 863 0008 0800     		.short	8
 864 000a 03       		.byte	3
 865 000b 23       		.byte	35
 866 000c 0000     		.short	0
 867 000e 1076     		.short	30224
 868 0010 0800     		.short	8
 869 0012 04       		.byte	4
 870 0013 23       		.byte	35
 871 0014 0000     		.short	0
 872 0016 2876     		.short	30248
 873 0018 0800     		.short	8
 874 001a 05       		.byte	5
 875 001b 23       		.byte	35
 876 001c 0000     		.short	0
 877 001e 3076     		.short	30256
 878 0020 0500     		.short	5
 879 0022 06       		.byte	6
 880 0023 23       		.byte	35
 881 0024 0000     		.short	0
 882 0026 2070     		.short	28704
 883 0028 0500     		.short	5
 884 002a 07       		.byte	7
ARM GAS  C:\Users\Rolando\AppData\Local\Temp\ccQSghZP.s 			page 28


 885 002b 23       		.byte	35
 886 002c 0000     		.short	0
 887 002e 3070     		.short	28720
 888 0030 0500     		.short	5
 889 0032 08       		.byte	8
 890 0033 23       		.byte	35
 891 0034 0000     		.short	0
 892 0036 6070     		.short	28768
 893 0038 0500     		.short	5
 894 003a FE       		.byte	-2
 895 003b 23       		.byte	35
 896 003c 0000     		.short	0
 897 003e 7070     		.short	28784
 898 0040 2000     		.short	32
 899 0042 0A       		.byte	10
 900 0043 22       		.byte	34
 901 0044 0000     		.short	0
 902 0046 0051     		.short	20736
 903 0048 3000     		.short	48
 904 004a 0B       		.byte	11
 905 004b 22       		.byte	34
 906 004c 0000     		.short	0
 907 004e 3051     		.short	20784
 908 0050 1000     		.short	16
 909 0052 FE       		.byte	-2
 910 0053 22       		.byte	34
 911 0054 0000     		.short	0
 912 0056 C051     		.short	20928
 913 0058 8001     		.short	384
 914 005a 0D       		.byte	13
 915 005b 22       		.byte	34
 916 005c 0000     		.short	0
 917 005e 0000     		.short	0
 918 0060 8001     		.short	384
 919 0062 0E       		.byte	14
 920 0063 22       		.byte	34
 921 0064 0000     		.short	0
 922 0066 0002     		.short	512
 923 0068 8003     		.short	896
 924 006a 0F       		.byte	15
 925 006b 22       		.byte	34
 926 006c 0000     		.short	0
 927 006e 0004     		.short	1024
 928 0070 8001     		.short	384
 929 0072 10       		.byte	16
 930 0073 22       		.byte	34
 931 0074 0000     		.short	0
 932 0076 0008     		.short	2048
 933 0078 8003     		.short	896
 934 007a 11       		.byte	17
 935 007b 22       		.byte	34
 936 007c 0000     		.short	0
 937 007e 000A     		.short	2560
 938 0080 8001     		.short	384
 939 0082 12       		.byte	18
 940 0083 22       		.byte	34
 941 0084 0000     		.short	0
ARM GAS  C:\Users\Rolando\AppData\Local\Temp\ccQSghZP.s 			page 29


 942 0086 000E     		.short	3584
 943 0088 8003     		.short	896
 944 008a 13       		.byte	19
 945 008b 22       		.byte	34
 946 008c 0000     		.short	0
 947 008e 0014     		.short	5120
 948 0090 8001     		.short	384
 949 0092 14       		.byte	20
 950 0093 22       		.byte	34
 951 0094 0000     		.short	0
 952 0096 0018     		.short	6144
 953 0098 0002     		.short	512
 954 009a 15       		.byte	21
 955 009b 22       		.byte	34
 956 009c 0000     		.short	0
 957 009e 001A     		.short	6656
 958 00a0 8000     		.short	128
 959 00a2 16       		.byte	22
 960 00a3 22       		.byte	34
 961 00a4 0000     		.short	0
 962 00a6 0041     		.short	16640
 963 00a8 8000     		.short	128
 964 00aa 17       		.byte	23
 965 00ab 22       		.byte	34
 966 00ac 0000     		.short	0
 967 00ae 0042     		.short	16896
 968 00b0 8000     		.short	128
 969 00b2 18       		.byte	24
 970 00b3 22       		.byte	34
 971 00b4 0000     		.short	0
 972 00b6 0043     		.short	17152
 973 00b8 8000     		.short	128
 974 00ba 19       		.byte	25
 975 00bb 22       		.byte	34
 976 00bc 0000     		.short	0
 977 00be 0044     		.short	17408
 978 00c0 8000     		.short	128
 979 00c2 1A       		.byte	26
 980 00c3 22       		.byte	34
 981 00c4 0000     		.short	0
 982 00c6 0045     		.short	17664
 983 00c8 8000     		.short	128
 984 00ca 1B       		.byte	27
 985 00cb 22       		.byte	34
 986 00cc 0000     		.short	0
 987 00ce 0048     		.short	18432
 988 00d0 0001     		.short	256
 989 00d2 1C       		.byte	28
 990 00d3 22       		.byte	34
 991 00d4 0000     		.short	0
 992 00d6 0049     		.short	18688
 993 00d8 8000     		.short	128
 994 00da 1D       		.byte	29
 995 00db 22       		.byte	34
 996 00dc 0000     		.short	0
 997 00de 004C     		.short	19456
 998 00e0 0001     		.short	256
ARM GAS  C:\Users\Rolando\AppData\Local\Temp\ccQSghZP.s 			page 30


 999 00e2 1E       		.byte	30
 1000 00e3 22       		.byte	34
 1001 00e4 0000     		.short	0
 1002 00e6 004D     		.short	19712
 1003 00e8 2000     		.short	32
 1004 00ea FE       		.byte	-2
 1005 00eb 22       		.byte	34
 1006 00ec 0000     		.short	0
 1007 00ee 0050     		.short	20480
 1008 00f0 0700     		.short	7
 1009 00f2 20       		.byte	32
 1010 00f3 23       		.byte	35
 1011 00f4 0000     		.short	0
 1012 00f6 7852     		.short	21112
 1013 00f8 0800     		.short	8
 1014 00fa FE       		.byte	-2
 1015 00fb 23       		.byte	35
 1016 00fc 0000     		.short	0
 1017 00fe 7845     		.short	17784
 1018 0100 0800     		.short	8
 1019 0102 22       		.byte	34
 1020 0103 23       		.byte	35
 1021 0104 0000     		.short	0
 1022 0106 0051     		.short	20736
 1023 0108 8000     		.short	128
 1024 010a 23       		.byte	35
 1025 010b 23       		.byte	35
 1026 010c 0000     		.short	0
 1027 010e 804C     		.short	19584
 1028 0110 8000     		.short	128
 1029 0112 24       		.byte	36
 1030 0113 23       		.byte	35
 1031 0114 0000     		.short	0
 1032 0116 0047     		.short	18176
 1033 0118 8000     		.short	128
 1034 011a 25       		.byte	37
 1035 011b 23       		.byte	35
 1036 011c 0000     		.short	0
 1037 011e 8047     		.short	18304
 1038 0120 8000     		.short	128
 1039 0122 26       		.byte	38
 1040 0123 23       		.byte	35
 1041 0124 0000     		.short	0
 1042 0126 0046     		.short	17920
 1043 0128 8000     		.short	128
 1044 012a 27       		.byte	39
 1045 012b 23       		.byte	35
 1046 012c 0000     		.short	0
 1047 012e 8046     		.short	18048
 1048 0130 8000     		.short	128
 1049 0132 28       		.byte	40
 1050 0133 23       		.byte	35
 1051 0134 0000     		.short	0
 1052 0136 8045     		.short	17792
 1053 0138 8000     		.short	128
 1054 013a 29       		.byte	41
 1055 013b 23       		.byte	35
ARM GAS  C:\Users\Rolando\AppData\Local\Temp\ccQSghZP.s 			page 31


 1056 013c 0000     		.short	0
 1057 013e 8044     		.short	17536
 1058 0140 8000     		.short	128
 1059 0142 2A       		.byte	42
 1060 0143 23       		.byte	35
 1061 0144 0000     		.short	0
 1062 0146 8019     		.short	6528
 1063 0148 8000     		.short	128
 1064 014a 2B       		.byte	43
 1065 014b 23       		.byte	35
 1066 014c 0000     		.short	0
 1067 014e 8017     		.short	6016
 1068 0150 8000     		.short	128
 1069 0152 2C       		.byte	44
 1070 0153 23       		.byte	35
 1071 0154 0000     		.short	0
 1072 0156 8009     		.short	2432
 1073 0158 8000     		.short	128
 1074 015a 2D       		.byte	45
 1075 015b 23       		.byte	35
 1076 015c 0000     		.short	0
 1077 015e 8007     		.short	1920
 1078 0160 8000     		.short	128
 1079 0162 2E       		.byte	46
 1080 0163 23       		.byte	35
 1081 0164 0000     		.short	0
 1082 0166 800D     		.short	3456
 1083 0168 8000     		.short	128
 1084 016a 2F       		.byte	47
 1085 016b 23       		.byte	35
 1086 016c 0000     		.short	0
 1087 016e 8003     		.short	896
 1088 0170 8000     		.short	128
 1089 0172 30       		.byte	48
 1090 0173 23       		.byte	35
 1091 0174 0000     		.short	0
 1092 0176 800F     		.short	3968
 1093 0178 8000     		.short	128
 1094 017a 31       		.byte	49
 1095 017b 23       		.byte	35
 1096 017c 0000     		.short	0
 1097 017e 8001     		.short	384
 1098 0180 8000     		.short	128
 1099 0182 32       		.byte	50
 1100 0183 23       		.byte	35
 1101 0184 0000     		.short	0
 1102 0186 8048     		.short	18560
 1103 0188 8000     		.short	128
 1104 018a 33       		.byte	51
 1105 018b 23       		.byte	35
 1106 018c 0000     		.short	0
 1107 018e 8043     		.short	17280
 1108 0190 8000     		.short	128
 1109 0192 34       		.byte	52
 1110 0193 23       		.byte	35
 1111 0194 0000     		.short	0
 1112 0196 8042     		.short	17024
ARM GAS  C:\Users\Rolando\AppData\Local\Temp\ccQSghZP.s 			page 32


 1113 0198 8000     		.short	128
 1114 019a 35       		.byte	53
 1115 019b 23       		.byte	35
 1116 019c 0000     		.short	0
 1117 019e 8041     		.short	16768
 1118 01a0 8000     		.short	128
 1119 01a2 36       		.byte	54
 1120 01a3 23       		.byte	35
 1121 01a4 0000     		.short	0
 1122 01a6 0040     		.short	16384
 1123 01a8 8000     		.short	128
 1124 01aa FE       		.byte	-2
 1125 01ab 23       		.byte	35
 1126 01ac 0000     		.short	0
 1127 01ae 8040     		.short	16512
 1128              		.section	.rodata
 1129              		.align	2
 1130              		.type	CFG_TD_ADDR0.4806, %object
 1131              		.size	CFG_TD_ADDR0.4806, 216
 1132              	CFG_TD_ADDR0.4806:
 1133 0000 D0010000 		.word	CH1_ADDR_DATA0.4799
 1134 0004 C8010000 		.word	CH2_ADDR_DATA0.4800
 1135 0008 C0010000 		.word	CH5_ADDR_DATA0.4801
 1136 000c B8010000 		.word	CH6_ADDR_DATA0.4802
 1137 0010 B0010000 		.word	DMA_TD_START_CMD.4803
 1138 0014 B0010000 		.word	DMA_TD_START_CMD.4803
 1139 0018 B0010000 		.word	DMA_TD_START_CMD.4803
 1140 001c B0010000 		.word	DMA_TD_START_CMD.4803
 1141 0020 00000000 		.word	DMA_ZERO_VAL.4804
 1142 0024 00000000 		.word	DMA_ZERO_VAL.4804
 1143 0028 00000000 		.word	DMA_ZERO_VAL.4804
 1144 002c 00000000 		.word	DMA_ZERO_VAL.4804
 1145 0030 00000000 		.word	DMA_ZERO_VAL.4804
 1146 0034 00000000 		.word	DMA_ZERO_VAL.4804
 1147 0038 00000000 		.word	DMA_ZERO_VAL.4804
 1148 003c 00000000 		.word	DMA_ZERO_VAL.4804
 1149 0040 00000000 		.word	DMA_ZERO_VAL.4804
 1150 0044 00000000 		.word	DMA_ZERO_VAL.4804
 1151 0048 00000000 		.word	DMA_ZERO_VAL.4804
 1152 004c 00000000 		.word	DMA_ZERO_VAL.4804
 1153 0050 00000000 		.word	DMA_ZERO_VAL.4804
 1154 0054 00000000 		.word	DMA_ZERO_VAL.4804
 1155 0058 00000000 		.word	DMA_ZERO_VAL.4804
 1156 005c 00000000 		.word	DMA_ZERO_VAL.4804
 1157 0060 00000000 		.word	DMA_ZERO_VAL.4804
 1158 0064 00000000 		.word	DMA_ZERO_VAL.4804
 1159 0068 00000000 		.word	DMA_ZERO_VAL.4804
 1160 006c 00000000 		.word	DMA_ZERO_VAL.4804
 1161 0070 00000000 		.word	DMA_ZERO_VAL.4804
 1162 0074 00000000 		.word	DMA_ZERO_VAL.4804
 1163 0078 00000048 		.word	1207959552
 1164 007c 08000048 		.word	1207959560
 1165 0080 10000048 		.word	1207959568
 1166 0084 18000048 		.word	1207959576
 1167 0088 98000048 		.word	1207959704
 1168 008c 18010048 		.word	1207959832
 1169 0090 98010048 		.word	1207959960
ARM GAS  C:\Users\Rolando\AppData\Local\Temp\ccQSghZP.s 			page 33


 1170 0094 18020048 		.word	1207960088
 1171 0098 98020048 		.word	1207960216
 1172 009c 18030048 		.word	1207960344
 1173 00a0 98030048 		.word	1207960472
 1174 00a4 18040048 		.word	1207960600
 1175 00a8 98040048 		.word	1207960728
 1176 00ac 18050048 		.word	1207960856
 1177 00b0 98050048 		.word	1207960984
 1178 00b4 18060048 		.word	1207961112
 1179 00b8 98060048 		.word	1207961240
 1180 00bc 18070048 		.word	1207961368
 1181 00c0 98070048 		.word	1207961496
 1182 00c4 18080048 		.word	1207961624
 1183 00c8 98080048 		.word	1207961752
 1184 00cc 18090048 		.word	1207961880
 1185 00d0 98090048 		.word	1207962008
 1186 00d4 180A0048 		.word	1207962136
 1187              		.section	.dma_init
 1188              		.align	2
 1189              		.type	DMA_TD_START_CMD.4803, %object
 1190              		.size	DMA_TD_START_CMD.4803, 5
 1191              	DMA_TD_START_CMD.4803:
 1192 01b0 01       		.byte	1
 1193 01b1 00       		.byte	0
 1194 01b2 00       		.byte	0
 1195 01b3 00       		.byte	0
 1196 01b4 01       		.byte	1
 1197 01b5 000000   		.align	2
 1198              		.type	CH6_ADDR_DATA0.4802, %object
 1199              		.size	CH6_ADDR_DATA0.4802, 8
 1200              	CH6_ADDR_DATA0.4802:
 1201 01b8 01       		.byte	1
 1202 01b9 00       		.byte	0
 1203 01ba 00       		.byte	0
 1204 01bb 00       		.byte	0
 1205 01bc 00       		.byte	0
 1206 01bd 48       		.byte	72
 1207 01be 01       		.byte	1
 1208 01bf 40       		.byte	64
 1209              		.align	2
 1210              		.type	CH5_ADDR_DATA0.4801, %object
 1211              		.size	CH5_ADDR_DATA0.4801, 8
 1212              	CH5_ADDR_DATA0.4801:
 1213 01c0 01       		.byte	1
 1214 01c1 00       		.byte	0
 1215 01c2 00       		.byte	0
 1216 01c3 00       		.byte	0
 1217 01c4 00       		.byte	0
 1218 01c5 48       		.byte	72
 1219 01c6 00       		.byte	0
 1220 01c7 40       		.byte	64
 1221              		.align	2
 1222              		.type	CH2_ADDR_DATA0.4800, %object
 1223              		.size	CH2_ADDR_DATA0.4800, 8
 1224              	CH2_ADDR_DATA0.4800:
 1225 01c8 01       		.byte	1
 1226 01c9 00       		.byte	0
ARM GAS  C:\Users\Rolando\AppData\Local\Temp\ccQSghZP.s 			page 34


 1227 01ca 00       		.byte	0
 1228 01cb 00       		.byte	0
 1229 01cc 00       		.byte	0
 1230 01cd 20       		.byte	32
 1231 01ce 01       		.byte	1
 1232 01cf 40       		.byte	64
 1233              		.align	2
 1234              		.type	CH1_ADDR_DATA0.4799, %object
 1235              		.size	CH1_ADDR_DATA0.4799, 8
 1236              	CH1_ADDR_DATA0.4799:
 1237 01d0 01       		.byte	1
 1238 01d1 00       		.byte	0
 1239 01d2 00       		.byte	0
 1240 01d3 00       		.byte	0
 1241 01d4 00       		.byte	0
 1242 01d5 20       		.byte	32
 1243 01d6 00       		.byte	0
 1244 01d7 40       		.byte	64
 1245              		.text
 1246              	.Letext0:
 1247              		.file 2 "c:\\program files (x86)\\cypress\\psoc creator\\3.3\\psoc creator\\import\\gnu\\arm\\4.9.
 1248              		.file 3 ".\\Generated_Source\\PSoC5\\cytypes.h"