ARM GAS  C:\Users\Rolando\AppData\Local\Temp\ccy9NtHY.s 			page 1


   1              		.syntax unified
   2              		.cpu cortex-m3
   3              		.fpu softvfp
   4              		.eabi_attribute 20, 1
   5              		.eabi_attribute 21, 1
   6              		.eabi_attribute 23, 3
   7              		.eabi_attribute 24, 1
   8              		.eabi_attribute 25, 1
   9              		.eabi_attribute 26, 1
  10              		.eabi_attribute 30, 6
  11              		.eabi_attribute 34, 1
  12              		.eabi_attribute 18, 4
  13              		.thumb
  14              		.file	"USBUART_1_vnd.c"
  15              		.text
  16              	.Ltext0:
  17              		.cfi_sections	.debug_frame
  18              		.section	.text.USBUART_1_HandleVendorRqst,"ax",%progbits
  19              		.align	2
  20              		.global	USBUART_1_HandleVendorRqst
  21              		.thumb
  22              		.thumb_func
  23              		.type	USBUART_1_HandleVendorRqst, %function
  24              	USBUART_1_HandleVendorRqst:
  25              	.LFB0:
  26              		.file 1 ".\\Generated_Source\\PSoC5\\USBUART_1_vnd.c"
   1:.\Generated_Source\PSoC5/USBUART_1_vnd.c **** /*******************************************************************************
   2:.\Generated_Source\PSoC5/USBUART_1_vnd.c **** * File Name: USBUART_1_vnd.c
   3:.\Generated_Source\PSoC5/USBUART_1_vnd.c **** * Version 2.70
   4:.\Generated_Source\PSoC5/USBUART_1_vnd.c **** *
   5:.\Generated_Source\PSoC5/USBUART_1_vnd.c **** * Description:
   6:.\Generated_Source\PSoC5/USBUART_1_vnd.c **** *  USB vendor request handler.
   7:.\Generated_Source\PSoC5/USBUART_1_vnd.c **** *
   8:.\Generated_Source\PSoC5/USBUART_1_vnd.c **** * Note:
   9:.\Generated_Source\PSoC5/USBUART_1_vnd.c **** *
  10:.\Generated_Source\PSoC5/USBUART_1_vnd.c **** ********************************************************************************
  11:.\Generated_Source\PSoC5/USBUART_1_vnd.c **** * Copyright 2008-2013, Cypress Semiconductor Corporation.  All rights reserved.
  12:.\Generated_Source\PSoC5/USBUART_1_vnd.c **** * You may use this file only in accordance with the license, terms, conditions,
  13:.\Generated_Source\PSoC5/USBUART_1_vnd.c **** * disclaimers, and limitations in the end user license agreement accompanying
  14:.\Generated_Source\PSoC5/USBUART_1_vnd.c **** * the software package with which this file was provided.
  15:.\Generated_Source\PSoC5/USBUART_1_vnd.c **** *******************************************************************************/
  16:.\Generated_Source\PSoC5/USBUART_1_vnd.c **** 
  17:.\Generated_Source\PSoC5/USBUART_1_vnd.c **** #include "USBUART_1.h"
  18:.\Generated_Source\PSoC5/USBUART_1_vnd.c **** #include "USBUART_1_pvt.h"
  19:.\Generated_Source\PSoC5/USBUART_1_vnd.c **** 
  20:.\Generated_Source\PSoC5/USBUART_1_vnd.c **** #if(USBUART_1_EXTERN_VND == USBUART_1_FALSE)
  21:.\Generated_Source\PSoC5/USBUART_1_vnd.c **** 
  22:.\Generated_Source\PSoC5/USBUART_1_vnd.c **** 
  23:.\Generated_Source\PSoC5/USBUART_1_vnd.c **** /***************************************
  24:.\Generated_Source\PSoC5/USBUART_1_vnd.c **** * Vendor Specific Declarations
  25:.\Generated_Source\PSoC5/USBUART_1_vnd.c **** ***************************************/
  26:.\Generated_Source\PSoC5/USBUART_1_vnd.c **** 
  27:.\Generated_Source\PSoC5/USBUART_1_vnd.c **** /* `#START VENDOR_SPECIFIC_DECLARATIONS` Place your declaration here */
  28:.\Generated_Source\PSoC5/USBUART_1_vnd.c **** 
  29:.\Generated_Source\PSoC5/USBUART_1_vnd.c **** /* `#END` */
  30:.\Generated_Source\PSoC5/USBUART_1_vnd.c **** 
  31:.\Generated_Source\PSoC5/USBUART_1_vnd.c **** 
ARM GAS  C:\Users\Rolando\AppData\Local\Temp\ccy9NtHY.s 			page 2


  32:.\Generated_Source\PSoC5/USBUART_1_vnd.c **** /*******************************************************************************
  33:.\Generated_Source\PSoC5/USBUART_1_vnd.c **** * Function Name: USBUART_1_HandleVendorRqst
  34:.\Generated_Source\PSoC5/USBUART_1_vnd.c **** ********************************************************************************
  35:.\Generated_Source\PSoC5/USBUART_1_vnd.c **** *
  36:.\Generated_Source\PSoC5/USBUART_1_vnd.c **** * Summary:
  37:.\Generated_Source\PSoC5/USBUART_1_vnd.c **** *  This routine provide users with a method to implement vendor specific
  38:.\Generated_Source\PSoC5/USBUART_1_vnd.c **** *  requests.
  39:.\Generated_Source\PSoC5/USBUART_1_vnd.c **** *
  40:.\Generated_Source\PSoC5/USBUART_1_vnd.c **** *  To implement vendor specific requests, add your code in this function to
  41:.\Generated_Source\PSoC5/USBUART_1_vnd.c **** *  decode and disposition the request.  If the request is handled, your code
  42:.\Generated_Source\PSoC5/USBUART_1_vnd.c **** *  must set the variable "requestHandled" to TRUE, indicating that the
  43:.\Generated_Source\PSoC5/USBUART_1_vnd.c **** *  request has been handled.
  44:.\Generated_Source\PSoC5/USBUART_1_vnd.c **** *
  45:.\Generated_Source\PSoC5/USBUART_1_vnd.c **** * Parameters:
  46:.\Generated_Source\PSoC5/USBUART_1_vnd.c **** *  None.
  47:.\Generated_Source\PSoC5/USBUART_1_vnd.c **** *
  48:.\Generated_Source\PSoC5/USBUART_1_vnd.c **** * Return:
  49:.\Generated_Source\PSoC5/USBUART_1_vnd.c **** *  requestHandled.
  50:.\Generated_Source\PSoC5/USBUART_1_vnd.c **** *
  51:.\Generated_Source\PSoC5/USBUART_1_vnd.c **** * Reentrant:
  52:.\Generated_Source\PSoC5/USBUART_1_vnd.c **** *  No.
  53:.\Generated_Source\PSoC5/USBUART_1_vnd.c **** *
  54:.\Generated_Source\PSoC5/USBUART_1_vnd.c **** *******************************************************************************/
  55:.\Generated_Source\PSoC5/USBUART_1_vnd.c **** uint8 USBUART_1_HandleVendorRqst(void) 
  56:.\Generated_Source\PSoC5/USBUART_1_vnd.c **** {
  27              		.loc 1 56 0
  28              		.cfi_startproc
  29              		@ args = 0, pretend = 0, frame = 8
  30              		@ frame_needed = 1, uses_anonymous_args = 0
  31 0000 80B5     		push	{r7, lr}
  32              		.cfi_def_cfa_offset 8
  33              		.cfi_offset 7, -8
  34              		.cfi_offset 14, -4
  35 0002 82B0     		sub	sp, sp, #8
  36              		.cfi_def_cfa_offset 16
  37 0004 00AF     		add	r7, sp, #0
  38              		.cfi_def_cfa_register 7
  57:.\Generated_Source\PSoC5/USBUART_1_vnd.c ****     uint8 requestHandled = USBUART_1_FALSE;
  39              		.loc 1 57 0
  40 0006 0023     		movs	r3, #0
  41 0008 FB71     		strb	r3, [r7, #7]
  58:.\Generated_Source\PSoC5/USBUART_1_vnd.c **** 
  59:.\Generated_Source\PSoC5/USBUART_1_vnd.c ****     if ((CY_GET_REG8(USBUART_1_bmRequestType) & USBUART_1_RQST_DIR_MASK) == USBUART_1_RQST_DIR_D2H)
  42              		.loc 1 59 0
  43 000a 0F4B     		ldr	r3, .L6
  44 000c 1B78     		ldrb	r3, [r3]
  45 000e DBB2     		uxtb	r3, r3
  46 0010 DBB2     		uxtb	r3, r3
  47 0012 5BB2     		sxtb	r3, r3
  48 0014 002B     		cmp	r3, #0
  49 0016 12DA     		bge	.L2
  60:.\Generated_Source\PSoC5/USBUART_1_vnd.c ****     {
  61:.\Generated_Source\PSoC5/USBUART_1_vnd.c ****         /* Control Read */
  62:.\Generated_Source\PSoC5/USBUART_1_vnd.c ****         switch (CY_GET_REG8(USBUART_1_bRequest))
  50              		.loc 1 62 0
  51 0018 0C4B     		ldr	r3, .L6+4
  52 001a 1B78     		ldrb	r3, [r3]
ARM GAS  C:\Users\Rolando\AppData\Local\Temp\ccy9NtHY.s 			page 3


  53 001c DBB2     		uxtb	r3, r3
  54 001e 012B     		cmp	r3, #1
  55 0020 00D0     		beq	.L4
  63:.\Generated_Source\PSoC5/USBUART_1_vnd.c ****         {
  64:.\Generated_Source\PSoC5/USBUART_1_vnd.c ****             case USBUART_1_GET_EXTENDED_CONFIG_DESCRIPTOR:
  65:.\Generated_Source\PSoC5/USBUART_1_vnd.c ****                 #if defined(USBUART_1_ENABLE_MSOS_STRING)
  66:.\Generated_Source\PSoC5/USBUART_1_vnd.c ****                     USBUART_1_currentTD.pData = (volatile uint8 *)&USBUART_1_MSOS_CONFIGURATION_DES
  67:.\Generated_Source\PSoC5/USBUART_1_vnd.c ****                     USBUART_1_currentTD.count = USBUART_1_MSOS_CONFIGURATION_DESCR[0u];
  68:.\Generated_Source\PSoC5/USBUART_1_vnd.c ****                     requestHandled  = USBUART_1_InitControlRead();
  69:.\Generated_Source\PSoC5/USBUART_1_vnd.c ****                 #endif /*  USBUART_1_ENABLE_MSOS_STRING */
  70:.\Generated_Source\PSoC5/USBUART_1_vnd.c ****                 break;
  71:.\Generated_Source\PSoC5/USBUART_1_vnd.c ****             default:
  72:.\Generated_Source\PSoC5/USBUART_1_vnd.c ****                 break;
  56              		.loc 1 72 0
  57 0022 0CE0     		b	.L2
  58              	.L4:
  66:.\Generated_Source\PSoC5/USBUART_1_vnd.c ****                     USBUART_1_currentTD.count = USBUART_1_MSOS_CONFIGURATION_DESCR[0u];
  59              		.loc 1 66 0
  60 0024 0A4B     		ldr	r3, .L6+8
  61 0026 0B4A     		ldr	r2, .L6+12
  62 0028 5A60     		str	r2, [r3, #4]
  67:.\Generated_Source\PSoC5/USBUART_1_vnd.c ****                     requestHandled  = USBUART_1_InitControlRead();
  63              		.loc 1 67 0
  64 002a 0A4B     		ldr	r3, .L6+12
  65 002c 1B78     		ldrb	r3, [r3]	@ zero_extendqisi2
  66 002e 9AB2     		uxth	r2, r3
  67 0030 074B     		ldr	r3, .L6+8
  68 0032 1A80     		strh	r2, [r3]	@ movhi
  68:.\Generated_Source\PSoC5/USBUART_1_vnd.c ****                 #endif /*  USBUART_1_ENABLE_MSOS_STRING */
  69              		.loc 1 68 0
  70 0034 FFF7FEFF 		bl	USBUART_1_InitControlRead
  71 0038 0346     		mov	r3, r0
  72 003a FB71     		strb	r3, [r7, #7]
  70:.\Generated_Source\PSoC5/USBUART_1_vnd.c ****             default:
  73              		.loc 1 70 0
  74 003c 00BF     		nop
  75              	.L2:
  73:.\Generated_Source\PSoC5/USBUART_1_vnd.c ****         }
  74:.\Generated_Source\PSoC5/USBUART_1_vnd.c ****     }
  75:.\Generated_Source\PSoC5/USBUART_1_vnd.c **** 
  76:.\Generated_Source\PSoC5/USBUART_1_vnd.c ****     /* `#START VENDOR_SPECIFIC_CODE` Place your vendor specific request here */
  77:.\Generated_Source\PSoC5/USBUART_1_vnd.c **** 
  78:.\Generated_Source\PSoC5/USBUART_1_vnd.c ****     /* `#END` */
  79:.\Generated_Source\PSoC5/USBUART_1_vnd.c **** 
  80:.\Generated_Source\PSoC5/USBUART_1_vnd.c ****     return(requestHandled);
  76              		.loc 1 80 0
  77 003e FB79     		ldrb	r3, [r7, #7]	@ zero_extendqisi2
  81:.\Generated_Source\PSoC5/USBUART_1_vnd.c **** }
  78              		.loc 1 81 0
  79 0040 1846     		mov	r0, r3
  80 0042 0837     		adds	r7, r7, #8
  81              		.cfi_def_cfa_offset 8
  82 0044 BD46     		mov	sp, r7
  83              		.cfi_def_cfa_register 13
  84              		@ sp needed
  85 0046 80BD     		pop	{r7, pc}
  86              	.L7:
ARM GAS  C:\Users\Rolando\AppData\Local\Temp\ccy9NtHY.s 			page 4


  87              		.align	2
  88              	.L6:
  89 0048 00600040 		.word	1073766400
  90 004c 01600040 		.word	1073766401
  91 0050 00000000 		.word	USBUART_1_currentTD
  92 0054 00000000 		.word	USBUART_1_MSOS_CONFIGURATION_DESCR
  93              		.cfi_endproc
  94              	.LFE0:
  95              		.size	USBUART_1_HandleVendorRqst, .-USBUART_1_HandleVendorRqst
  96              		.text
  97              	.Letext0:
  98              		.file 2 ".\\Generated_Source\\PSoC5\\cytypes.h"
  99              		.file 3 ".\\Generated_Source\\PSoC5\\USBUART_1.h"
 100              		.file 4 ".\\Generated_Source\\PSoC5\\USBUART_1_pvt.h"