ARM GAS  C:\Users\Rolando\AppData\Local\Temp\ccwhT7XD.s 			page 1


   1              		.syntax unified
   2              		.cpu cortex-m3
   3              		.fpu softvfp
   4              		.eabi_attribute 20, 1
   5              		.eabi_attribute 21, 1
   6              		.eabi_attribute 23, 3
   7              		.eabi_attribute 24, 1
   8              		.eabi_attribute 25, 1
   9              		.eabi_attribute 26, 1
  10              		.eabi_attribute 30, 6
  11              		.eabi_attribute 34, 1
  12              		.eabi_attribute 18, 4
  13              		.thumb
  14              		.file	"cyfitter_cfg.c"
  15              		.text
  16              	.Ltext0:
  17              		.cfi_sections	.debug_frame
  18              		.section	.text.CYMEMZERO,"ax",%progbits
  19              		.align	2
  20              		.thumb
  21              		.thumb_func
  22              		.type	CYMEMZERO, %function
  23              	CYMEMZERO:
  24              	.LFB0:
  25              		.file 1 ".\\Generated_Source\\PSoC5\\cyfitter_cfg.c"
   1:.\Generated_Source\PSoC5/cyfitter_cfg.c **** /*******************************************************************************
   2:.\Generated_Source\PSoC5/cyfitter_cfg.c **** * File Name: cyfitter_cfg.c
   3:.\Generated_Source\PSoC5/cyfitter_cfg.c **** * 
   4:.\Generated_Source\PSoC5/cyfitter_cfg.c **** * PSoC Creator  3.3 SP1
   5:.\Generated_Source\PSoC5/cyfitter_cfg.c **** *
   6:.\Generated_Source\PSoC5/cyfitter_cfg.c **** * Description:
   7:.\Generated_Source\PSoC5/cyfitter_cfg.c **** * This file contains device initialization code.
   8:.\Generated_Source\PSoC5/cyfitter_cfg.c **** * Except for the user defined sections in CyClockStartupError(), this file should not be modified.
   9:.\Generated_Source\PSoC5/cyfitter_cfg.c **** * This file is automatically generated by PSoC Creator.
  10:.\Generated_Source\PSoC5/cyfitter_cfg.c **** *
  11:.\Generated_Source\PSoC5/cyfitter_cfg.c **** ********************************************************************************
  12:.\Generated_Source\PSoC5/cyfitter_cfg.c **** * Copyright (c) 2007-2015 Cypress Semiconductor.  All rights reserved.
  13:.\Generated_Source\PSoC5/cyfitter_cfg.c **** * You may use this file only in accordance with the license, terms, conditions, 
  14:.\Generated_Source\PSoC5/cyfitter_cfg.c **** * disclaimers, and limitations in the end user license agreement accompanying 
  15:.\Generated_Source\PSoC5/cyfitter_cfg.c **** * the software package with which this file was provided.
  16:.\Generated_Source\PSoC5/cyfitter_cfg.c **** ********************************************************************************/
  17:.\Generated_Source\PSoC5/cyfitter_cfg.c **** 
  18:.\Generated_Source\PSoC5/cyfitter_cfg.c **** #include <string.h>
  19:.\Generated_Source\PSoC5/cyfitter_cfg.c **** #include "cytypes.h"
  20:.\Generated_Source\PSoC5/cyfitter_cfg.c **** #include "cydevice_trm.h"
  21:.\Generated_Source\PSoC5/cyfitter_cfg.c **** #include "cyfitter.h"
  22:.\Generated_Source\PSoC5/cyfitter_cfg.c **** #include "CyLib.h"
  23:.\Generated_Source\PSoC5/cyfitter_cfg.c **** #include "cyfitter_cfg.h"
  24:.\Generated_Source\PSoC5/cyfitter_cfg.c **** 
  25:.\Generated_Source\PSoC5/cyfitter_cfg.c **** #define CY_NEED_CYCLOCKSTARTUPERROR 1
  26:.\Generated_Source\PSoC5/cyfitter_cfg.c **** 
  27:.\Generated_Source\PSoC5/cyfitter_cfg.c **** 
  28:.\Generated_Source\PSoC5/cyfitter_cfg.c **** #if defined(__GNUC__) || defined(__ARMCC_VERSION)
  29:.\Generated_Source\PSoC5/cyfitter_cfg.c ****     #define CYPACKED 
  30:.\Generated_Source\PSoC5/cyfitter_cfg.c ****     #define CYPACKED_ATTR __attribute__ ((packed))
  31:.\Generated_Source\PSoC5/cyfitter_cfg.c ****     #define CYALIGNED __attribute__ ((aligned))
  32:.\Generated_Source\PSoC5/cyfitter_cfg.c ****     #define CY_CFG_UNUSED __attribute__ ((unused))
ARM GAS  C:\Users\Rolando\AppData\Local\Temp\ccwhT7XD.s 			page 2


  33:.\Generated_Source\PSoC5/cyfitter_cfg.c ****     #ifndef CY_CFG_SECTION
  34:.\Generated_Source\PSoC5/cyfitter_cfg.c ****         #define CY_CFG_SECTION __attribute__ ((section(".psocinit")))
  35:.\Generated_Source\PSoC5/cyfitter_cfg.c ****     #endif
  36:.\Generated_Source\PSoC5/cyfitter_cfg.c ****     
  37:.\Generated_Source\PSoC5/cyfitter_cfg.c ****     #if CYDEV_CONFIGURATION_DMA
  38:.\Generated_Source\PSoC5/cyfitter_cfg.c ****         #if (defined(__ARMCC_VERSION) || defined(__GNUC__))
  39:.\Generated_Source\PSoC5/cyfitter_cfg.c ****             #ifndef DMAINITSEC
  40:.\Generated_Source\PSoC5/cyfitter_cfg.c ****                 #define DMAINITSEC __attribute__ ((section(".dma_init")))
  41:.\Generated_Source\PSoC5/cyfitter_cfg.c ****             #endif
  42:.\Generated_Source\PSoC5/cyfitter_cfg.c ****         #elif defined(__ICCARM__)
  43:.\Generated_Source\PSoC5/cyfitter_cfg.c ****             #define DMAINITSEC _Pragma("location=\".dma_init\"")
  44:.\Generated_Source\PSoC5/cyfitter_cfg.c ****         #endif
  45:.\Generated_Source\PSoC5/cyfitter_cfg.c ****     #else
  46:.\Generated_Source\PSoC5/cyfitter_cfg.c ****         #define DMAINITSEC
  47:.\Generated_Source\PSoC5/cyfitter_cfg.c ****     #endif
  48:.\Generated_Source\PSoC5/cyfitter_cfg.c **** 
  49:.\Generated_Source\PSoC5/cyfitter_cfg.c ****     #if defined(__ARMCC_VERSION)
  50:.\Generated_Source\PSoC5/cyfitter_cfg.c ****         #define CY_CFG_MEMORY_BARRIER() __memory_changed()
  51:.\Generated_Source\PSoC5/cyfitter_cfg.c ****     #else
  52:.\Generated_Source\PSoC5/cyfitter_cfg.c ****         #define CY_CFG_MEMORY_BARRIER() __sync_synchronize()
  53:.\Generated_Source\PSoC5/cyfitter_cfg.c ****     #endif
  54:.\Generated_Source\PSoC5/cyfitter_cfg.c ****     
  55:.\Generated_Source\PSoC5/cyfitter_cfg.c **** #elif defined(__ICCARM__)
  56:.\Generated_Source\PSoC5/cyfitter_cfg.c ****     #include <intrinsics.h>
  57:.\Generated_Source\PSoC5/cyfitter_cfg.c **** 
  58:.\Generated_Source\PSoC5/cyfitter_cfg.c ****     #define CYPACKED __packed
  59:.\Generated_Source\PSoC5/cyfitter_cfg.c ****     #define CYPACKED_ATTR 
  60:.\Generated_Source\PSoC5/cyfitter_cfg.c ****     #define CYALIGNED _Pragma("data_alignment=4")
  61:.\Generated_Source\PSoC5/cyfitter_cfg.c ****     #define CY_CFG_UNUSED _Pragma("diag_suppress=Pe177")
  62:.\Generated_Source\PSoC5/cyfitter_cfg.c ****     #define CY_CFG_SECTION _Pragma("location=\".psocinit\"")
  63:.\Generated_Source\PSoC5/cyfitter_cfg.c ****     
  64:.\Generated_Source\PSoC5/cyfitter_cfg.c ****     #if CYDEV_CONFIGURATION_DMA
  65:.\Generated_Source\PSoC5/cyfitter_cfg.c ****         #if (defined(__ARMCC_VERSION) || defined(__GNUC__))
  66:.\Generated_Source\PSoC5/cyfitter_cfg.c ****             #ifndef DMAINITSEC
  67:.\Generated_Source\PSoC5/cyfitter_cfg.c ****                 #define DMAINITSEC __attribute__ ((section(".dma_init")))
  68:.\Generated_Source\PSoC5/cyfitter_cfg.c ****             #endif
  69:.\Generated_Source\PSoC5/cyfitter_cfg.c ****         #elif defined(__ICCARM__)
  70:.\Generated_Source\PSoC5/cyfitter_cfg.c ****             #define DMAINITSEC _Pragma("location=\".dma_init\"")
  71:.\Generated_Source\PSoC5/cyfitter_cfg.c ****         #endif
  72:.\Generated_Source\PSoC5/cyfitter_cfg.c ****     #else
  73:.\Generated_Source\PSoC5/cyfitter_cfg.c ****         #define DMAINITSEC
  74:.\Generated_Source\PSoC5/cyfitter_cfg.c ****     #endif
  75:.\Generated_Source\PSoC5/cyfitter_cfg.c **** 
  76:.\Generated_Source\PSoC5/cyfitter_cfg.c ****     #define CY_CFG_MEMORY_BARRIER() __DMB()
  77:.\Generated_Source\PSoC5/cyfitter_cfg.c ****     
  78:.\Generated_Source\PSoC5/cyfitter_cfg.c **** #else
  79:.\Generated_Source\PSoC5/cyfitter_cfg.c ****     #error Unsupported toolchain
  80:.\Generated_Source\PSoC5/cyfitter_cfg.c **** #endif
  81:.\Generated_Source\PSoC5/cyfitter_cfg.c **** 
  82:.\Generated_Source\PSoC5/cyfitter_cfg.c **** 
  83:.\Generated_Source\PSoC5/cyfitter_cfg.c **** CY_CFG_UNUSED
  84:.\Generated_Source\PSoC5/cyfitter_cfg.c **** static void CYMEMZERO(void *s, size_t n);
  85:.\Generated_Source\PSoC5/cyfitter_cfg.c **** CY_CFG_UNUSED
  86:.\Generated_Source\PSoC5/cyfitter_cfg.c **** static void CYMEMZERO(void *s, size_t n)
  87:.\Generated_Source\PSoC5/cyfitter_cfg.c **** {
  26              		.loc 1 87 0
  27              		.cfi_startproc
ARM GAS  C:\Users\Rolando\AppData\Local\Temp\ccwhT7XD.s 			page 3


  28              		@ args = 0, pretend = 0, frame = 8
  29              		@ frame_needed = 1, uses_anonymous_args = 0
  30 0000 80B5     		push	{r7, lr}
  31              		.cfi_def_cfa_offset 8
  32              		.cfi_offset 7, -8
  33              		.cfi_offset 14, -4
  34 0002 82B0     		sub	sp, sp, #8
  35              		.cfi_def_cfa_offset 16
  36 0004 00AF     		add	r7, sp, #0
  37              		.cfi_def_cfa_register 7
  38 0006 7860     		str	r0, [r7, #4]
  39 0008 3960     		str	r1, [r7]
  88:.\Generated_Source\PSoC5/cyfitter_cfg.c **** 	(void)memset(s, 0, n);
  40              		.loc 1 88 0
  41 000a 7868     		ldr	r0, [r7, #4]
  42 000c 0021     		movs	r1, #0
  43 000e 3A68     		ldr	r2, [r7]
  44 0010 FFF7FEFF 		bl	memset
  89:.\Generated_Source\PSoC5/cyfitter_cfg.c **** }
  45              		.loc 1 89 0
  46 0014 0837     		adds	r7, r7, #8
  47              		.cfi_def_cfa_offset 8
  48 0016 BD46     		mov	sp, r7
  49              		.cfi_def_cfa_register 13
  50              		@ sp needed
  51 0018 80BD     		pop	{r7, pc}
  52              		.cfi_endproc
  53              	.LFE0:
  54              		.size	CYMEMZERO, .-CYMEMZERO
  55 001a 00BF     		.section	.text.CYCONFIGCPY,"ax",%progbits
  56              		.align	2
  57              		.thumb
  58              		.thumb_func
  59              		.type	CYCONFIGCPY, %function
  60              	CYCONFIGCPY:
  61              	.LFB1:
  90:.\Generated_Source\PSoC5/cyfitter_cfg.c **** CY_CFG_UNUSED
  91:.\Generated_Source\PSoC5/cyfitter_cfg.c **** static void CYCONFIGCPY(void *dest, const void *src, size_t n);
  92:.\Generated_Source\PSoC5/cyfitter_cfg.c **** CY_CFG_UNUSED
  93:.\Generated_Source\PSoC5/cyfitter_cfg.c **** static void CYCONFIGCPY(void *dest, const void *src, size_t n)
  94:.\Generated_Source\PSoC5/cyfitter_cfg.c **** {
  62              		.loc 1 94 0
  63              		.cfi_startproc
  64              		@ args = 0, pretend = 0, frame = 16
  65              		@ frame_needed = 1, uses_anonymous_args = 0
  66 0000 80B5     		push	{r7, lr}
  67              		.cfi_def_cfa_offset 8
  68              		.cfi_offset 7, -8
  69              		.cfi_offset 14, -4
  70 0002 84B0     		sub	sp, sp, #16
  71              		.cfi_def_cfa_offset 24
  72 0004 00AF     		add	r7, sp, #0
  73              		.cfi_def_cfa_register 7
  74 0006 F860     		str	r0, [r7, #12]
  75 0008 B960     		str	r1, [r7, #8]
  76 000a 7A60     		str	r2, [r7, #4]
  95:.\Generated_Source\PSoC5/cyfitter_cfg.c **** 	(void)memcpy(dest, src, n);
ARM GAS  C:\Users\Rolando\AppData\Local\Temp\ccwhT7XD.s 			page 4


  77              		.loc 1 95 0
  78 000c F868     		ldr	r0, [r7, #12]
  79 000e B968     		ldr	r1, [r7, #8]
  80 0010 7A68     		ldr	r2, [r7, #4]
  81 0012 FFF7FEFF 		bl	memcpy
  96:.\Generated_Source\PSoC5/cyfitter_cfg.c **** }
  82              		.loc 1 96 0
  83 0016 1037     		adds	r7, r7, #16
  84              		.cfi_def_cfa_offset 8
  85 0018 BD46     		mov	sp, r7
  86              		.cfi_def_cfa_register 13
  87              		@ sp needed
  88 001a 80BD     		pop	{r7, pc}
  89              		.cfi_endproc
  90              	.LFE1:
  91              		.size	CYCONFIGCPY, .-CYCONFIGCPY
  92              		.section	.text.CYCONFIGCPYCODE,"ax",%progbits
  93              		.align	2
  94              		.thumb
  95              		.thumb_func
  96              		.type	CYCONFIGCPYCODE, %function
  97              	CYCONFIGCPYCODE:
  98              	.LFB2:
  97:.\Generated_Source\PSoC5/cyfitter_cfg.c **** CY_CFG_UNUSED
  98:.\Generated_Source\PSoC5/cyfitter_cfg.c **** static void CYCONFIGCPYCODE(void *dest, const void *src, size_t n);
  99:.\Generated_Source\PSoC5/cyfitter_cfg.c **** CY_CFG_UNUSED
 100:.\Generated_Source\PSoC5/cyfitter_cfg.c **** static void CYCONFIGCPYCODE(void *dest, const void *src, size_t n)
 101:.\Generated_Source\PSoC5/cyfitter_cfg.c **** {
  99              		.loc 1 101 0
 100              		.cfi_startproc
 101              		@ args = 0, pretend = 0, frame = 16
 102              		@ frame_needed = 1, uses_anonymous_args = 0
 103 0000 80B5     		push	{r7, lr}
 104              		.cfi_def_cfa_offset 8
 105              		.cfi_offset 7, -8
 106              		.cfi_offset 14, -4
 107 0002 84B0     		sub	sp, sp, #16
 108              		.cfi_def_cfa_offset 24
 109 0004 00AF     		add	r7, sp, #0
 110              		.cfi_def_cfa_register 7
 111 0006 F860     		str	r0, [r7, #12]
 112 0008 B960     		str	r1, [r7, #8]
 113 000a 7A60     		str	r2, [r7, #4]
 102:.\Generated_Source\PSoC5/cyfitter_cfg.c **** 	(void)memcpy(dest, src, n);
 114              		.loc 1 102 0
 115 000c F868     		ldr	r0, [r7, #12]
 116 000e B968     		ldr	r1, [r7, #8]
 117 0010 7A68     		ldr	r2, [r7, #4]
 118 0012 FFF7FEFF 		bl	memcpy
 103:.\Generated_Source\PSoC5/cyfitter_cfg.c **** }
 119              		.loc 1 103 0
 120 0016 1037     		adds	r7, r7, #16
 121              		.cfi_def_cfa_offset 8
 122 0018 BD46     		mov	sp, r7
 123              		.cfi_def_cfa_register 13
 124              		@ sp needed
 125 001a 80BD     		pop	{r7, pc}
ARM GAS  C:\Users\Rolando\AppData\Local\Temp\ccwhT7XD.s 			page 5


 126              		.cfi_endproc
 127              	.LFE2:
 128              		.size	CYCONFIGCPYCODE, .-CYCONFIGCPYCODE
 129              		.section	.text.CyClockStartupError,"ax",%progbits
 130              		.align	2
 131              		.thumb
 132              		.thumb_func
 133              		.type	CyClockStartupError, %function
 134              	CyClockStartupError:
 135              	.LFB3:
 104:.\Generated_Source\PSoC5/cyfitter_cfg.c **** 
 105:.\Generated_Source\PSoC5/cyfitter_cfg.c **** 
 106:.\Generated_Source\PSoC5/cyfitter_cfg.c **** 
 107:.\Generated_Source\PSoC5/cyfitter_cfg.c **** /* Clock startup error codes                                                   */
 108:.\Generated_Source\PSoC5/cyfitter_cfg.c **** #define CYCLOCKSTART_NO_ERROR    0u
 109:.\Generated_Source\PSoC5/cyfitter_cfg.c **** #define CYCLOCKSTART_XTAL_ERROR  1u
 110:.\Generated_Source\PSoC5/cyfitter_cfg.c **** #define CYCLOCKSTART_32KHZ_ERROR 2u
 111:.\Generated_Source\PSoC5/cyfitter_cfg.c **** #define CYCLOCKSTART_PLL_ERROR   3u
 112:.\Generated_Source\PSoC5/cyfitter_cfg.c **** 
 113:.\Generated_Source\PSoC5/cyfitter_cfg.c **** #ifdef CY_NEED_CYCLOCKSTARTUPERROR
 114:.\Generated_Source\PSoC5/cyfitter_cfg.c **** /*******************************************************************************
 115:.\Generated_Source\PSoC5/cyfitter_cfg.c **** * Function Name: CyClockStartupError
 116:.\Generated_Source\PSoC5/cyfitter_cfg.c **** ********************************************************************************
 117:.\Generated_Source\PSoC5/cyfitter_cfg.c **** * Summary:
 118:.\Generated_Source\PSoC5/cyfitter_cfg.c **** *  If an error is encountered during clock configuration (crystal startup error,
 119:.\Generated_Source\PSoC5/cyfitter_cfg.c **** *  PLL lock error, etc.), the system will end up here.  Unless reimplemented by
 120:.\Generated_Source\PSoC5/cyfitter_cfg.c **** *  the customer, this function will stop in an infinite loop.
 121:.\Generated_Source\PSoC5/cyfitter_cfg.c **** *
 122:.\Generated_Source\PSoC5/cyfitter_cfg.c **** * Parameters:
 123:.\Generated_Source\PSoC5/cyfitter_cfg.c **** *   void
 124:.\Generated_Source\PSoC5/cyfitter_cfg.c **** *
 125:.\Generated_Source\PSoC5/cyfitter_cfg.c **** * Return:
 126:.\Generated_Source\PSoC5/cyfitter_cfg.c **** *   void
 127:.\Generated_Source\PSoC5/cyfitter_cfg.c **** *
 128:.\Generated_Source\PSoC5/cyfitter_cfg.c **** *******************************************************************************/
 129:.\Generated_Source\PSoC5/cyfitter_cfg.c **** CY_CFG_UNUSED
 130:.\Generated_Source\PSoC5/cyfitter_cfg.c **** static void CyClockStartupError(uint8 errorCode);
 131:.\Generated_Source\PSoC5/cyfitter_cfg.c **** CY_CFG_UNUSED
 132:.\Generated_Source\PSoC5/cyfitter_cfg.c **** static void CyClockStartupError(uint8 errorCode)
 133:.\Generated_Source\PSoC5/cyfitter_cfg.c **** {
 136              		.loc 1 133 0
 137              		.cfi_startproc
 138              		@ args = 0, pretend = 0, frame = 8
 139              		@ frame_needed = 1, uses_anonymous_args = 0
 140              		@ link register save eliminated.
 141 0000 80B4     		push	{r7}
 142              		.cfi_def_cfa_offset 4
 143              		.cfi_offset 7, -4
 144 0002 83B0     		sub	sp, sp, #12
 145              		.cfi_def_cfa_offset 16
 146 0004 00AF     		add	r7, sp, #0
 147              		.cfi_def_cfa_register 7
 148 0006 0346     		mov	r3, r0
 149 0008 FB71     		strb	r3, [r7, #7]
 150              	.L5:
 134:.\Generated_Source\PSoC5/cyfitter_cfg.c ****     /* To remove the compiler warning if errorCode not used.                */
 135:.\Generated_Source\PSoC5/cyfitter_cfg.c ****     errorCode = errorCode;
ARM GAS  C:\Users\Rolando\AppData\Local\Temp\ccwhT7XD.s 			page 6


 136:.\Generated_Source\PSoC5/cyfitter_cfg.c **** 
 137:.\Generated_Source\PSoC5/cyfitter_cfg.c ****     /* `#START CyClockStartupError` */
 138:.\Generated_Source\PSoC5/cyfitter_cfg.c **** 
 139:.\Generated_Source\PSoC5/cyfitter_cfg.c ****     /* If we have a clock startup error (bad MHz crystal, PLL lock, etc.),  */
 140:.\Generated_Source\PSoC5/cyfitter_cfg.c ****     /* we will end up here to allow the customer to implement something to  */
 141:.\Generated_Source\PSoC5/cyfitter_cfg.c ****     /* deal with the clock condition.                                       */
 142:.\Generated_Source\PSoC5/cyfitter_cfg.c **** 
 143:.\Generated_Source\PSoC5/cyfitter_cfg.c ****     /* `#END` */
 144:.\Generated_Source\PSoC5/cyfitter_cfg.c **** 
 145:.\Generated_Source\PSoC5/cyfitter_cfg.c ****     /* If nothing else, stop here since the clocks have not started         */
 146:.\Generated_Source\PSoC5/cyfitter_cfg.c ****     /* correctly.                                                           */
 147:.\Generated_Source\PSoC5/cyfitter_cfg.c ****     while(1) {}
 151              		.loc 1 147 0 discriminator 1
 152 000a FEE7     		b	.L5
 153              		.cfi_endproc
 154              	.LFE3:
 155              		.size	CyClockStartupError, .-CyClockStartupError
 156              		.section	.text.cfg_dma_init,"ax",%progbits
 157              		.align	2
 158              		.thumb
 159              		.thumb_func
 160              		.type	cfg_dma_init, %function
 161              	cfg_dma_init:
 162              	.LFB4:
 148:.\Generated_Source\PSoC5/cyfitter_cfg.c **** }
 149:.\Generated_Source\PSoC5/cyfitter_cfg.c **** #endif
 150:.\Generated_Source\PSoC5/cyfitter_cfg.c **** 
 151:.\Generated_Source\PSoC5/cyfitter_cfg.c **** /* UDB_0_3_1_CONFIG Address: CYDEV_UCFG_B0_P5_U1_BASE Size (bytes): 128 */
 152:.\Generated_Source\PSoC5/cyfitter_cfg.c **** #define BS_UDB_0_3_1_CONFIG_VAL ((const uint8 CYFAR *)0x48000000u)
 153:.\Generated_Source\PSoC5/cyfitter_cfg.c **** 
 154:.\Generated_Source\PSoC5/cyfitter_cfg.c **** /* DSI0_0_HV_ROUTING Address: CYDEV_UCFG_DSI13_BASE + 0x00000080u Size (bytes): 128 */
 155:.\Generated_Source\PSoC5/cyfitter_cfg.c **** #define BS_DSI0_0_HV_ROUTING_VAL ((const uint8 CYFAR *)0x48000080u)
 156:.\Generated_Source\PSoC5/cyfitter_cfg.c **** 
 157:.\Generated_Source\PSoC5/cyfitter_cfg.c **** /* DSI0_1_HV_ROUTING Address: CYDEV_UCFG_DSI12_BASE + 0x00000080u Size (bytes): 128 */
 158:.\Generated_Source\PSoC5/cyfitter_cfg.c **** #define BS_DSI0_1_HV_ROUTING_VAL ((const uint8 CYFAR *)0x48000100u)
 159:.\Generated_Source\PSoC5/cyfitter_cfg.c **** 
 160:.\Generated_Source\PSoC5/cyfitter_cfg.c **** /* DSI0_2_HV_ROUTING Address: CYDEV_UCFG_DSI7_BASE + 0x00000080u Size (bytes): 128 */
 161:.\Generated_Source\PSoC5/cyfitter_cfg.c **** #define BS_DSI0_2_HV_ROUTING_VAL ((const uint8 CYFAR *)0x48000180u)
 162:.\Generated_Source\PSoC5/cyfitter_cfg.c **** 
 163:.\Generated_Source\PSoC5/cyfitter_cfg.c **** /* DSISWITCH_0_3 Address: CYDEV_UCFG_DSI6_BASE Size (bytes): 128 */
 164:.\Generated_Source\PSoC5/cyfitter_cfg.c **** #define BS_DSISWITCH_0_3_VAL ((const uint8 CYFAR *)0x48000200u)
 165:.\Generated_Source\PSoC5/cyfitter_cfg.c **** 
 166:.\Generated_Source\PSoC5/cyfitter_cfg.c **** /* DSI0_3_HV_ROUTING Address: CYDEV_UCFG_DSI6_BASE + 0x00000080u Size (bytes): 128 */
 167:.\Generated_Source\PSoC5/cyfitter_cfg.c **** #define BS_DSI0_3_HV_ROUTING_VAL ((const uint8 CYFAR *)0x48000280u)
 168:.\Generated_Source\PSoC5/cyfitter_cfg.c **** 
 169:.\Generated_Source\PSoC5/cyfitter_cfg.c **** /* DSI0_4_HV_ROUTING Address: CYDEV_UCFG_DSI5_BASE + 0x00000080u Size (bytes): 128 */
 170:.\Generated_Source\PSoC5/cyfitter_cfg.c **** #define BS_DSI0_4_HV_ROUTING_VAL ((const uint8 CYFAR *)0x48000300u)
 171:.\Generated_Source\PSoC5/cyfitter_cfg.c **** 
 172:.\Generated_Source\PSoC5/cyfitter_cfg.c **** /* DSISWITCH_0_5 Address: CYDEV_UCFG_DSI4_BASE Size (bytes): 128 */
 173:.\Generated_Source\PSoC5/cyfitter_cfg.c **** #define BS_DSISWITCH_0_5_VAL ((const uint8 CYFAR *)0x48000380u)
 174:.\Generated_Source\PSoC5/cyfitter_cfg.c **** 
 175:.\Generated_Source\PSoC5/cyfitter_cfg.c **** /* DSI0_5_HV_ROUTING Address: CYDEV_UCFG_DSI4_BASE + 0x00000080u Size (bytes): 128 */
 176:.\Generated_Source\PSoC5/cyfitter_cfg.c **** #define BS_DSI0_5_HV_ROUTING_VAL ((const uint8 CYFAR *)0x48000400u)
 177:.\Generated_Source\PSoC5/cyfitter_cfg.c **** 
 178:.\Generated_Source\PSoC5/cyfitter_cfg.c **** /* UDB_1_0_HV_ROUTING Address: CYDEV_UCFG_B1_P5_ROUTE_BASE + 0x00000080u Size (bytes): 128 */
 179:.\Generated_Source\PSoC5/cyfitter_cfg.c **** #define BS_UDB_1_0_HV_ROUTING_VAL ((const uint8 CYFAR *)0x48000480u)
 180:.\Generated_Source\PSoC5/cyfitter_cfg.c **** 
ARM GAS  C:\Users\Rolando\AppData\Local\Temp\ccwhT7XD.s 			page 7


 181:.\Generated_Source\PSoC5/cyfitter_cfg.c **** /* UDB_2_0_HV_ROUTING Address: CYDEV_UCFG_B1_P2_ROUTE_BASE + 0x00000080u Size (bytes): 128 */
 182:.\Generated_Source\PSoC5/cyfitter_cfg.c **** #define BS_UDB_2_0_HV_ROUTING_VAL ((const uint8 CYFAR *)0x48000500u)
 183:.\Generated_Source\PSoC5/cyfitter_cfg.c **** 
 184:.\Generated_Source\PSoC5/cyfitter_cfg.c **** /* UDB_1_2_HV_ROUTING Address: CYDEV_UCFG_B0_P4_ROUTE_BASE + 0x00000080u Size (bytes): 128 */
 185:.\Generated_Source\PSoC5/cyfitter_cfg.c **** #define BS_UDB_1_2_HV_ROUTING_VAL ((const uint8 CYFAR *)0x48000580u)
 186:.\Generated_Source\PSoC5/cyfitter_cfg.c **** 
 187:.\Generated_Source\PSoC5/cyfitter_cfg.c **** /* UDBSWITCH_0_3 Address: CYDEV_UCFG_B0_P5_ROUTE_BASE Size (bytes): 128 */
 188:.\Generated_Source\PSoC5/cyfitter_cfg.c **** #define BS_UDBSWITCH_0_3_VAL ((const uint8 CYFAR *)0x48000600u)
 189:.\Generated_Source\PSoC5/cyfitter_cfg.c **** 
 190:.\Generated_Source\PSoC5/cyfitter_cfg.c **** /* DSI3_0_HV_ROUTING Address: CYDEV_UCFG_DSI9_BASE + 0x00000080u Size (bytes): 128 */
 191:.\Generated_Source\PSoC5/cyfitter_cfg.c **** #define BS_DSI3_0_HV_ROUTING_VAL ((const uint8 CYFAR *)0x48000680u)
 192:.\Generated_Source\PSoC5/cyfitter_cfg.c **** 
 193:.\Generated_Source\PSoC5/cyfitter_cfg.c **** /* DSISWITCH_1_1 Address: CYDEV_UCFG_DSI8_BASE Size (bytes): 128 */
 194:.\Generated_Source\PSoC5/cyfitter_cfg.c **** #define BS_DSISWITCH_1_1_VAL ((const uint8 CYFAR *)0x48000700u)
 195:.\Generated_Source\PSoC5/cyfitter_cfg.c **** 
 196:.\Generated_Source\PSoC5/cyfitter_cfg.c **** /* DSI3_1_HV_ROUTING Address: CYDEV_UCFG_DSI8_BASE + 0x00000080u Size (bytes): 128 */
 197:.\Generated_Source\PSoC5/cyfitter_cfg.c **** #define BS_DSI3_1_HV_ROUTING_VAL ((const uint8 CYFAR *)0x48000780u)
 198:.\Generated_Source\PSoC5/cyfitter_cfg.c **** 
 199:.\Generated_Source\PSoC5/cyfitter_cfg.c **** /* IOPINS0_2 Address: CYREG_PRT2_DM0 Size (bytes): 8 */
 200:.\Generated_Source\PSoC5/cyfitter_cfg.c **** #define BS_IOPINS0_2_VAL ((const uint8 CYFAR *)0x48000800u)
 201:.\Generated_Source\PSoC5/cyfitter_cfg.c **** 
 202:.\Generated_Source\PSoC5/cyfitter_cfg.c **** /* IOPINS0_6 Address: CYREG_PRT6_DM0 Size (bytes): 8 */
 203:.\Generated_Source\PSoC5/cyfitter_cfg.c **** #define BS_IOPINS0_6_VAL ((const uint8 CYFAR *)0x48000808u)
 204:.\Generated_Source\PSoC5/cyfitter_cfg.c **** 
 205:.\Generated_Source\PSoC5/cyfitter_cfg.c **** /* CYDEV_CLKDIST_ACFG0_CFG0 Address: CYREG_CLKDIST_ACFG0_CFG0 Size (bytes): 4 */
 206:.\Generated_Source\PSoC5/cyfitter_cfg.c **** #define BS_CYDEV_CLKDIST_ACFG0_CFG0_VAL ((const uint8 CYFAR *)0x48000810u)
 207:.\Generated_Source\PSoC5/cyfitter_cfg.c **** 
 208:.\Generated_Source\PSoC5/cyfitter_cfg.c **** 
 209:.\Generated_Source\PSoC5/cyfitter_cfg.c **** /*******************************************************************************
 210:.\Generated_Source\PSoC5/cyfitter_cfg.c **** * Function Name: cfg_dma_init
 211:.\Generated_Source\PSoC5/cyfitter_cfg.c **** ********************************************************************************
 212:.\Generated_Source\PSoC5/cyfitter_cfg.c **** * Summary:
 213:.\Generated_Source\PSoC5/cyfitter_cfg.c **** *  This function is used to copy device configuration data from constant values
 214:.\Generated_Source\PSoC5/cyfitter_cfg.c **** *  stored in memory into the proper chip configuration registers using DMA.  It
 215:.\Generated_Source\PSoC5/cyfitter_cfg.c **** *  pulls data out of the CFG_TD_LISTs to know exactly how/what to configure.
 216:.\Generated_Source\PSoC5/cyfitter_cfg.c **** *
 217:.\Generated_Source\PSoC5/cyfitter_cfg.c **** * Parameters:  
 218:.\Generated_Source\PSoC5/cyfitter_cfg.c **** *   void
 219:.\Generated_Source\PSoC5/cyfitter_cfg.c **** *
 220:.\Generated_Source\PSoC5/cyfitter_cfg.c **** * Return:
 221:.\Generated_Source\PSoC5/cyfitter_cfg.c **** *   void
 222:.\Generated_Source\PSoC5/cyfitter_cfg.c **** *
 223:.\Generated_Source\PSoC5/cyfitter_cfg.c **** *******************************************************************************/
 224:.\Generated_Source\PSoC5/cyfitter_cfg.c **** static void cfg_dma_init(void);
 225:.\Generated_Source\PSoC5/cyfitter_cfg.c **** static void cfg_dma_init(void)
 226:.\Generated_Source\PSoC5/cyfitter_cfg.c **** {
 163              		.loc 1 226 0
 164              		.cfi_startproc
 165              		@ args = 0, pretend = 0, frame = 8
 166              		@ frame_needed = 1, uses_anonymous_args = 0
 167              		@ link register save eliminated.
 168 0000 80B4     		push	{r7}
 169              		.cfi_def_cfa_offset 4
 170              		.cfi_offset 7, -4
 171 0002 83B0     		sub	sp, sp, #12
 172              		.cfi_def_cfa_offset 16
 173 0004 00AF     		add	r7, sp, #0
ARM GAS  C:\Users\Rolando\AppData\Local\Temp\ccwhT7XD.s 			page 8


 174              		.cfi_def_cfa_register 7
 227:.\Generated_Source\PSoC5/cyfitter_cfg.c **** 	/* TD structure for little-endian systems. Does not require endian swap */
 228:.\Generated_Source\PSoC5/cyfitter_cfg.c **** 	CYPACKED struct td_t {
 229:.\Generated_Source\PSoC5/cyfitter_cfg.c **** 		uint16 size;
 230:.\Generated_Source\PSoC5/cyfitter_cfg.c **** 		uint8 next_td_ptr;
 231:.\Generated_Source\PSoC5/cyfitter_cfg.c **** 		uint8 flags;
 232:.\Generated_Source\PSoC5/cyfitter_cfg.c **** 		uint16 src;
 233:.\Generated_Source\PSoC5/cyfitter_cfg.c **** 		uint16 dest;
 234:.\Generated_Source\PSoC5/cyfitter_cfg.c **** 	} CYPACKED_ATTR;
 235:.\Generated_Source\PSoC5/cyfitter_cfg.c **** 
 236:.\Generated_Source\PSoC5/cyfitter_cfg.c **** 	/* PHUB_CH1_CFGMEM_CFG0/1 initialization data */
 237:.\Generated_Source\PSoC5/cyfitter_cfg.c **** 	DMAINITSEC static const uint8 CYCODE CH1_ADDR_DATA0[] = { 0x01u, 0x00u, 0x00u, 0x00u, 0x00u, 0x20u
 238:.\Generated_Source\PSoC5/cyfitter_cfg.c **** 
 239:.\Generated_Source\PSoC5/cyfitter_cfg.c **** 	/* PHUB_CH2_CFGMEM_CFG0/1 initialization data */
 240:.\Generated_Source\PSoC5/cyfitter_cfg.c **** 	DMAINITSEC static const uint8 CYCODE CH2_ADDR_DATA0[] = { 0x01u, 0x00u, 0x00u, 0x00u, 0x00u, 0x20u
 241:.\Generated_Source\PSoC5/cyfitter_cfg.c **** 
 242:.\Generated_Source\PSoC5/cyfitter_cfg.c **** 	/* PHUB_CH6_CFGMEM_CFG0/1 initialization data */
 243:.\Generated_Source\PSoC5/cyfitter_cfg.c **** 	DMAINITSEC static const uint8 CYCODE CH6_ADDR_DATA0[] = { 0x01u, 0x00u, 0x00u, 0x00u, 0x00u, 0x48u
 244:.\Generated_Source\PSoC5/cyfitter_cfg.c **** 
 245:.\Generated_Source\PSoC5/cyfitter_cfg.c **** 	/* Initialization data for each DMA channel's TD registers */
 246:.\Generated_Source\PSoC5/cyfitter_cfg.c **** 	DMAINITSEC static const uint8 CYCODE DMA_TD_START_CMD[] = { 0x01u, 0x00u, 0x00u, 0x00u, 0x01u };
 247:.\Generated_Source\PSoC5/cyfitter_cfg.c **** 
 248:.\Generated_Source\PSoC5/cyfitter_cfg.c **** 	CYALIGNED static uint32 CYXDATA DMA_ZERO_VAL;
 249:.\Generated_Source\PSoC5/cyfitter_cfg.c **** 
 250:.\Generated_Source\PSoC5/cyfitter_cfg.c **** 	/* This table holds all of the initialization data necessary for the DMA
 251:.\Generated_Source\PSoC5/cyfitter_cfg.c **** 	   process to transfer data from the source location to the destination. */
 252:.\Generated_Source\PSoC5/cyfitter_cfg.c **** 	/* Source addresses can be relocated, but only when in 32bit addresses.
 253:.\Generated_Source\PSoC5/cyfitter_cfg.c **** 	   Because the standard TD table only has 16bit addresses, we generate a
 254:.\Generated_Source\PSoC5/cyfitter_cfg.c **** 	   separate CFG_TD_ADDR table for the source addresses that supports 32bit
 255:.\Generated_Source\PSoC5/cyfitter_cfg.c **** 	   addresses. */
 256:.\Generated_Source\PSoC5/cyfitter_cfg.c **** 	DMAINITSEC static const struct td_t CYCODE CFG_TD_LIST0[] = {
 257:.\Generated_Source\PSoC5/cyfitter_cfg.c **** 		/* Size, Next, Flags, Source, Destination */
 258:.\Generated_Source\PSoC5/cyfitter_cfg.c **** 		{ 8u, 0x02u, 0x23u, (uint16)(uint32)(0u), (uint16)(CYREG_PHUB_CFGMEM1_CFG0) },	/* TD 1 */
 259:.\Generated_Source\PSoC5/cyfitter_cfg.c **** 		{ 8u, 0x03u, 0x23u, (uint16)(uint32)(0u), (uint16)(CYREG_PHUB_CFGMEM2_CFG0) },	/* TD 2 */
 260:.\Generated_Source\PSoC5/cyfitter_cfg.c **** 		{ 8u, 0x04u, 0x23u, (uint16)(uint32)(0u), (uint16)(CYREG_PHUB_CFGMEM6_CFG0) },	/* TD 3 */
 261:.\Generated_Source\PSoC5/cyfitter_cfg.c **** 		{ 5u, 0x05u, 0x23u, (uint16)(uint32)(0u), (uint16)(CYREG_PHUB_CH1_BASIC_CFG) },	/* TD 4 */
 262:.\Generated_Source\PSoC5/cyfitter_cfg.c **** 		{ 5u, 0x06u, 0x23u, (uint16)(uint32)(0u), (uint16)(CYREG_PHUB_CH2_BASIC_CFG) },	/* TD 5 */
 263:.\Generated_Source\PSoC5/cyfitter_cfg.c **** 		{ 5u, 0xFEu, 0x23u, (uint16)(uint32)(0u), (uint16)(CYREG_PHUB_CH6_BASIC_CFG) },	/* TD 6 */
 264:.\Generated_Source\PSoC5/cyfitter_cfg.c **** 		{ 32u, 0x08u, 0x22u, (uint16)(uint32)(0u), (uint16)(CYREG_PRT0_DR) },	/* TD 7 */
 265:.\Generated_Source\PSoC5/cyfitter_cfg.c **** 		{ 48u, 0x09u, 0x22u, (uint16)(uint32)(0u), (uint16)(CYREG_PRT3_DR) },	/* TD 8 */
 266:.\Generated_Source\PSoC5/cyfitter_cfg.c **** 		{ 16u, 0x0Au, 0x22u, (uint16)(uint32)(0u), (uint16)(CYREG_PRT12_DR) },	/* TD 9 */
 267:.\Generated_Source\PSoC5/cyfitter_cfg.c **** 		{ 16u, 0xFEu, 0x22u, (uint16)(uint32)(0u), (uint16)(CYREG_PRT15_DR) },	/* TD 10 */
 268:.\Generated_Source\PSoC5/cyfitter_cfg.c **** 		{ 2432u, 0x0Cu, 0x22u, (uint16)(uint32)(0u), (uint16)(CYDEV_UCFG_B0_P0_U0_BASE) },	/* TD 11 */
 269:.\Generated_Source\PSoC5/cyfitter_cfg.c **** 		{ 128u, 0x0Du, 0x22u, (uint16)(uint32)(0u), (uint16)(CYDEV_UCFG_B0_P5_U0_BASE) },	/* TD 12 */
 270:.\Generated_Source\PSoC5/cyfitter_cfg.c **** 		{ 1152u, 0x0Eu, 0x22u, (uint16)(uint32)(0u), (uint16)(CYDEV_UCFG_B0_P5_ROUTE_BASE + 0x00000080u) 
 271:.\Generated_Source\PSoC5/cyfitter_cfg.c **** 		{ 384u, 0x0Fu, 0x22u, (uint16)(uint32)(0u), (uint16)(CYDEV_UCFG_B1_P2_U0_BASE) },	/* TD 14 */
 272:.\Generated_Source\PSoC5/cyfitter_cfg.c **** 		{ 1408u, 0x10u, 0x22u, (uint16)(uint32)(0u), (uint16)(CYDEV_UCFG_B1_P3_U0_BASE) },	/* TD 15 */
 273:.\Generated_Source\PSoC5/cyfitter_cfg.c **** 		{ 1024u, 0x11u, 0x22u, (uint16)(uint32)(0u), (uint16)(CYDEV_UCFG_DSI0_BASE) },	/* TD 16 */
 274:.\Generated_Source\PSoC5/cyfitter_cfg.c **** 		{ 128u, 0x12u, 0x22u, (uint16)(uint32)(0u), (uint16)(CYDEV_UCFG_DSI5_BASE) },	/* TD 17 */
 275:.\Generated_Source\PSoC5/cyfitter_cfg.c **** 		{ 128u, 0x13u, 0x22u, (uint16)(uint32)(0u), (uint16)(CYDEV_UCFG_DSI7_BASE) },	/* TD 18 */
 276:.\Generated_Source\PSoC5/cyfitter_cfg.c **** 		{ 128u, 0x14u, 0x22u, (uint16)(uint32)(0u), (uint16)(CYDEV_UCFG_DSI9_BASE) },	/* TD 19 */
 277:.\Generated_Source\PSoC5/cyfitter_cfg.c **** 		{ 128u, 0x15u, 0x22u, (uint16)(uint32)(0u), (uint16)(CYDEV_UCFG_DSI12_BASE) },	/* TD 20 */
 278:.\Generated_Source\PSoC5/cyfitter_cfg.c **** 		{ 128u, 0x16u, 0x22u, (uint16)(uint32)(0u), (uint16)(CYDEV_UCFG_DSI13_BASE) },	/* TD 21 */
 279:.\Generated_Source\PSoC5/cyfitter_cfg.c **** 		{ 32u, 0xFEu, 0x22u, (uint16)(uint32)(0u), (uint16)(CYREG_BCTL0_MDCLK_EN) },	/* TD 22 */
 280:.\Generated_Source\PSoC5/cyfitter_cfg.c **** 		{ 128u, 0x18u, 0x23u, (uint16)(uint32)(0u), (uint16)(CYDEV_UCFG_B0_P5_U1_BASE) },	/* TD 23 */
 281:.\Generated_Source\PSoC5/cyfitter_cfg.c **** 		{ 128u, 0x19u, 0x23u, (uint16)(uint32)(0u), (uint16)(CYDEV_UCFG_DSI13_BASE + 0x00000080u) },	/* T
 282:.\Generated_Source\PSoC5/cyfitter_cfg.c **** 		{ 128u, 0x1Au, 0x23u, (uint16)(uint32)(0u), (uint16)(CYDEV_UCFG_DSI12_BASE + 0x00000080u) },	/* T
ARM GAS  C:\Users\Rolando\AppData\Local\Temp\ccwhT7XD.s 			page 9


 283:.\Generated_Source\PSoC5/cyfitter_cfg.c **** 		{ 128u, 0x1Bu, 0x23u, (uint16)(uint32)(0u), (uint16)(CYDEV_UCFG_DSI7_BASE + 0x00000080u) },	/* TD
 284:.\Generated_Source\PSoC5/cyfitter_cfg.c **** 		{ 128u, 0x1Cu, 0x23u, (uint16)(uint32)(0u), (uint16)(CYDEV_UCFG_DSI6_BASE) },	/* TD 27 */
 285:.\Generated_Source\PSoC5/cyfitter_cfg.c **** 		{ 128u, 0x1Du, 0x23u, (uint16)(uint32)(0u), (uint16)(CYDEV_UCFG_DSI6_BASE + 0x00000080u) },	/* TD
 286:.\Generated_Source\PSoC5/cyfitter_cfg.c **** 		{ 128u, 0x1Eu, 0x23u, (uint16)(uint32)(0u), (uint16)(CYDEV_UCFG_DSI5_BASE + 0x00000080u) },	/* TD
 287:.\Generated_Source\PSoC5/cyfitter_cfg.c **** 		{ 128u, 0x1Fu, 0x23u, (uint16)(uint32)(0u), (uint16)(CYDEV_UCFG_DSI4_BASE) },	/* TD 30 */
 288:.\Generated_Source\PSoC5/cyfitter_cfg.c **** 		{ 128u, 0x20u, 0x23u, (uint16)(uint32)(0u), (uint16)(CYDEV_UCFG_DSI4_BASE + 0x00000080u) },	/* TD
 289:.\Generated_Source\PSoC5/cyfitter_cfg.c **** 		{ 128u, 0x21u, 0x23u, (uint16)(uint32)(0u), (uint16)(CYDEV_UCFG_B1_P5_ROUTE_BASE + 0x00000080u) }
 290:.\Generated_Source\PSoC5/cyfitter_cfg.c **** 		{ 128u, 0x22u, 0x23u, (uint16)(uint32)(0u), (uint16)(CYDEV_UCFG_B1_P2_ROUTE_BASE + 0x00000080u) }
 291:.\Generated_Source\PSoC5/cyfitter_cfg.c **** 		{ 128u, 0x23u, 0x23u, (uint16)(uint32)(0u), (uint16)(CYDEV_UCFG_B0_P4_ROUTE_BASE + 0x00000080u) }
 292:.\Generated_Source\PSoC5/cyfitter_cfg.c **** 		{ 128u, 0x24u, 0x23u, (uint16)(uint32)(0u), (uint16)(CYDEV_UCFG_B0_P5_ROUTE_BASE) },	/* TD 35 */
 293:.\Generated_Source\PSoC5/cyfitter_cfg.c **** 		{ 128u, 0x25u, 0x23u, (uint16)(uint32)(0u), (uint16)(CYDEV_UCFG_DSI9_BASE + 0x00000080u) },	/* TD
 294:.\Generated_Source\PSoC5/cyfitter_cfg.c **** 		{ 128u, 0x26u, 0x23u, (uint16)(uint32)(0u), (uint16)(CYDEV_UCFG_DSI8_BASE) },	/* TD 37 */
 295:.\Generated_Source\PSoC5/cyfitter_cfg.c **** 		{ 128u, 0xFEu, 0x23u, (uint16)(uint32)(0u), (uint16)(CYDEV_UCFG_DSI8_BASE + 0x00000080u) },	/* TD
 296:.\Generated_Source\PSoC5/cyfitter_cfg.c **** 	};
 297:.\Generated_Source\PSoC5/cyfitter_cfg.c **** 
 298:.\Generated_Source\PSoC5/cyfitter_cfg.c **** 	/* Source addresses can be relocated, but only when in 32bit addresses.
 299:.\Generated_Source\PSoC5/cyfitter_cfg.c **** 	   Because the standard TD table only has 16bit addresses, we generate a
 300:.\Generated_Source\PSoC5/cyfitter_cfg.c **** 	   separate table for the source addresses that does use 32bit addresses. This
 301:.\Generated_Source\PSoC5/cyfitter_cfg.c **** 	   table will be re-merged with the corresponding CFG_TD_LIST table during
 302:.\Generated_Source\PSoC5/cyfitter_cfg.c **** 	   initialization. */
 303:.\Generated_Source\PSoC5/cyfitter_cfg.c **** 	static const void * const CFG_TD_ADDR0[] = {
 304:.\Generated_Source\PSoC5/cyfitter_cfg.c **** 		(const void *)(CH1_ADDR_DATA0),	/* TD 1 */
 305:.\Generated_Source\PSoC5/cyfitter_cfg.c **** 		(const void *)(CH2_ADDR_DATA0),	/* TD 2 */
 306:.\Generated_Source\PSoC5/cyfitter_cfg.c **** 		(const void *)(CH6_ADDR_DATA0),	/* TD 3 */
 307:.\Generated_Source\PSoC5/cyfitter_cfg.c **** 		(const void *)(DMA_TD_START_CMD),	/* TD 4 */
 308:.\Generated_Source\PSoC5/cyfitter_cfg.c **** 		(const void *)(DMA_TD_START_CMD),	/* TD 5 */
 309:.\Generated_Source\PSoC5/cyfitter_cfg.c **** 		(const void *)(DMA_TD_START_CMD),	/* TD 6 */
 310:.\Generated_Source\PSoC5/cyfitter_cfg.c **** 		(const void *)(&DMA_ZERO_VAL),	/* TD 7 */
 311:.\Generated_Source\PSoC5/cyfitter_cfg.c **** 		(const void *)(&DMA_ZERO_VAL),	/* TD 8 */
 312:.\Generated_Source\PSoC5/cyfitter_cfg.c **** 		(const void *)(&DMA_ZERO_VAL),	/* TD 9 */
 313:.\Generated_Source\PSoC5/cyfitter_cfg.c **** 		(const void *)(&DMA_ZERO_VAL),	/* TD 10 */
 314:.\Generated_Source\PSoC5/cyfitter_cfg.c **** 		(const void *)(&DMA_ZERO_VAL),	/* TD 11 */
 315:.\Generated_Source\PSoC5/cyfitter_cfg.c **** 		(const void *)(&DMA_ZERO_VAL),	/* TD 12 */
 316:.\Generated_Source\PSoC5/cyfitter_cfg.c **** 		(const void *)(&DMA_ZERO_VAL),	/* TD 13 */
 317:.\Generated_Source\PSoC5/cyfitter_cfg.c **** 		(const void *)(&DMA_ZERO_VAL),	/* TD 14 */
 318:.\Generated_Source\PSoC5/cyfitter_cfg.c **** 		(const void *)(&DMA_ZERO_VAL),	/* TD 15 */
 319:.\Generated_Source\PSoC5/cyfitter_cfg.c **** 		(const void *)(&DMA_ZERO_VAL),	/* TD 16 */
 320:.\Generated_Source\PSoC5/cyfitter_cfg.c **** 		(const void *)(&DMA_ZERO_VAL),	/* TD 17 */
 321:.\Generated_Source\PSoC5/cyfitter_cfg.c **** 		(const void *)(&DMA_ZERO_VAL),	/* TD 18 */
 322:.\Generated_Source\PSoC5/cyfitter_cfg.c **** 		(const void *)(&DMA_ZERO_VAL),	/* TD 19 */
 323:.\Generated_Source\PSoC5/cyfitter_cfg.c **** 		(const void *)(&DMA_ZERO_VAL),	/* TD 20 */
 324:.\Generated_Source\PSoC5/cyfitter_cfg.c **** 		(const void *)(&DMA_ZERO_VAL),	/* TD 21 */
 325:.\Generated_Source\PSoC5/cyfitter_cfg.c **** 		(const void *)(&DMA_ZERO_VAL),	/* TD 22 */
 326:.\Generated_Source\PSoC5/cyfitter_cfg.c **** 		(const void *)(BS_UDB_0_3_1_CONFIG_VAL),	/* TD 23 */
 327:.\Generated_Source\PSoC5/cyfitter_cfg.c **** 		(const void *)(BS_DSI0_0_HV_ROUTING_VAL),	/* TD 24 */
 328:.\Generated_Source\PSoC5/cyfitter_cfg.c **** 		(const void *)(BS_DSI0_1_HV_ROUTING_VAL),	/* TD 25 */
 329:.\Generated_Source\PSoC5/cyfitter_cfg.c **** 		(const void *)(BS_DSI0_2_HV_ROUTING_VAL),	/* TD 26 */
 330:.\Generated_Source\PSoC5/cyfitter_cfg.c **** 		(const void *)(BS_DSISWITCH_0_3_VAL),	/* TD 27 */
 331:.\Generated_Source\PSoC5/cyfitter_cfg.c **** 		(const void *)(BS_DSI0_3_HV_ROUTING_VAL),	/* TD 28 */
 332:.\Generated_Source\PSoC5/cyfitter_cfg.c **** 		(const void *)(BS_DSI0_4_HV_ROUTING_VAL),	/* TD 29 */
 333:.\Generated_Source\PSoC5/cyfitter_cfg.c **** 		(const void *)(BS_DSISWITCH_0_5_VAL),	/* TD 30 */
 334:.\Generated_Source\PSoC5/cyfitter_cfg.c **** 		(const void *)(BS_DSI0_5_HV_ROUTING_VAL),	/* TD 31 */
 335:.\Generated_Source\PSoC5/cyfitter_cfg.c **** 		(const void *)(BS_UDB_1_0_HV_ROUTING_VAL),	/* TD 32 */
 336:.\Generated_Source\PSoC5/cyfitter_cfg.c **** 		(const void *)(BS_UDB_2_0_HV_ROUTING_VAL),	/* TD 33 */
 337:.\Generated_Source\PSoC5/cyfitter_cfg.c **** 		(const void *)(BS_UDB_1_2_HV_ROUTING_VAL),	/* TD 34 */
 338:.\Generated_Source\PSoC5/cyfitter_cfg.c **** 		(const void *)(BS_UDBSWITCH_0_3_VAL),	/* TD 35 */
 339:.\Generated_Source\PSoC5/cyfitter_cfg.c **** 		(const void *)(BS_DSI3_0_HV_ROUTING_VAL),	/* TD 36 */
ARM GAS  C:\Users\Rolando\AppData\Local\Temp\ccwhT7XD.s 			page 10


 340:.\Generated_Source\PSoC5/cyfitter_cfg.c **** 		(const void *)(BS_DSISWITCH_1_1_VAL),	/* TD 37 */
 341:.\Generated_Source\PSoC5/cyfitter_cfg.c **** 		(const void *)(BS_DSI3_1_HV_ROUTING_VAL),	/* TD 38 */
 342:.\Generated_Source\PSoC5/cyfitter_cfg.c **** 	};
 343:.\Generated_Source\PSoC5/cyfitter_cfg.c **** 
 344:.\Generated_Source\PSoC5/cyfitter_cfg.c **** 
 345:.\Generated_Source\PSoC5/cyfitter_cfg.c **** 	uint32 i;
 346:.\Generated_Source\PSoC5/cyfitter_cfg.c **** 
 347:.\Generated_Source\PSoC5/cyfitter_cfg.c **** 	DMA_ZERO_VAL = 0u;
 175              		.loc 1 347 0
 176 0006 3D4B     		ldr	r3, .L14
 177 0008 0022     		movs	r2, #0
 178 000a 1A60     		str	r2, [r3]
 348:.\Generated_Source\PSoC5/cyfitter_cfg.c **** 	CY_SET_REG8((void CYXDATA *)CYREG_PHUB_CFGMEM0_CFG0, 0x10u);	/* set burstcnt */
 179              		.loc 1 348 0
 180 000c 3C4B     		ldr	r3, .L14+4
 181 000e 1022     		movs	r2, #16
 182 0010 1A70     		strb	r2, [r3]
 349:.\Generated_Source\PSoC5/cyfitter_cfg.c **** 	CY_SET_REG8((void CYXDATA *)CYREG_PHUB_CH0_BASIC_CFG, 0x01u);	/* enable ch0 */
 183              		.loc 1 349 0
 184 0012 3C4B     		ldr	r3, .L14+8
 185 0014 0122     		movs	r2, #1
 186 0016 1A70     		strb	r2, [r3]
 350:.\Generated_Source\PSoC5/cyfitter_cfg.c **** 	CY_SET_REG8((void CYXDATA *)(CYREG_PHUB_CH0_BASIC_STATUS+1u), 0x00u);	/* set first TD to 0 */
 187              		.loc 1 350 0
 188 0018 3B4B     		ldr	r3, .L14+12
 189 001a 0022     		movs	r2, #0
 190 001c 1A70     		strb	r2, [r3]
 351:.\Generated_Source\PSoC5/cyfitter_cfg.c **** 	CY_SET_REG16((void CYXDATA *)CYREG_PHUB_TDMEM0_ORIG_TD0, 38u*8u);	/* transfer size */
 191              		.loc 1 351 0
 192 001e 3B4B     		ldr	r3, .L14+16
 193 0020 4FF49872 		mov	r2, #304
 194 0024 1A80     		strh	r2, [r3]	@ movhi
 352:.\Generated_Source\PSoC5/cyfitter_cfg.c **** 	CY_SET_REG8((void CYXDATA *)(CYREG_PHUB_TDMEM0_ORIG_TD0+2u), 0x01u);	/* set next TD to 1 */
 195              		.loc 1 352 0
 196 0026 3A4B     		ldr	r3, .L14+20
 197 0028 0122     		movs	r2, #1
 198 002a 1A70     		strb	r2, [r3]
 353:.\Generated_Source\PSoC5/cyfitter_cfg.c **** 	CY_SET_REG8((void CYXDATA *)(CYREG_PHUB_TDMEM0_ORIG_TD0+3u), 0x03u);	/* set TD flags */
 199              		.loc 1 353 0
 200 002c 394B     		ldr	r3, .L14+24
 201 002e 0322     		movs	r2, #3
 202 0030 1A70     		strb	r2, [r3]
 354:.\Generated_Source\PSoC5/cyfitter_cfg.c **** 	CY_SET_REG16((void CYXDATA *)CYREG_PHUB_TDMEM0_ORIG_TD1, (uint16)((uint32)CFG_TD_LIST0 & 0x0000FFF
 203              		.loc 1 354 0
 204 0032 394B     		ldr	r3, .L14+28
 205 0034 394A     		ldr	r2, .L14+32
 206 0036 92B2     		uxth	r2, r2
 207 0038 1A80     		strh	r2, [r3]	@ movhi
 355:.\Generated_Source\PSoC5/cyfitter_cfg.c **** 	CY_SET_REG16((void CYXDATA *)(CYREG_PHUB_TDMEM0_ORIG_TD1+2u), CYDEV_PHUB_TDMEM1_BASE);	/* set td0'
 208              		.loc 1 355 0
 209 003a 394B     		ldr	r3, .L14+36
 210 003c 47F60802 		movw	r2, #30728
 211 0040 1A80     		strh	r2, [r3]	@ movhi
 356:.\Generated_Source\PSoC5/cyfitter_cfg.c **** 	CY_SET_REG16((void CYXDATA *)CYREG_PHUB_CFGMEM0_CFG1, (uint16)(CYDEV_FLASH_BASE >> 16));	/* set ch
 212              		.loc 1 356 0
 213 0042 384B     		ldr	r3, .L14+40
 214 0044 0022     		movs	r2, #0
ARM GAS  C:\Users\Rolando\AppData\Local\Temp\ccwhT7XD.s 			page 11


 215 0046 1A80     		strh	r2, [r3]	@ movhi
 357:.\Generated_Source\PSoC5/cyfitter_cfg.c **** 	CY_SET_REG16((void CYXDATA *)(CYREG_PHUB_CFGMEM0_CFG1+2u), (uint16)(CYDEV_PHUB_TDMEM1_BASE >> 16))
 216              		.loc 1 357 0
 217 0048 374B     		ldr	r3, .L14+44
 218 004a 4FF48042 		mov	r2, #16384
 219 004e 1A80     		strh	r2, [r3]	@ movhi
 358:.\Generated_Source\PSoC5/cyfitter_cfg.c **** 	CY_SET_REG8((void CYXDATA *)(CYREG_PHUB_CH1_BASIC_STATUS+1u), 0x07u);	/* ch1 first TD: 7 */
 220              		.loc 1 358 0
 221 0050 364B     		ldr	r3, .L14+48
 222 0052 0722     		movs	r2, #7
 223 0054 1A70     		strb	r2, [r3]
 359:.\Generated_Source\PSoC5/cyfitter_cfg.c **** 	CY_SET_REG8((void CYXDATA *)(CYREG_PHUB_CH2_BASIC_STATUS+1u), 0x0Bu);	/* ch2 first TD: 11 */
 224              		.loc 1 359 0
 225 0056 364B     		ldr	r3, .L14+52
 226 0058 0B22     		movs	r2, #11
 227 005a 1A70     		strb	r2, [r3]
 360:.\Generated_Source\PSoC5/cyfitter_cfg.c **** 	CY_SET_REG8((void CYXDATA *)(CYREG_PHUB_CH6_BASIC_STATUS+1u), 0x17u);	/* ch6 first TD: 23 */
 228              		.loc 1 360 0
 229 005c 354B     		ldr	r3, .L14+56
 230 005e 1722     		movs	r2, #23
 231 0060 1A70     		strb	r2, [r3]
 361:.\Generated_Source\PSoC5/cyfitter_cfg.c **** 
 362:.\Generated_Source\PSoC5/cyfitter_cfg.c **** 	CY_CFG_MEMORY_BARRIER();
 232              		.loc 1 362 0
 233 0062 BFF35F8F 		dmb	sy
 363:.\Generated_Source\PSoC5/cyfitter_cfg.c **** 	CY_SET_REG8((void CYXDATA *)CYREG_PHUB_CH0_ACTION, 0x01u); /* cpu_req */
 234              		.loc 1 363 0
 235 0066 344B     		ldr	r3, .L14+60
 236 0068 0122     		movs	r2, #1
 237 006a 1A70     		strb	r2, [r3]
 364:.\Generated_Source\PSoC5/cyfitter_cfg.c **** 	CY_CFG_MEMORY_BARRIER();
 238              		.loc 1 364 0
 239 006c BFF35F8F 		dmb	sy
 365:.\Generated_Source\PSoC5/cyfitter_cfg.c **** 
 366:.\Generated_Source\PSoC5/cyfitter_cfg.c **** 	/* Wait for TDs to be copied into TDMEM */
 367:.\Generated_Source\PSoC5/cyfitter_cfg.c **** 	while (CY_GET_REG16((void CYXDATA *)CYREG_PHUB_TDMEM0_ORIG_TD0) != 0u) { }
 240              		.loc 1 367 0
 241 0070 00BF     		nop
 242              	.L7:
 243              		.loc 1 367 0 is_stmt 0 discriminator 1
 244 0072 264B     		ldr	r3, .L14+16
 245 0074 1B88     		ldrh	r3, [r3]	@ movhi
 246 0076 9BB2     		uxth	r3, r3
 247 0078 002B     		cmp	r3, #0
 248 007a FAD1     		bne	.L7
 368:.\Generated_Source\PSoC5/cyfitter_cfg.c **** 
 369:.\Generated_Source\PSoC5/cyfitter_cfg.c **** 	/* Recombine TD source table (CFG_TD_ADDR0) with full TD table (CFG_TD_LIST0) */
 370:.\Generated_Source\PSoC5/cyfitter_cfg.c **** 	for (i = 0u; i < 38u; i++)
 249              		.loc 1 370 0 is_stmt 1
 250 007c 0023     		movs	r3, #0
 251 007e 7B60     		str	r3, [r7, #4]
 252 0080 0DE0     		b	.L8
 253              	.L9:
 371:.\Generated_Source\PSoC5/cyfitter_cfg.c **** 	{
 372:.\Generated_Source\PSoC5/cyfitter_cfg.c **** 		CY_SET_REG16((void CYXDATA *)(CYREG_PHUB_TDMEM1_ORIG_TD1 + (sizeof(struct td_t)*i)), (uint16)(uin
 254              		.loc 1 372 0 discriminator 3
 255 0082 7B68     		ldr	r3, [r7, #4]
ARM GAS  C:\Users\Rolando\AppData\Local\Temp\ccwhT7XD.s 			page 12


 256 0084 DA00     		lsls	r2, r3, #3
 257 0086 2D4B     		ldr	r3, .L14+64
 258 0088 1344     		add	r3, r3, r2
 259 008a 1946     		mov	r1, r3
 260 008c 2C4A     		ldr	r2, .L14+68
 261 008e 7B68     		ldr	r3, [r7, #4]
 262 0090 52F82330 		ldr	r3, [r2, r3, lsl #2]
 263 0094 9BB2     		uxth	r3, r3
 264 0096 0B80     		strh	r3, [r1]	@ movhi
 370:.\Generated_Source\PSoC5/cyfitter_cfg.c **** 	{
 265              		.loc 1 370 0 discriminator 3
 266 0098 7B68     		ldr	r3, [r7, #4]
 267 009a 0133     		adds	r3, r3, #1
 268 009c 7B60     		str	r3, [r7, #4]
 269              	.L8:
 370:.\Generated_Source\PSoC5/cyfitter_cfg.c **** 	{
 270              		.loc 1 370 0 is_stmt 0 discriminator 1
 271 009e 7B68     		ldr	r3, [r7, #4]
 272 00a0 252B     		cmp	r3, #37
 273 00a2 EED9     		bls	.L9
 373:.\Generated_Source\PSoC5/cyfitter_cfg.c **** 	}
 374:.\Generated_Source\PSoC5/cyfitter_cfg.c **** 
 375:.\Generated_Source\PSoC5/cyfitter_cfg.c **** 	CY_CFG_MEMORY_BARRIER();
 274              		.loc 1 375 0 is_stmt 1
 275 00a4 BFF35F8F 		dmb	sy
 376:.\Generated_Source\PSoC5/cyfitter_cfg.c **** 	CY_SET_REG8((void CYXDATA *)CYREG_PHUB_CH0_ACTION, 0x01u); /* cpu_req */
 276              		.loc 1 376 0
 277 00a8 234B     		ldr	r3, .L14+60
 278 00aa 0122     		movs	r2, #1
 279 00ac 1A70     		strb	r2, [r3]
 377:.\Generated_Source\PSoC5/cyfitter_cfg.c **** 	CY_CFG_MEMORY_BARRIER();
 280              		.loc 1 377 0
 281 00ae BFF35F8F 		dmb	sy
 378:.\Generated_Source\PSoC5/cyfitter_cfg.c **** 
 379:.\Generated_Source\PSoC5/cyfitter_cfg.c **** 	/* Wait for all DMA transfers to complete */
 380:.\Generated_Source\PSoC5/cyfitter_cfg.c **** 	while(0u != (CY_GET_REG8((void CYXDATA *)CYREG_PHUB_CH0_BASIC_STATUS) & 0x01u)){}
 282              		.loc 1 380 0
 283 00b2 00BF     		nop
 284              	.L10:
 285              		.loc 1 380 0 is_stmt 0 discriminator 1
 286 00b4 234B     		ldr	r3, .L14+72
 287 00b6 1B78     		ldrb	r3, [r3]
 288 00b8 DBB2     		uxtb	r3, r3
 289 00ba 03F00103 		and	r3, r3, #1
 290 00be 002B     		cmp	r3, #0
 291 00c0 F8D1     		bne	.L10
 381:.\Generated_Source\PSoC5/cyfitter_cfg.c **** 	while(0u != (CY_GET_REG8((void CYXDATA *)CYREG_PHUB_CH1_BASIC_STATUS) & 0x01u)){}
 292              		.loc 1 381 0 is_stmt 1
 293 00c2 00BF     		nop
 294              	.L11:
 295              		.loc 1 381 0 is_stmt 0 discriminator 1
 296 00c4 204B     		ldr	r3, .L14+76
 297 00c6 1B78     		ldrb	r3, [r3]
 298 00c8 DBB2     		uxtb	r3, r3
 299 00ca 03F00103 		and	r3, r3, #1
 300 00ce 002B     		cmp	r3, #0
 301 00d0 F8D1     		bne	.L11
ARM GAS  C:\Users\Rolando\AppData\Local\Temp\ccwhT7XD.s 			page 13


 382:.\Generated_Source\PSoC5/cyfitter_cfg.c **** 	while(0u != (CY_GET_REG8((void CYXDATA *)CYREG_PHUB_CH2_BASIC_STATUS) & 0x01u)){}
 302              		.loc 1 382 0 is_stmt 1
 303 00d2 00BF     		nop
 304              	.L12:
 305              		.loc 1 382 0 is_stmt 0 discriminator 1
 306 00d4 1D4B     		ldr	r3, .L14+80
 307 00d6 1B78     		ldrb	r3, [r3]
 308 00d8 DBB2     		uxtb	r3, r3
 309 00da 03F00103 		and	r3, r3, #1
 310 00de 002B     		cmp	r3, #0
 311 00e0 F8D1     		bne	.L12
 383:.\Generated_Source\PSoC5/cyfitter_cfg.c **** 	while(0u != (CY_GET_REG8((void CYXDATA *)CYREG_PHUB_CH6_BASIC_STATUS) & 0x01u)){}
 312              		.loc 1 383 0 is_stmt 1
 313 00e2 00BF     		nop
 314              	.L13:
 315              		.loc 1 383 0 is_stmt 0 discriminator 1
 316 00e4 1A4B     		ldr	r3, .L14+84
 317 00e6 1B78     		ldrb	r3, [r3]
 318 00e8 DBB2     		uxtb	r3, r3
 319 00ea 03F00103 		and	r3, r3, #1
 320 00ee 002B     		cmp	r3, #0
 321 00f0 F8D1     		bne	.L13
 384:.\Generated_Source\PSoC5/cyfitter_cfg.c **** 
 385:.\Generated_Source\PSoC5/cyfitter_cfg.c **** 
 386:.\Generated_Source\PSoC5/cyfitter_cfg.c **** }
 322              		.loc 1 386 0 is_stmt 1
 323 00f2 0C37     		adds	r7, r7, #12
 324              		.cfi_def_cfa_offset 4
 325 00f4 BD46     		mov	sp, r7
 326              		.cfi_def_cfa_register 13
 327              		@ sp needed
 328 00f6 5DF8047B 		ldr	r7, [sp], #4
 329              		.cfi_restore 7
 330              		.cfi_def_cfa_offset 0
 331 00fa 7047     		bx	lr
 332              	.L15:
 333              		.align	2
 334              	.L14:
 335 00fc 00000000 		.word	DMA_ZERO_VAL.4809
 336 0100 00760040 		.word	1073772032
 337 0104 10700040 		.word	1073770512
 338 0108 19700040 		.word	1073770521
 339 010c 00780040 		.word	1073772544
 340 0110 02780040 		.word	1073772546
 341 0114 03780040 		.word	1073772547
 342 0118 04780040 		.word	1073772548
 343 011c 00000000 		.word	CFG_TD_LIST0.4810
 344 0120 06780040 		.word	1073772550
 345 0124 04760040 		.word	1073772036
 346 0128 06760040 		.word	1073772038
 347 012c 29700040 		.word	1073770537
 348 0130 39700040 		.word	1073770553
 349 0134 79700040 		.word	1073770617
 350 0138 14700040 		.word	1073770516
 351 013c 0C780040 		.word	1073772556
 352 0140 0C000000 		.word	CFG_TD_ADDR0.4811
 353 0144 18700040 		.word	1073770520
ARM GAS  C:\Users\Rolando\AppData\Local\Temp\ccwhT7XD.s 			page 14


 354 0148 28700040 		.word	1073770536
 355 014c 38700040 		.word	1073770552
 356 0150 78700040 		.word	1073770616
 357              		.cfi_endproc
 358              	.LFE4:
 359              		.size	cfg_dma_init, .-cfg_dma_init
 360              		.section	.text.ClockSetup,"ax",%progbits
 361              		.align	2
 362              		.thumb
 363              		.thumb_func
 364              		.type	ClockSetup, %function
 365              	ClockSetup:
 366              	.LFB5:
 387:.\Generated_Source\PSoC5/cyfitter_cfg.c **** /*******************************************************************************
 388:.\Generated_Source\PSoC5/cyfitter_cfg.c **** * Function Name: ClockSetup
 389:.\Generated_Source\PSoC5/cyfitter_cfg.c **** ********************************************************************************
 390:.\Generated_Source\PSoC5/cyfitter_cfg.c **** *
 391:.\Generated_Source\PSoC5/cyfitter_cfg.c **** * Summary:
 392:.\Generated_Source\PSoC5/cyfitter_cfg.c **** *  Performs the initialization of all of the clocks in the device based on the
 393:.\Generated_Source\PSoC5/cyfitter_cfg.c **** *  settings in the Clock tab of the DWR.  This includes enabling the requested
 394:.\Generated_Source\PSoC5/cyfitter_cfg.c **** *  clocks and setting the necessary dividers to produce the desired frequency. 
 395:.\Generated_Source\PSoC5/cyfitter_cfg.c **** *
 396:.\Generated_Source\PSoC5/cyfitter_cfg.c **** * Parameters:
 397:.\Generated_Source\PSoC5/cyfitter_cfg.c **** *  void
 398:.\Generated_Source\PSoC5/cyfitter_cfg.c **** *
 399:.\Generated_Source\PSoC5/cyfitter_cfg.c **** * Return:
 400:.\Generated_Source\PSoC5/cyfitter_cfg.c **** *  void
 401:.\Generated_Source\PSoC5/cyfitter_cfg.c **** *
 402:.\Generated_Source\PSoC5/cyfitter_cfg.c **** *******************************************************************************/
 403:.\Generated_Source\PSoC5/cyfitter_cfg.c **** static void ClockSetup(void);
 404:.\Generated_Source\PSoC5/cyfitter_cfg.c **** static void ClockSetup(void)
 405:.\Generated_Source\PSoC5/cyfitter_cfg.c **** {
 367              		.loc 1 405 0
 368              		.cfi_startproc
 369              		@ args = 0, pretend = 0, frame = 8
 370              		@ frame_needed = 1, uses_anonymous_args = 0
 371 0000 80B5     		push	{r7, lr}
 372              		.cfi_def_cfa_offset 8
 373              		.cfi_offset 7, -8
 374              		.cfi_offset 14, -4
 375 0002 82B0     		sub	sp, sp, #8
 376              		.cfi_def_cfa_offset 16
 377 0004 00AF     		add	r7, sp, #0
 378              		.cfi_def_cfa_register 7
 406:.\Generated_Source\PSoC5/cyfitter_cfg.c **** 	uint8 x32TrHold;
 407:.\Generated_Source\PSoC5/cyfitter_cfg.c **** 	uint32 timeout;
 408:.\Generated_Source\PSoC5/cyfitter_cfg.c **** 	uint8 pllLock;
 409:.\Generated_Source\PSoC5/cyfitter_cfg.c **** 
 410:.\Generated_Source\PSoC5/cyfitter_cfg.c **** 	x32TrHold = CY_GET_XTND_REG8((void CYFAR *)CYREG_X32_TR);
 379              		.loc 1 410 0
 380 0006 4F4B     		ldr	r3, .L24
 381 0008 1B78     		ldrb	r3, [r3]
 382 000a BB70     		strb	r3, [r7, #2]
 411:.\Generated_Source\PSoC5/cyfitter_cfg.c **** 
 412:.\Generated_Source\PSoC5/cyfitter_cfg.c **** 	/* Configure Digital Clocks based on settings from Clock DWR */
 413:.\Generated_Source\PSoC5/cyfitter_cfg.c **** 	CY_SET_XTND_REG16((void CYFAR *)(CYREG_CLKDIST_DCFG0_CFG0), 0x0000u);
 383              		.loc 1 413 0
ARM GAS  C:\Users\Rolando\AppData\Local\Temp\ccwhT7XD.s 			page 15


 384 000c 4E4B     		ldr	r3, .L24+4
 385 000e 0022     		movs	r2, #0
 386 0010 1A80     		strh	r2, [r3]	@ movhi
 414:.\Generated_Source\PSoC5/cyfitter_cfg.c **** 	CY_SET_XTND_REG8((void CYFAR *)(CYREG_CLKDIST_DCFG0_CFG0 + 0x2u), 0x50u);
 387              		.loc 1 414 0
 388 0012 4E4B     		ldr	r3, .L24+8
 389 0014 5022     		movs	r2, #80
 390 0016 1A70     		strb	r2, [r3]
 415:.\Generated_Source\PSoC5/cyfitter_cfg.c **** 
 416:.\Generated_Source\PSoC5/cyfitter_cfg.c **** 	/* Configure Analog Clocks based on settings from Clock DWR */
 417:.\Generated_Source\PSoC5/cyfitter_cfg.c **** 	CYCONFIGCPY((void CYFAR *)(CYREG_CLKDIST_ACFG0_CFG0), (const void CYFAR *)(BS_CYDEV_CLKDIST_ACFG0_
 391              		.loc 1 417 0
 392 0018 4D48     		ldr	r0, .L24+12
 393 001a 4E49     		ldr	r1, .L24+16
 394 001c 0422     		movs	r2, #4
 395 001e FFF7FEFF 		bl	CYCONFIGCPY
 418:.\Generated_Source\PSoC5/cyfitter_cfg.c **** 
 419:.\Generated_Source\PSoC5/cyfitter_cfg.c **** 	/* Configure ILO based on settings from Clock DWR */
 420:.\Generated_Source\PSoC5/cyfitter_cfg.c **** 	CY_SET_XTND_REG8((void CYFAR *)(CYREG_SLOWCLK_ILO_CR0), 0x06u);
 396              		.loc 1 420 0
 397 0022 4D4B     		ldr	r3, .L24+20
 398 0024 0622     		movs	r2, #6
 399 0026 1A70     		strb	r2, [r3]
 421:.\Generated_Source\PSoC5/cyfitter_cfg.c **** 
 422:.\Generated_Source\PSoC5/cyfitter_cfg.c **** 	/* Configure XTAL 32kHz based on settings from Clock DWR */
 423:.\Generated_Source\PSoC5/cyfitter_cfg.c **** 	CY_SET_XTND_REG8((void CYFAR *)(CYREG_SLOWCLK_X32_TST), 0xF3u);
 400              		.loc 1 423 0
 401 0028 4C4B     		ldr	r3, .L24+24
 402 002a F322     		movs	r2, #243
 403 002c 1A70     		strb	r2, [r3]
 424:.\Generated_Source\PSoC5/cyfitter_cfg.c **** 	CY_SET_XTND_REG8((void CYFAR *)(CYREG_X32_TR), 0x03u);
 404              		.loc 1 424 0
 405 002e 454B     		ldr	r3, .L24
 406 0030 0322     		movs	r2, #3
 407 0032 1A70     		strb	r2, [r3]
 425:.\Generated_Source\PSoC5/cyfitter_cfg.c **** 	CY_SET_XTND_REG8((void CYFAR *)(CYREG_SLOWCLK_X32_CFG), 0x84u);
 408              		.loc 1 425 0
 409 0034 4A4B     		ldr	r3, .L24+28
 410 0036 8422     		movs	r2, #132
 411 0038 1A70     		strb	r2, [r3]
 426:.\Generated_Source\PSoC5/cyfitter_cfg.c **** 	CY_SET_XTND_REG8((void CYFAR *)(CYREG_SLOWCLK_X32_CR), 0x05u);
 412              		.loc 1 426 0
 413 003a 4A4B     		ldr	r3, .L24+32
 414 003c 0522     		movs	r2, #5
 415 003e 1A70     		strb	r2, [r3]
 427:.\Generated_Source\PSoC5/cyfitter_cfg.c **** 	/* Wait up to 1000000us for the XTAL 32kHz to lock */
 428:.\Generated_Source\PSoC5/cyfitter_cfg.c **** 	for (timeout = 1000000u / 10u; (timeout > 0u) && ((CY_GET_XTND_REG8((void CYFAR *)CYREG_SLOWCLK_X3
 416              		.loc 1 428 0
 417 0040 494B     		ldr	r3, .L24+36
 418 0042 7B60     		str	r3, [r7, #4]
 419 0044 06E0     		b	.L17
 420              	.L19:
 429:.\Generated_Source\PSoC5/cyfitter_cfg.c **** 	{ 
 430:.\Generated_Source\PSoC5/cyfitter_cfg.c **** 		
 431:.\Generated_Source\PSoC5/cyfitter_cfg.c **** 		CyDelayCycles(10u * 48u); /* Delay 10us based on 48MHz clock */
 421              		.loc 1 431 0 discriminator 4
 422 0046 4FF4F070 		mov	r0, #480
ARM GAS  C:\Users\Rolando\AppData\Local\Temp\ccwhT7XD.s 			page 16


 423 004a FFF7FEFF 		bl	CyDelayCycles
 428:.\Generated_Source\PSoC5/cyfitter_cfg.c **** 	{ 
 424              		.loc 1 428 0 discriminator 4
 425 004e 7B68     		ldr	r3, [r7, #4]
 426 0050 013B     		subs	r3, r3, #1
 427 0052 7B60     		str	r3, [r7, #4]
 428              	.L17:
 428:.\Generated_Source\PSoC5/cyfitter_cfg.c **** 	{ 
 429              		.loc 1 428 0 is_stmt 0 discriminator 1
 430 0054 7B68     		ldr	r3, [r7, #4]
 431 0056 002B     		cmp	r3, #0
 432 0058 06D0     		beq	.L18
 428:.\Generated_Source\PSoC5/cyfitter_cfg.c **** 	{ 
 433              		.loc 1 428 0 discriminator 3
 434 005a 424B     		ldr	r3, .L24+32
 435 005c 1B78     		ldrb	r3, [r3]
 436 005e DBB2     		uxtb	r3, r3
 437 0060 03F02003 		and	r3, r3, #32
 438 0064 002B     		cmp	r3, #0
 439 0066 EED0     		beq	.L19
 440              	.L18:
 432:.\Generated_Source\PSoC5/cyfitter_cfg.c **** 	}
 433:.\Generated_Source\PSoC5/cyfitter_cfg.c **** 	CY_SET_XTND_REG8((void CYFAR *)(CYREG_X32_TR), (x32TrHold));
 441              		.loc 1 433 0 is_stmt 1
 442 0068 364A     		ldr	r2, .L24
 443 006a BB78     		ldrb	r3, [r7, #2]
 444 006c 1370     		strb	r3, [r2]
 434:.\Generated_Source\PSoC5/cyfitter_cfg.c **** 
 435:.\Generated_Source\PSoC5/cyfitter_cfg.c **** 	/* Configure IMO based on settings from Clock DWR */
 436:.\Generated_Source\PSoC5/cyfitter_cfg.c **** 	CY_SET_XTND_REG8((void CYFAR *)(CYREG_FASTCLK_IMO_CR), 0x52u);
 445              		.loc 1 436 0
 446 006e 3F4B     		ldr	r3, .L24+40
 447 0070 5222     		movs	r2, #82
 448 0072 1A70     		strb	r2, [r3]
 437:.\Generated_Source\PSoC5/cyfitter_cfg.c **** 	CY_SET_XTND_REG8((void CYFAR *)(CYREG_IMO_TR1), (CY_GET_XTND_REG8((void CYFAR *)CYREG_FLSHID_CUST_
 449              		.loc 1 437 0
 450 0074 3E4B     		ldr	r3, .L24+44
 451 0076 3F4A     		ldr	r2, .L24+48
 452 0078 1278     		ldrb	r2, [r2]
 453 007a D2B2     		uxtb	r2, r2
 454 007c 1A70     		strb	r2, [r3]
 438:.\Generated_Source\PSoC5/cyfitter_cfg.c **** 
 439:.\Generated_Source\PSoC5/cyfitter_cfg.c **** 	/* Configure PLL based on settings from Clock DWR */
 440:.\Generated_Source\PSoC5/cyfitter_cfg.c **** 	CY_SET_XTND_REG16((void CYFAR *)(CYREG_FASTCLK_PLL_P), 0x0708u);
 455              		.loc 1 440 0
 456 007e 3E4B     		ldr	r3, .L24+52
 457 0080 4FF4E162 		mov	r2, #1800
 458 0084 1A80     		strh	r2, [r3]	@ movhi
 441:.\Generated_Source\PSoC5/cyfitter_cfg.c **** 	CY_SET_XTND_REG16((void CYFAR *)(CYREG_FASTCLK_PLL_CFG0), 0x1251u);
 459              		.loc 1 441 0
 460 0086 3D4B     		ldr	r3, .L24+56
 461 0088 41F25122 		movw	r2, #4689
 462 008c 1A80     		strh	r2, [r3]	@ movhi
 442:.\Generated_Source\PSoC5/cyfitter_cfg.c **** 	/* Wait up to 250us for the PLL to lock */
 443:.\Generated_Source\PSoC5/cyfitter_cfg.c **** 	pllLock = 0u;
 463              		.loc 1 443 0
 464 008e 0023     		movs	r3, #0
ARM GAS  C:\Users\Rolando\AppData\Local\Temp\ccwhT7XD.s 			page 17


 465 0090 FB70     		strb	r3, [r7, #3]
 444:.\Generated_Source\PSoC5/cyfitter_cfg.c **** 	for (timeout = 250u / 10u; (timeout > 0u) && (pllLock != 0x03u); timeout--)
 466              		.loc 1 444 0
 467 0092 1923     		movs	r3, #25
 468 0094 7B60     		str	r3, [r7, #4]
 469 0096 14E0     		b	.L20
 470              	.L22:
 445:.\Generated_Source\PSoC5/cyfitter_cfg.c **** 	{ 
 446:.\Generated_Source\PSoC5/cyfitter_cfg.c **** 		pllLock = 0x03u & ((uint8)((uint8)pllLock << 1) | ((CY_GET_XTND_REG8((void CYFAR *)CYREG_FASTCLK_
 471              		.loc 1 446 0 discriminator 4
 472 0098 FB78     		ldrb	r3, [r7, #3]
 473 009a 5B00     		lsls	r3, r3, #1
 474 009c DAB2     		uxtb	r2, r3
 475 009e 384B     		ldr	r3, .L24+60
 476 00a0 1B78     		ldrb	r3, [r3]
 477 00a2 DBB2     		uxtb	r3, r3
 478 00a4 03F00103 		and	r3, r3, #1
 479 00a8 DBB2     		uxtb	r3, r3
 480 00aa 1343     		orrs	r3, r3, r2
 481 00ac DBB2     		uxtb	r3, r3
 482 00ae 03F00303 		and	r3, r3, #3
 483 00b2 FB70     		strb	r3, [r7, #3]
 447:.\Generated_Source\PSoC5/cyfitter_cfg.c **** 		CyDelayCycles(10u * 48u); /* Delay 10us based on 48MHz clock */
 484              		.loc 1 447 0 discriminator 4
 485 00b4 4FF4F070 		mov	r0, #480
 486 00b8 FFF7FEFF 		bl	CyDelayCycles
 444:.\Generated_Source\PSoC5/cyfitter_cfg.c **** 	for (timeout = 250u / 10u; (timeout > 0u) && (pllLock != 0x03u); timeout--)
 487              		.loc 1 444 0 discriminator 4
 488 00bc 7B68     		ldr	r3, [r7, #4]
 489 00be 013B     		subs	r3, r3, #1
 490 00c0 7B60     		str	r3, [r7, #4]
 491              	.L20:
 444:.\Generated_Source\PSoC5/cyfitter_cfg.c **** 	for (timeout = 250u / 10u; (timeout > 0u) && (pllLock != 0x03u); timeout--)
 492              		.loc 1 444 0 is_stmt 0 discriminator 1
 493 00c2 7B68     		ldr	r3, [r7, #4]
 494 00c4 002B     		cmp	r3, #0
 495 00c6 02D0     		beq	.L21
 444:.\Generated_Source\PSoC5/cyfitter_cfg.c **** 	for (timeout = 250u / 10u; (timeout > 0u) && (pllLock != 0x03u); timeout--)
 496              		.loc 1 444 0 discriminator 3
 497 00c8 FB78     		ldrb	r3, [r7, #3]	@ zero_extendqisi2
 498 00ca 032B     		cmp	r3, #3
 499 00cc E4D1     		bne	.L22
 500              	.L21:
 448:.\Generated_Source\PSoC5/cyfitter_cfg.c **** 	}
 449:.\Generated_Source\PSoC5/cyfitter_cfg.c **** 	/* If we ran out of time the PLL didn't lock so go to the error function */
 450:.\Generated_Source\PSoC5/cyfitter_cfg.c **** 	if (timeout == 0u)
 501              		.loc 1 450 0 is_stmt 1
 502 00ce 7B68     		ldr	r3, [r7, #4]
 503 00d0 002B     		cmp	r3, #0
 504 00d2 02D1     		bne	.L23
 451:.\Generated_Source\PSoC5/cyfitter_cfg.c **** 	{
 452:.\Generated_Source\PSoC5/cyfitter_cfg.c **** 		CyClockStartupError(CYCLOCKSTART_PLL_ERROR);
 505              		.loc 1 452 0
 506 00d4 0320     		movs	r0, #3
 507 00d6 FFF7FEFF 		bl	CyClockStartupError
 508              	.L23:
 453:.\Generated_Source\PSoC5/cyfitter_cfg.c **** 	}
ARM GAS  C:\Users\Rolando\AppData\Local\Temp\ccwhT7XD.s 			page 18


 454:.\Generated_Source\PSoC5/cyfitter_cfg.c **** 
 455:.\Generated_Source\PSoC5/cyfitter_cfg.c **** 	/* Configure Bus/Master Clock based on settings from Clock DWR */
 456:.\Generated_Source\PSoC5/cyfitter_cfg.c **** 	CY_SET_XTND_REG16((void CYFAR *)(CYREG_CLKDIST_MSTR0), 0x0100u);
 509              		.loc 1 456 0
 510 00da 2A4B     		ldr	r3, .L24+64
 511 00dc 4FF48072 		mov	r2, #256
 512 00e0 1A80     		strh	r2, [r3]	@ movhi
 457:.\Generated_Source\PSoC5/cyfitter_cfg.c **** 	CY_SET_XTND_REG8((void CYFAR *)(CYREG_CLKDIST_MSTR0), 0x07u);
 513              		.loc 1 457 0
 514 00e2 284B     		ldr	r3, .L24+64
 515 00e4 0722     		movs	r2, #7
 516 00e6 1A70     		strb	r2, [r3]
 458:.\Generated_Source\PSoC5/cyfitter_cfg.c **** 	CY_SET_XTND_REG8((void CYFAR *)(CYREG_CLKDIST_BCFG0), 0x00u);
 517              		.loc 1 458 0
 518 00e8 274B     		ldr	r3, .L24+68
 519 00ea 0022     		movs	r2, #0
 520 00ec 1A70     		strb	r2, [r3]
 459:.\Generated_Source\PSoC5/cyfitter_cfg.c **** 	CY_SET_XTND_REG8((void CYFAR *)(CYREG_CLKDIST_BCFG2), 0x48u);
 521              		.loc 1 459 0
 522 00ee 274B     		ldr	r3, .L24+72
 523 00f0 4822     		movs	r2, #72
 524 00f2 1A70     		strb	r2, [r3]
 460:.\Generated_Source\PSoC5/cyfitter_cfg.c **** 	CY_SET_XTND_REG8((void CYFAR *)(CYREG_CLKDIST_MSTR0), 0x00u);
 525              		.loc 1 460 0
 526 00f4 234B     		ldr	r3, .L24+64
 527 00f6 0022     		movs	r2, #0
 528 00f8 1A70     		strb	r2, [r3]
 461:.\Generated_Source\PSoC5/cyfitter_cfg.c **** 
 462:.\Generated_Source\PSoC5/cyfitter_cfg.c **** 	/* Configure USB Clock based on settings from Clock DWR */
 463:.\Generated_Source\PSoC5/cyfitter_cfg.c **** 	CY_SET_XTND_REG8((void CYFAR *)(CYREG_CLKDIST_UCFG), 0x00u);
 529              		.loc 1 463 0
 530 00fa 254B     		ldr	r3, .L24+76
 531 00fc 0022     		movs	r2, #0
 532 00fe 1A70     		strb	r2, [r3]
 464:.\Generated_Source\PSoC5/cyfitter_cfg.c **** 	CY_SET_XTND_REG8((void CYFAR *)(CYREG_CLKDIST_LD), 0x02u);
 533              		.loc 1 464 0
 534 0100 244B     		ldr	r3, .L24+80
 535 0102 0222     		movs	r2, #2
 536 0104 1A70     		strb	r2, [r3]
 465:.\Generated_Source\PSoC5/cyfitter_cfg.c **** 	CY_SET_XTND_REG8((void CYFAR *)(CYREG_CLKDIST_DLY1), 0x04u);
 537              		.loc 1 465 0
 538 0106 244B     		ldr	r3, .L24+84
 539 0108 0422     		movs	r2, #4
 540 010a 1A70     		strb	r2, [r3]
 466:.\Generated_Source\PSoC5/cyfitter_cfg.c **** 
 467:.\Generated_Source\PSoC5/cyfitter_cfg.c **** 	CY_SET_XTND_REG8((void CYFAR *)(CYREG_PM_ACT_CFG2), ((CY_GET_XTND_REG8((void CYFAR *)CYREG_PM_ACT_
 541              		.loc 1 467 0
 542 010c 234A     		ldr	r2, .L24+88
 543 010e 234B     		ldr	r3, .L24+88
 544 0110 1B78     		ldrb	r3, [r3]
 545 0112 DBB2     		uxtb	r3, r3
 546 0114 43F00103 		orr	r3, r3, #1
 547 0118 DBB2     		uxtb	r3, r3
 548 011a 1370     		strb	r3, [r2]
 468:.\Generated_Source\PSoC5/cyfitter_cfg.c **** 	CY_SET_XTND_REG8((void CYFAR *)(CYREG_PM_ACT_CFG1), ((CY_GET_XTND_REG8((void CYFAR *)CYREG_PM_ACT_
 549              		.loc 1 468 0
 550 011c 204A     		ldr	r2, .L24+92
ARM GAS  C:\Users\Rolando\AppData\Local\Temp\ccwhT7XD.s 			page 19


 551 011e 204B     		ldr	r3, .L24+92
 552 0120 1B78     		ldrb	r3, [r3]
 553 0122 DBB2     		uxtb	r3, r3
 554 0124 43F00103 		orr	r3, r3, #1
 555 0128 DBB2     		uxtb	r3, r3
 556 012a 1370     		strb	r3, [r2]
 469:.\Generated_Source\PSoC5/cyfitter_cfg.c **** 	CY_SET_XTND_REG8((void CYFAR *)(CYREG_PM_ACT_CFG0), ((CY_GET_XTND_REG8((void CYFAR *)CYREG_PM_ACT_
 557              		.loc 1 469 0
 558 012c 1D4A     		ldr	r2, .L24+96
 559 012e 1D4B     		ldr	r3, .L24+96
 560 0130 1B78     		ldrb	r3, [r3]
 561 0132 DBB2     		uxtb	r3, r3
 562 0134 63F07F03 		orn	r3, r3, #127
 563 0138 DBB2     		uxtb	r3, r3
 564 013a 1370     		strb	r3, [r2]
 470:.\Generated_Source\PSoC5/cyfitter_cfg.c **** }
 565              		.loc 1 470 0
 566 013c 0837     		adds	r7, r7, #8
 567              		.cfi_def_cfa_offset 8
 568 013e BD46     		mov	sp, r7
 569              		.cfi_def_cfa_register 13
 570              		@ sp needed
 571 0140 80BD     		pop	{r7, pc}
 572              	.L25:
 573 0142 00BF     		.align	2
 574              	.L24:
 575 0144 98460040 		.word	1073759896
 576 0148 80400040 		.word	1073758336
 577 014c 82400040 		.word	1073758338
 578 0150 00410040 		.word	1073758464
 579 0154 10080048 		.word	1207961616
 580 0158 00430040 		.word	1073758976
 581 015c 0A430040 		.word	1073758986
 582 0160 09430040 		.word	1073758985
 583 0164 08430040 		.word	1073758984
 584 0168 A0860100 		.word	100000
 585 016c 00420040 		.word	1073758720
 586 0170 A1460040 		.word	1073759905
 587 0174 0F010049 		.word	1224737039
 588 0178 22420040 		.word	1073758754
 589 017c 20420040 		.word	1073758752
 590 0180 25420040 		.word	1073758757
 591 0184 04400040 		.word	1073758212
 592 0188 06400040 		.word	1073758214
 593 018c 08400040 		.word	1073758216
 594 0190 09400040 		.word	1073758217
 595 0194 01400040 		.word	1073758209
 596 0198 0B400040 		.word	1073758219
 597 019c A2430040 		.word	1073759138
 598 01a0 A1430040 		.word	1073759137
 599 01a4 A0430040 		.word	1073759136
 600              		.cfi_endproc
 601              	.LFE5:
 602              		.size	ClockSetup, .-ClockSetup
 603              		.section	.text.AnalogSetDefault,"ax",%progbits
 604              		.align	2
 605              		.thumb
ARM GAS  C:\Users\Rolando\AppData\Local\Temp\ccwhT7XD.s 			page 20


 606              		.thumb_func
 607              		.type	AnalogSetDefault, %function
 608              	AnalogSetDefault:
 609              	.LFB6:
 471:.\Generated_Source\PSoC5/cyfitter_cfg.c **** 
 472:.\Generated_Source\PSoC5/cyfitter_cfg.c **** 
 473:.\Generated_Source\PSoC5/cyfitter_cfg.c **** /* Analog API Functions */
 474:.\Generated_Source\PSoC5/cyfitter_cfg.c **** 
 475:.\Generated_Source\PSoC5/cyfitter_cfg.c **** 
 476:.\Generated_Source\PSoC5/cyfitter_cfg.c **** /*******************************************************************************
 477:.\Generated_Source\PSoC5/cyfitter_cfg.c **** * Function Name: AnalogSetDefault
 478:.\Generated_Source\PSoC5/cyfitter_cfg.c **** ********************************************************************************
 479:.\Generated_Source\PSoC5/cyfitter_cfg.c **** *
 480:.\Generated_Source\PSoC5/cyfitter_cfg.c **** * Summary:
 481:.\Generated_Source\PSoC5/cyfitter_cfg.c **** *  Sets up the analog portions of the chip to default values based on chip
 482:.\Generated_Source\PSoC5/cyfitter_cfg.c **** *  configuration options from the project.
 483:.\Generated_Source\PSoC5/cyfitter_cfg.c **** *
 484:.\Generated_Source\PSoC5/cyfitter_cfg.c **** * Parameters:
 485:.\Generated_Source\PSoC5/cyfitter_cfg.c **** *  void
 486:.\Generated_Source\PSoC5/cyfitter_cfg.c **** *
 487:.\Generated_Source\PSoC5/cyfitter_cfg.c **** * Return:
 488:.\Generated_Source\PSoC5/cyfitter_cfg.c **** *  void
 489:.\Generated_Source\PSoC5/cyfitter_cfg.c **** *
 490:.\Generated_Source\PSoC5/cyfitter_cfg.c **** *******************************************************************************/
 491:.\Generated_Source\PSoC5/cyfitter_cfg.c **** static void AnalogSetDefault(void);
 492:.\Generated_Source\PSoC5/cyfitter_cfg.c **** static void AnalogSetDefault(void)
 493:.\Generated_Source\PSoC5/cyfitter_cfg.c **** {
 610              		.loc 1 493 0
 611              		.cfi_startproc
 612              		@ args = 0, pretend = 0, frame = 8
 613              		@ frame_needed = 1, uses_anonymous_args = 0
 614              		@ link register save eliminated.
 615 0000 80B4     		push	{r7}
 616              		.cfi_def_cfa_offset 4
 617              		.cfi_offset 7, -4
 618 0002 83B0     		sub	sp, sp, #12
 619              		.cfi_def_cfa_offset 16
 620 0004 00AF     		add	r7, sp, #0
 621              		.cfi_def_cfa_register 7
 494:.\Generated_Source\PSoC5/cyfitter_cfg.c **** 	uint8 bg_xover_inl_trim = CY_GET_XTND_REG8((void CYFAR *)(CYREG_FLSHID_MFG_CFG_BG_XOVER_INL_TRIM +
 622              		.loc 1 494 0
 623 0006 0E4B     		ldr	r3, .L27
 624 0008 1B78     		ldrb	r3, [r3]
 625 000a FB71     		strb	r3, [r7, #7]
 495:.\Generated_Source\PSoC5/cyfitter_cfg.c **** 	CY_SET_XTND_REG8((void CYFAR *)(CYREG_BG_DFT0), (bg_xover_inl_trim & 0x07u));
 626              		.loc 1 495 0
 627 000c 0D4A     		ldr	r2, .L27+4
 628 000e FB79     		ldrb	r3, [r7, #7]
 629 0010 03F00703 		and	r3, r3, #7
 630 0014 DBB2     		uxtb	r3, r3
 631 0016 1370     		strb	r3, [r2]
 496:.\Generated_Source\PSoC5/cyfitter_cfg.c **** 	CY_SET_XTND_REG8((void CYFAR *)(CYREG_BG_DFT1), ((bg_xover_inl_trim >> 4) & 0x0Fu));
 632              		.loc 1 496 0
 633 0018 0B4A     		ldr	r2, .L27+8
 634 001a FB79     		ldrb	r3, [r7, #7]	@ zero_extendqisi2
 635 001c 1B09     		lsrs	r3, r3, #4
 636 001e DBB2     		uxtb	r3, r3
ARM GAS  C:\Users\Rolando\AppData\Local\Temp\ccwhT7XD.s 			page 21


 637 0020 1370     		strb	r3, [r2]
 497:.\Generated_Source\PSoC5/cyfitter_cfg.c **** 	CY_SET_XTND_REG8((void CYFAR *)CYREG_PRT6_AG, 0x20u);
 638              		.loc 1 497 0
 639 0022 0A4B     		ldr	r3, .L27+12
 640 0024 2022     		movs	r2, #32
 641 0026 1A70     		strb	r2, [r3]
 498:.\Generated_Source\PSoC5/cyfitter_cfg.c **** 	CY_SET_XTND_REG8((void CYFAR *)CYREG_DSM0_SW0, 0x02u);
 642              		.loc 1 498 0
 643 0028 094B     		ldr	r3, .L27+16
 644 002a 0222     		movs	r2, #2
 645 002c 1A70     		strb	r2, [r3]
 499:.\Generated_Source\PSoC5/cyfitter_cfg.c **** 	CY_SET_XTND_REG8((void CYFAR *)CYREG_PUMP_CR0, 0x44u);
 646              		.loc 1 499 0
 647 002e 094B     		ldr	r3, .L27+20
 648 0030 4422     		movs	r2, #68
 649 0032 1A70     		strb	r2, [r3]
 500:.\Generated_Source\PSoC5/cyfitter_cfg.c **** }
 650              		.loc 1 500 0
 651 0034 0C37     		adds	r7, r7, #12
 652              		.cfi_def_cfa_offset 4
 653 0036 BD46     		mov	sp, r7
 654              		.cfi_def_cfa_register 13
 655              		@ sp needed
 656 0038 5DF8047B 		ldr	r7, [sp], #4
 657              		.cfi_restore 7
 658              		.cfi_def_cfa_offset 0
 659 003c 7047     		bx	lr
 660              	.L28:
 661 003e 00BF     		.align	2
 662              	.L27:
 663 0040 CF010049 		.word	1224737231
 664 0044 6E580040 		.word	1073764462
 665 0048 6F580040 		.word	1073764463
 666 004c 6D510040 		.word	1073762669
 667 0050 005B0040 		.word	1073765120
 668 0054 76580040 		.word	1073764470
 669              		.cfi_endproc
 670              	.LFE6:
 671              		.size	AnalogSetDefault, .-AnalogSetDefault
 672              		.section	.text.SetAnalogRoutingPumps,"ax",%progbits
 673              		.align	2
 674              		.global	SetAnalogRoutingPumps
 675              		.thumb
 676              		.thumb_func
 677              		.type	SetAnalogRoutingPumps, %function
 678              	SetAnalogRoutingPumps:
 679              	.LFB7:
 501:.\Generated_Source\PSoC5/cyfitter_cfg.c **** 
 502:.\Generated_Source\PSoC5/cyfitter_cfg.c **** 
 503:.\Generated_Source\PSoC5/cyfitter_cfg.c **** /*******************************************************************************
 504:.\Generated_Source\PSoC5/cyfitter_cfg.c **** * Function Name: SetAnalogRoutingPumps
 505:.\Generated_Source\PSoC5/cyfitter_cfg.c **** ********************************************************************************
 506:.\Generated_Source\PSoC5/cyfitter_cfg.c **** *
 507:.\Generated_Source\PSoC5/cyfitter_cfg.c **** * Summary:
 508:.\Generated_Source\PSoC5/cyfitter_cfg.c **** * Enables or disables the analog pumps feeding analog routing switches.
 509:.\Generated_Source\PSoC5/cyfitter_cfg.c **** * Intended to be called at startup, based on the Vdda system configuration;
 510:.\Generated_Source\PSoC5/cyfitter_cfg.c **** * may be called during operation when the user informs us that the Vdda voltage
ARM GAS  C:\Users\Rolando\AppData\Local\Temp\ccwhT7XD.s 			page 22


 511:.\Generated_Source\PSoC5/cyfitter_cfg.c **** * crossed the pump threshold.
 512:.\Generated_Source\PSoC5/cyfitter_cfg.c **** *
 513:.\Generated_Source\PSoC5/cyfitter_cfg.c **** * Parameters:
 514:.\Generated_Source\PSoC5/cyfitter_cfg.c **** *  enabled - 1 to enable the pumps, 0 to disable the pumps
 515:.\Generated_Source\PSoC5/cyfitter_cfg.c **** *
 516:.\Generated_Source\PSoC5/cyfitter_cfg.c **** * Return:
 517:.\Generated_Source\PSoC5/cyfitter_cfg.c **** *  void
 518:.\Generated_Source\PSoC5/cyfitter_cfg.c **** *
 519:.\Generated_Source\PSoC5/cyfitter_cfg.c **** *******************************************************************************/
 520:.\Generated_Source\PSoC5/cyfitter_cfg.c **** void SetAnalogRoutingPumps(uint8 enabled)
 521:.\Generated_Source\PSoC5/cyfitter_cfg.c **** {
 680              		.loc 1 521 0
 681              		.cfi_startproc
 682              		@ args = 0, pretend = 0, frame = 16
 683              		@ frame_needed = 1, uses_anonymous_args = 0
 684              		@ link register save eliminated.
 685 0000 80B4     		push	{r7}
 686              		.cfi_def_cfa_offset 4
 687              		.cfi_offset 7, -4
 688 0002 85B0     		sub	sp, sp, #20
 689              		.cfi_def_cfa_offset 24
 690 0004 00AF     		add	r7, sp, #0
 691              		.cfi_def_cfa_register 7
 692 0006 0346     		mov	r3, r0
 693 0008 FB71     		strb	r3, [r7, #7]
 522:.\Generated_Source\PSoC5/cyfitter_cfg.c **** 	uint8 regValue = CY_GET_XTND_REG8((void CYFAR *)CYREG_PUMP_CR0);
 694              		.loc 1 522 0
 695 000a 0B4B     		ldr	r3, .L32
 696 000c 1B78     		ldrb	r3, [r3]
 697 000e FB73     		strb	r3, [r7, #15]
 523:.\Generated_Source\PSoC5/cyfitter_cfg.c **** 	if (enabled != 0u)
 698              		.loc 1 523 0
 699 0010 FB79     		ldrb	r3, [r7, #7]	@ zero_extendqisi2
 700 0012 002B     		cmp	r3, #0
 701 0014 04D0     		beq	.L30
 524:.\Generated_Source\PSoC5/cyfitter_cfg.c **** 	{
 525:.\Generated_Source\PSoC5/cyfitter_cfg.c **** 		regValue |= 0x22u;
 702              		.loc 1 525 0
 703 0016 FB7B     		ldrb	r3, [r7, #15]
 704 0018 43F02203 		orr	r3, r3, #34
 705 001c FB73     		strb	r3, [r7, #15]
 706 001e 03E0     		b	.L31
 707              	.L30:
 526:.\Generated_Source\PSoC5/cyfitter_cfg.c **** 	}
 527:.\Generated_Source\PSoC5/cyfitter_cfg.c **** 	else
 528:.\Generated_Source\PSoC5/cyfitter_cfg.c **** 	{
 529:.\Generated_Source\PSoC5/cyfitter_cfg.c **** 		regValue &= (uint8)~0x22u;
 708              		.loc 1 529 0
 709 0020 FB7B     		ldrb	r3, [r7, #15]
 710 0022 23F02203 		bic	r3, r3, #34
 711 0026 FB73     		strb	r3, [r7, #15]
 712              	.L31:
 530:.\Generated_Source\PSoC5/cyfitter_cfg.c **** 	}
 531:.\Generated_Source\PSoC5/cyfitter_cfg.c **** 	CY_SET_XTND_REG8((void CYFAR *)CYREG_PUMP_CR0, regValue);
 713              		.loc 1 531 0
 714 0028 034A     		ldr	r2, .L32
 715 002a FB7B     		ldrb	r3, [r7, #15]
ARM GAS  C:\Users\Rolando\AppData\Local\Temp\ccwhT7XD.s 			page 23


 716 002c 1370     		strb	r3, [r2]
 532:.\Generated_Source\PSoC5/cyfitter_cfg.c **** }
 717              		.loc 1 532 0
 718 002e 1437     		adds	r7, r7, #20
 719              		.cfi_def_cfa_offset 4
 720 0030 BD46     		mov	sp, r7
 721              		.cfi_def_cfa_register 13
 722              		@ sp needed
 723 0032 5DF8047B 		ldr	r7, [sp], #4
 724              		.cfi_restore 7
 725              		.cfi_def_cfa_offset 0
 726 0036 7047     		bx	lr
 727              	.L33:
 728              		.align	2
 729              	.L32:
 730 0038 76580040 		.word	1073764470
 731              		.cfi_endproc
 732              	.LFE7:
 733              		.size	SetAnalogRoutingPumps, .-SetAnalogRoutingPumps
 734              		.global	ADC_AMux__addrTable
 735              		.section	.rodata
 736              		.align	2
 737              		.type	ADC_AMux__addrTable, %object
 738              		.size	ADC_AMux__addrTable, 8
 739              	ADC_AMux__addrTable:
 740 0000 035B0040 		.word	1073765123
 741 0004 24430040 		.word	1073759012
 742              		.global	ADC_AMux__maskTable
 743              		.align	2
 744              		.type	ADC_AMux__maskTable, %object
 745              		.size	ADC_AMux__maskTable, 2
 746              	ADC_AMux__maskTable:
 747 0008 40       		.byte	64
 748 0009 00       		.byte	0
 749              		.section	.text.ADC_AMux_Set,"ax",%progbits
 750              		.align	2
 751              		.global	ADC_AMux_Set
 752              		.thumb
 753              		.thumb_func
 754              		.type	ADC_AMux_Set, %function
 755              	ADC_AMux_Set:
 756              	.LFB8:
 533:.\Generated_Source\PSoC5/cyfitter_cfg.c **** 
 534:.\Generated_Source\PSoC5/cyfitter_cfg.c **** #define CY_AMUX_UNUSED CYREG_BOOST_SR
 535:.\Generated_Source\PSoC5/cyfitter_cfg.c **** /* This is an implementation detail of the AMux. Code that depends on it may be
 536:.\Generated_Source\PSoC5/cyfitter_cfg.c ****    incompatible with other versions of PSoC Creator. */
 537:.\Generated_Source\PSoC5/cyfitter_cfg.c **** uint8 CYXDATA * const CYCODE ADC_AMux__addrTable[2] = {
 538:.\Generated_Source\PSoC5/cyfitter_cfg.c **** 	(uint8 CYXDATA *)CYREG_DSM0_SW3, 
 539:.\Generated_Source\PSoC5/cyfitter_cfg.c **** 	(uint8 CYXDATA *)CY_AMUX_UNUSED, 
 540:.\Generated_Source\PSoC5/cyfitter_cfg.c **** };
 541:.\Generated_Source\PSoC5/cyfitter_cfg.c **** 
 542:.\Generated_Source\PSoC5/cyfitter_cfg.c **** /* This is an implementation detail of the AMux. Code that depends on it may be
 543:.\Generated_Source\PSoC5/cyfitter_cfg.c ****    incompatible with other versions of PSoC Creator. */
 544:.\Generated_Source\PSoC5/cyfitter_cfg.c **** const uint8 CYCODE ADC_AMux__maskTable[2] = {
 545:.\Generated_Source\PSoC5/cyfitter_cfg.c **** 	0x40u, 
 546:.\Generated_Source\PSoC5/cyfitter_cfg.c **** 	0x00u, 
 547:.\Generated_Source\PSoC5/cyfitter_cfg.c **** };
ARM GAS  C:\Users\Rolando\AppData\Local\Temp\ccwhT7XD.s 			page 24


 548:.\Generated_Source\PSoC5/cyfitter_cfg.c **** 
 549:.\Generated_Source\PSoC5/cyfitter_cfg.c **** /*******************************************************************************
 550:.\Generated_Source\PSoC5/cyfitter_cfg.c **** * Function Name: ADC_AMux_Set
 551:.\Generated_Source\PSoC5/cyfitter_cfg.c **** ********************************************************************************
 552:.\Generated_Source\PSoC5/cyfitter_cfg.c **** * Summary:
 553:.\Generated_Source\PSoC5/cyfitter_cfg.c **** *  This function is used to set a particular channel as active on the AMux.
 554:.\Generated_Source\PSoC5/cyfitter_cfg.c **** *
 555:.\Generated_Source\PSoC5/cyfitter_cfg.c **** * Parameters:  
 556:.\Generated_Source\PSoC5/cyfitter_cfg.c **** *   channel - The mux channel input to set as active
 557:.\Generated_Source\PSoC5/cyfitter_cfg.c **** *
 558:.\Generated_Source\PSoC5/cyfitter_cfg.c **** * Return:
 559:.\Generated_Source\PSoC5/cyfitter_cfg.c **** *   void
 560:.\Generated_Source\PSoC5/cyfitter_cfg.c **** *
 561:.\Generated_Source\PSoC5/cyfitter_cfg.c **** *******************************************************************************/
 562:.\Generated_Source\PSoC5/cyfitter_cfg.c **** void ADC_AMux_Set(uint8 channel)
 563:.\Generated_Source\PSoC5/cyfitter_cfg.c **** {
 757              		.loc 1 563 0
 758              		.cfi_startproc
 759              		@ args = 0, pretend = 0, frame = 8
 760              		@ frame_needed = 1, uses_anonymous_args = 0
 761              		@ link register save eliminated.
 762 0000 80B4     		push	{r7}
 763              		.cfi_def_cfa_offset 4
 764              		.cfi_offset 7, -4
 765 0002 83B0     		sub	sp, sp, #12
 766              		.cfi_def_cfa_offset 16
 767 0004 00AF     		add	r7, sp, #0
 768              		.cfi_def_cfa_register 7
 769 0006 0346     		mov	r3, r0
 770 0008 FB71     		strb	r3, [r7, #7]
 564:.\Generated_Source\PSoC5/cyfitter_cfg.c **** 	if (channel < 2)
 771              		.loc 1 564 0
 772 000a FB79     		ldrb	r3, [r7, #7]	@ zero_extendqisi2
 773 000c 012B     		cmp	r3, #1
 774 000e 0ED8     		bhi	.L34
 565:.\Generated_Source\PSoC5/cyfitter_cfg.c **** 	{
 566:.\Generated_Source\PSoC5/cyfitter_cfg.c **** 		*ADC_AMux__addrTable[channel] |= ADC_AMux__maskTable[channel];
 775              		.loc 1 566 0
 776 0010 FB79     		ldrb	r3, [r7, #7]	@ zero_extendqisi2
 777 0012 094A     		ldr	r2, .L36
 778 0014 52F82330 		ldr	r3, [r2, r3, lsl #2]
 779 0018 FA79     		ldrb	r2, [r7, #7]	@ zero_extendqisi2
 780 001a 0749     		ldr	r1, .L36
 781 001c 51F82220 		ldr	r2, [r1, r2, lsl #2]
 782 0020 1178     		ldrb	r1, [r2]	@ zero_extendqisi2
 783 0022 FA79     		ldrb	r2, [r7, #7]	@ zero_extendqisi2
 784 0024 0548     		ldr	r0, .L36+4
 785 0026 825C     		ldrb	r2, [r0, r2]	@ zero_extendqisi2
 786 0028 0A43     		orrs	r2, r2, r1
 787 002a D2B2     		uxtb	r2, r2
 788 002c 1A70     		strb	r2, [r3]
 789              	.L34:
 567:.\Generated_Source\PSoC5/cyfitter_cfg.c **** 	}
 568:.\Generated_Source\PSoC5/cyfitter_cfg.c **** }
 790              		.loc 1 568 0
 791 002e 0C37     		adds	r7, r7, #12
 792              		.cfi_def_cfa_offset 4
ARM GAS  C:\Users\Rolando\AppData\Local\Temp\ccwhT7XD.s 			page 25


 793 0030 BD46     		mov	sp, r7
 794              		.cfi_def_cfa_register 13
 795              		@ sp needed
 796 0032 5DF8047B 		ldr	r7, [sp], #4
 797              		.cfi_restore 7
 798              		.cfi_def_cfa_offset 0
 799 0036 7047     		bx	lr
 800              	.L37:
 801              		.align	2
 802              	.L36:
 803 0038 00000000 		.word	ADC_AMux__addrTable
 804 003c 00000000 		.word	ADC_AMux__maskTable
 805              		.cfi_endproc
 806              	.LFE8:
 807              		.size	ADC_AMux_Set, .-ADC_AMux_Set
 808              		.section	.text.ADC_AMux_Unset,"ax",%progbits
 809              		.align	2
 810              		.global	ADC_AMux_Unset
 811              		.thumb
 812              		.thumb_func
 813              		.type	ADC_AMux_Unset, %function
 814              	ADC_AMux_Unset:
 815              	.LFB9:
 569:.\Generated_Source\PSoC5/cyfitter_cfg.c **** 
 570:.\Generated_Source\PSoC5/cyfitter_cfg.c **** /*******************************************************************************
 571:.\Generated_Source\PSoC5/cyfitter_cfg.c **** * Function Name: ADC_AMux_Unset
 572:.\Generated_Source\PSoC5/cyfitter_cfg.c **** ********************************************************************************
 573:.\Generated_Source\PSoC5/cyfitter_cfg.c **** * Summary:
 574:.\Generated_Source\PSoC5/cyfitter_cfg.c **** *  This function is used to clear a particular channel from being active on the
 575:.\Generated_Source\PSoC5/cyfitter_cfg.c **** *  AMux.
 576:.\Generated_Source\PSoC5/cyfitter_cfg.c **** *
 577:.\Generated_Source\PSoC5/cyfitter_cfg.c **** * Parameters:  
 578:.\Generated_Source\PSoC5/cyfitter_cfg.c **** *   channel - The mux channel input to mark inactive
 579:.\Generated_Source\PSoC5/cyfitter_cfg.c **** *
 580:.\Generated_Source\PSoC5/cyfitter_cfg.c **** * Return:
 581:.\Generated_Source\PSoC5/cyfitter_cfg.c **** *   void
 582:.\Generated_Source\PSoC5/cyfitter_cfg.c **** *
 583:.\Generated_Source\PSoC5/cyfitter_cfg.c **** *******************************************************************************/
 584:.\Generated_Source\PSoC5/cyfitter_cfg.c **** void ADC_AMux_Unset(uint8 channel)
 585:.\Generated_Source\PSoC5/cyfitter_cfg.c **** {
 816              		.loc 1 585 0
 817              		.cfi_startproc
 818              		@ args = 0, pretend = 0, frame = 8
 819              		@ frame_needed = 1, uses_anonymous_args = 0
 820              		@ link register save eliminated.
 821 0000 80B4     		push	{r7}
 822              		.cfi_def_cfa_offset 4
 823              		.cfi_offset 7, -4
 824 0002 83B0     		sub	sp, sp, #12
 825              		.cfi_def_cfa_offset 16
 826 0004 00AF     		add	r7, sp, #0
 827              		.cfi_def_cfa_register 7
 828 0006 0346     		mov	r3, r0
 829 0008 FB71     		strb	r3, [r7, #7]
 586:.\Generated_Source\PSoC5/cyfitter_cfg.c **** 	if (channel < 2)
 830              		.loc 1 586 0
 831 000a FB79     		ldrb	r3, [r7, #7]	@ zero_extendqisi2
ARM GAS  C:\Users\Rolando\AppData\Local\Temp\ccwhT7XD.s 			page 26


 832 000c 012B     		cmp	r3, #1
 833 000e 10D8     		bhi	.L38
 587:.\Generated_Source\PSoC5/cyfitter_cfg.c **** 	{
 588:.\Generated_Source\PSoC5/cyfitter_cfg.c **** 		*ADC_AMux__addrTable[channel] &= (uint8)~ADC_AMux__maskTable[channel];
 834              		.loc 1 588 0
 835 0010 FB79     		ldrb	r3, [r7, #7]	@ zero_extendqisi2
 836 0012 0A4A     		ldr	r2, .L40
 837 0014 52F82330 		ldr	r3, [r2, r3, lsl #2]
 838 0018 FA79     		ldrb	r2, [r7, #7]	@ zero_extendqisi2
 839 001a 0849     		ldr	r1, .L40
 840 001c 51F82220 		ldr	r2, [r1, r2, lsl #2]
 841 0020 1178     		ldrb	r1, [r2]	@ zero_extendqisi2
 842 0022 FA79     		ldrb	r2, [r7, #7]	@ zero_extendqisi2
 843 0024 0648     		ldr	r0, .L40+4
 844 0026 825C     		ldrb	r2, [r0, r2]	@ zero_extendqisi2
 845 0028 D243     		mvns	r2, r2
 846 002a D2B2     		uxtb	r2, r2
 847 002c 0A40     		ands	r2, r2, r1
 848 002e D2B2     		uxtb	r2, r2
 849 0030 1A70     		strb	r2, [r3]
 850              	.L38:
 589:.\Generated_Source\PSoC5/cyfitter_cfg.c **** 	}
 590:.\Generated_Source\PSoC5/cyfitter_cfg.c **** }
 851              		.loc 1 590 0
 852 0032 0C37     		adds	r7, r7, #12
 853              		.cfi_def_cfa_offset 4
 854 0034 BD46     		mov	sp, r7
 855              		.cfi_def_cfa_register 13
 856              		@ sp needed
 857 0036 5DF8047B 		ldr	r7, [sp], #4
 858              		.cfi_restore 7
 859              		.cfi_def_cfa_offset 0
 860 003a 7047     		bx	lr
 861              	.L41:
 862              		.align	2
 863              	.L40:
 864 003c 00000000 		.word	ADC_AMux__addrTable
 865 0040 00000000 		.word	ADC_AMux__maskTable
 866              		.cfi_endproc
 867              	.LFE9:
 868              		.size	ADC_AMux_Unset, .-ADC_AMux_Unset
 869              		.section	.text.cyfitter_cfg,"ax",%progbits
 870              		.align	2
 871              		.global	cyfitter_cfg
 872              		.thumb
 873              		.thumb_func
 874              		.type	cyfitter_cfg, %function
 875              	cyfitter_cfg:
 876              	.LFB10:
 591:.\Generated_Source\PSoC5/cyfitter_cfg.c **** 
 592:.\Generated_Source\PSoC5/cyfitter_cfg.c **** 
 593:.\Generated_Source\PSoC5/cyfitter_cfg.c **** 
 594:.\Generated_Source\PSoC5/cyfitter_cfg.c **** /*******************************************************************************
 595:.\Generated_Source\PSoC5/cyfitter_cfg.c **** * Function Name: cyfitter_cfg
 596:.\Generated_Source\PSoC5/cyfitter_cfg.c **** ********************************************************************************
 597:.\Generated_Source\PSoC5/cyfitter_cfg.c **** * Summary:
 598:.\Generated_Source\PSoC5/cyfitter_cfg.c **** *  This function is called by the start-up code for the selected device. It
ARM GAS  C:\Users\Rolando\AppData\Local\Temp\ccwhT7XD.s 			page 27


 599:.\Generated_Source\PSoC5/cyfitter_cfg.c **** *  performs all of the necessary device configuration based on the design
 600:.\Generated_Source\PSoC5/cyfitter_cfg.c **** *  settings.  This includes settings from the Design Wide Resources (DWR) such
 601:.\Generated_Source\PSoC5/cyfitter_cfg.c **** *  as Clocks and Pins as well as any component configuration that is necessary.
 602:.\Generated_Source\PSoC5/cyfitter_cfg.c **** *
 603:.\Generated_Source\PSoC5/cyfitter_cfg.c **** * Parameters:  
 604:.\Generated_Source\PSoC5/cyfitter_cfg.c **** *   void
 605:.\Generated_Source\PSoC5/cyfitter_cfg.c **** *
 606:.\Generated_Source\PSoC5/cyfitter_cfg.c **** * Return:
 607:.\Generated_Source\PSoC5/cyfitter_cfg.c **** *   void
 608:.\Generated_Source\PSoC5/cyfitter_cfg.c **** *
 609:.\Generated_Source\PSoC5/cyfitter_cfg.c **** *******************************************************************************/
 610:.\Generated_Source\PSoC5/cyfitter_cfg.c **** 
 611:.\Generated_Source\PSoC5/cyfitter_cfg.c **** void cyfitter_cfg(void)
 612:.\Generated_Source\PSoC5/cyfitter_cfg.c **** {
 877              		.loc 1 612 0
 878              		.cfi_startproc
 879              		@ args = 0, pretend = 0, frame = 0
 880              		@ frame_needed = 1, uses_anonymous_args = 0
 881 0000 80B5     		push	{r7, lr}
 882              		.cfi_def_cfa_offset 8
 883              		.cfi_offset 7, -8
 884              		.cfi_offset 14, -4
 885 0002 00AF     		add	r7, sp, #0
 886              		.cfi_def_cfa_register 7
 613:.\Generated_Source\PSoC5/cyfitter_cfg.c **** #ifdef CYGlobalIntDisable
 614:.\Generated_Source\PSoC5/cyfitter_cfg.c **** 	/* Disable interrupts by default. Let user enable if/when they want. */
 615:.\Generated_Source\PSoC5/cyfitter_cfg.c **** 	CYGlobalIntDisable
 887              		.loc 1 615 0
 888              	@ 615 ".\Generated_Source\PSoC5\cyfitter_cfg.c" 1
 889 0004 72B6     		CPSID   i
 890              	@ 0 "" 2
 616:.\Generated_Source\PSoC5/cyfitter_cfg.c **** #endif
 617:.\Generated_Source\PSoC5/cyfitter_cfg.c **** 
 618:.\Generated_Source\PSoC5/cyfitter_cfg.c **** 	{
 619:.\Generated_Source\PSoC5/cyfitter_cfg.c **** 		cfg_dma_init();
 891              		.loc 1 619 0
 892              		.thumb
 893 0006 FFF7FEFF 		bl	cfg_dma_init
 620:.\Generated_Source\PSoC5/cyfitter_cfg.c **** 
 621:.\Generated_Source\PSoC5/cyfitter_cfg.c **** 		/* Perform normal device configuration. Order is not critical for these items. */
 622:.\Generated_Source\PSoC5/cyfitter_cfg.c **** 		CY_SET_XTND_REG8((void CYFAR *)(CYREG_DSM0_CR3), 0x0Au);
 894              		.loc 1 622 0
 895 000a 244B     		ldr	r3, .L43
 896 000c 0A22     		movs	r2, #10
 897 000e 1A70     		strb	r2, [r3]
 623:.\Generated_Source\PSoC5/cyfitter_cfg.c **** 
 624:.\Generated_Source\PSoC5/cyfitter_cfg.c **** 		/* Enable digital routing */
 625:.\Generated_Source\PSoC5/cyfitter_cfg.c **** 		CY_SET_XTND_REG8((void CYFAR *)CYREG_BCTL0_BANK_CTL, CY_GET_XTND_REG8((void CYFAR *)CYREG_BCTL0_B
 898              		.loc 1 625 0
 899 0010 234A     		ldr	r2, .L43+4
 900 0012 234B     		ldr	r3, .L43+4
 901 0014 1B78     		ldrb	r3, [r3]
 902 0016 DBB2     		uxtb	r3, r3
 903 0018 43F00203 		orr	r3, r3, #2
 904 001c DBB2     		uxtb	r3, r3
 905 001e 1370     		strb	r3, [r2]
 626:.\Generated_Source\PSoC5/cyfitter_cfg.c **** 		CY_SET_XTND_REG8((void CYFAR *)CYREG_BCTL1_BANK_CTL, CY_GET_XTND_REG8((void CYFAR *)CYREG_BCTL1_B
ARM GAS  C:\Users\Rolando\AppData\Local\Temp\ccwhT7XD.s 			page 28


 906              		.loc 1 626 0
 907 0020 204A     		ldr	r2, .L43+8
 908 0022 204B     		ldr	r3, .L43+8
 909 0024 1B78     		ldrb	r3, [r3]
 910 0026 DBB2     		uxtb	r3, r3
 911 0028 43F00203 		orr	r3, r3, #2
 912 002c DBB2     		uxtb	r3, r3
 913 002e 1370     		strb	r3, [r2]
 627:.\Generated_Source\PSoC5/cyfitter_cfg.c **** 
 628:.\Generated_Source\PSoC5/cyfitter_cfg.c **** 		/* Enable UDB array */
 629:.\Generated_Source\PSoC5/cyfitter_cfg.c **** 		CY_SET_XTND_REG8((void CYFAR *)CYREG_PM_ACT_CFG0, CY_GET_XTND_REG8((void CYFAR *)CYREG_PM_ACT_CFG
 914              		.loc 1 629 0
 915 0030 1D4A     		ldr	r2, .L43+12
 916 0032 1D4B     		ldr	r3, .L43+12
 917 0034 1B78     		ldrb	r3, [r3]
 918 0036 DBB2     		uxtb	r3, r3
 919 0038 43F04003 		orr	r3, r3, #64
 920 003c DBB2     		uxtb	r3, r3
 921 003e 1370     		strb	r3, [r2]
 630:.\Generated_Source\PSoC5/cyfitter_cfg.c **** 		CY_SET_XTND_REG8((void CYFAR *)CYREG_PM_AVAIL_CR2, CY_GET_XTND_REG8((void CYFAR *)CYREG_PM_AVAIL_
 922              		.loc 1 630 0
 923 0040 1A4A     		ldr	r2, .L43+16
 924 0042 1A4B     		ldr	r3, .L43+16
 925 0044 1B78     		ldrb	r3, [r3]
 926 0046 DBB2     		uxtb	r3, r3
 927 0048 43F01003 		orr	r3, r3, #16
 928 004c DBB2     		uxtb	r3, r3
 929 004e 1370     		strb	r3, [r2]
 631:.\Generated_Source\PSoC5/cyfitter_cfg.c **** 	}
 632:.\Generated_Source\PSoC5/cyfitter_cfg.c **** 
 633:.\Generated_Source\PSoC5/cyfitter_cfg.c **** 
 634:.\Generated_Source\PSoC5/cyfitter_cfg.c **** 	/* Perform second pass device configuration. These items must be configured in specific order afte
 635:.\Generated_Source\PSoC5/cyfitter_cfg.c **** 	CYCONFIGCPY((void CYFAR *)(CYREG_PRT2_DM0), (const void CYFAR *)(BS_IOPINS0_2_VAL), 8u);
 930              		.loc 1 635 0
 931 0050 1748     		ldr	r0, .L43+20
 932 0052 1849     		ldr	r1, .L43+24
 933 0054 0822     		movs	r2, #8
 934 0056 FFF7FEFF 		bl	CYCONFIGCPY
 636:.\Generated_Source\PSoC5/cyfitter_cfg.c **** 	CYCONFIGCPY((void CYFAR *)(CYREG_PRT6_DM0), (const void CYFAR *)(BS_IOPINS0_6_VAL), 8u);
 935              		.loc 1 636 0
 936 005a 1748     		ldr	r0, .L43+28
 937 005c 1749     		ldr	r1, .L43+32
 938 005e 0822     		movs	r2, #8
 939 0060 FFF7FEFF 		bl	CYCONFIGCPY
 637:.\Generated_Source\PSoC5/cyfitter_cfg.c **** 	/* Switch Boost to the precision bandgap reference from its internal reference */
 638:.\Generated_Source\PSoC5/cyfitter_cfg.c **** 	CY_SET_REG8((void CYXDATA *)CYREG_BOOST_CR2, (CY_GET_REG8((void CYXDATA *)CYREG_BOOST_CR2) | 0x08u
 940              		.loc 1 638 0
 941 0064 164A     		ldr	r2, .L43+36
 942 0066 164B     		ldr	r3, .L43+36
 943 0068 1B78     		ldrb	r3, [r3]
 944 006a DBB2     		uxtb	r3, r3
 945 006c 43F00803 		orr	r3, r3, #8
 946 0070 DBB2     		uxtb	r3, r3
 947 0072 1370     		strb	r3, [r2]
 639:.\Generated_Source\PSoC5/cyfitter_cfg.c **** 
 640:.\Generated_Source\PSoC5/cyfitter_cfg.c **** 	/* Set Flash Cycles based on max possible frequency in case a glitch occurs during ClockSetup(). *
 641:.\Generated_Source\PSoC5/cyfitter_cfg.c **** 	CY_SET_XTND_REG8((void CYFAR *)(CYREG_CACHE_CC_CTL), (((CYDEV_INSTRUCT_CACHE_ENABLED) != 0) ? 0x01
ARM GAS  C:\Users\Rolando\AppData\Local\Temp\ccwhT7XD.s 			page 29


 948              		.loc 1 641 0
 949 0074 134B     		ldr	r3, .L43+40
 950 0076 0122     		movs	r2, #1
 951 0078 1A70     		strb	r2, [r3]
 642:.\Generated_Source\PSoC5/cyfitter_cfg.c **** 	/* Setup clocks based on selections from Clock DWR */
 643:.\Generated_Source\PSoC5/cyfitter_cfg.c **** 	ClockSetup();
 952              		.loc 1 643 0
 953 007a FFF7FEFF 		bl	ClockSetup
 644:.\Generated_Source\PSoC5/cyfitter_cfg.c **** 	/* Set Flash Cycles based on newly configured 24.00MHz Bus Clock. */
 645:.\Generated_Source\PSoC5/cyfitter_cfg.c **** 	CY_SET_XTND_REG8((void CYFAR *)(CYREG_CACHE_CC_CTL), (((CYDEV_INSTRUCT_CACHE_ENABLED) != 0) ? 0x81
 954              		.loc 1 645 0
 955 007e 114B     		ldr	r3, .L43+40
 956 0080 8122     		movs	r2, #129
 957 0082 1A70     		strb	r2, [r3]
 646:.\Generated_Source\PSoC5/cyfitter_cfg.c **** 	CY_SET_XTND_REG8((void CYFAR *)(CYREG_PANTHER_WAITPIPE), 0x01u);
 958              		.loc 1 646 0
 959 0084 104B     		ldr	r3, .L43+44
 960 0086 0122     		movs	r2, #1
 961 0088 1A70     		strb	r2, [r3]
 647:.\Generated_Source\PSoC5/cyfitter_cfg.c **** 
 648:.\Generated_Source\PSoC5/cyfitter_cfg.c **** 	/* Perform basic analog initialization to defaults */
 649:.\Generated_Source\PSoC5/cyfitter_cfg.c **** 	AnalogSetDefault();
 962              		.loc 1 649 0
 963 008a FFF7FEFF 		bl	AnalogSetDefault
 650:.\Generated_Source\PSoC5/cyfitter_cfg.c **** 
 651:.\Generated_Source\PSoC5/cyfitter_cfg.c **** 	/* Configure alternate active mode */
 652:.\Generated_Source\PSoC5/cyfitter_cfg.c **** 	CYCONFIGCPY((void CYFAR *)CYDEV_PM_STBY_BASE, (const void CYFAR *)CYDEV_PM_ACT_BASE, 14u);
 964              		.loc 1 652 0
 965 008e 0F48     		ldr	r0, .L43+48
 966 0090 0549     		ldr	r1, .L43+12
 967 0092 0E22     		movs	r2, #14
 968 0094 FFF7FEFF 		bl	CYCONFIGCPY
 653:.\Generated_Source\PSoC5/cyfitter_cfg.c **** }
 969              		.loc 1 653 0
 970 0098 80BD     		pop	{r7, pc}
 971              	.L44:
 972 009a 00BF     		.align	2
 973              	.L43:
 974 009c 83580040 		.word	1073764483
 975 00a0 03500140 		.word	1073827843
 976 00a4 13500140 		.word	1073827859
 977 00a8 A0430040 		.word	1073759136
 978 00ac C2430040 		.word	1073759170
 979 00b0 22510040 		.word	1073762594
 980 00b4 00080048 		.word	1207961600
 981 00b8 62510040 		.word	1073762658
 982 00bc 08080048 		.word	1207961608
 983 00c0 22430040 		.word	1073759010
 984 00c4 00480040 		.word	1073760256
 985 00c8 04000840 		.word	1074266116
 986 00cc B0430040 		.word	1073759152
 987              		.cfi_endproc
 988              	.LFE10:
 989              		.size	cyfitter_cfg, .-cyfitter_cfg
 990              		.bss
 991              		.align	3
 992              	DMA_ZERO_VAL.4809:
ARM GAS  C:\Users\Rolando\AppData\Local\Temp\ccwhT7XD.s 			page 30


 993 0000 00000000 		.space	4
 994 0004 00000000 		.section	.dma_init,"a",%progbits
 995              		.align	2
 996              		.type	CFG_TD_LIST0.4810, %object
 997              		.size	CFG_TD_LIST0.4810, 304
 998              	CFG_TD_LIST0.4810:
 999 0000 0800     		.short	8
 1000 0002 02       		.byte	2
 1001 0003 23       		.byte	35
 1002 0004 0000     		.short	0
 1003 0006 0876     		.short	30216
 1004 0008 0800     		.short	8
 1005 000a 03       		.byte	3
 1006 000b 23       		.byte	35
 1007 000c 0000     		.short	0
 1008 000e 1076     		.short	30224
 1009 0010 0800     		.short	8
 1010 0012 04       		.byte	4
 1011 0013 23       		.byte	35
 1012 0014 0000     		.short	0
 1013 0016 3076     		.short	30256
 1014 0018 0500     		.short	5
 1015 001a 05       		.byte	5
 1016 001b 23       		.byte	35
 1017 001c 0000     		.short	0
 1018 001e 2070     		.short	28704
 1019 0020 0500     		.short	5
 1020 0022 06       		.byte	6
 1021 0023 23       		.byte	35
 1022 0024 0000     		.short	0
 1023 0026 3070     		.short	28720
 1024 0028 0500     		.short	5
 1025 002a FE       		.byte	-2
 1026 002b 23       		.byte	35
 1027 002c 0000     		.short	0
 1028 002e 7070     		.short	28784
 1029 0030 2000     		.short	32
 1030 0032 08       		.byte	8
 1031 0033 22       		.byte	34
 1032 0034 0000     		.short	0
 1033 0036 0051     		.short	20736
 1034 0038 3000     		.short	48
 1035 003a 09       		.byte	9
 1036 003b 22       		.byte	34
 1037 003c 0000     		.short	0
 1038 003e 3051     		.short	20784
 1039 0040 1000     		.short	16
 1040 0042 0A       		.byte	10
 1041 0043 22       		.byte	34
 1042 0044 0000     		.short	0
 1043 0046 C051     		.short	20928
 1044 0048 1000     		.short	16
 1045 004a FE       		.byte	-2
 1046 004b 22       		.byte	34
 1047 004c 0000     		.short	0
 1048 004e F051     		.short	20976
 1049 0050 8009     		.short	2432
ARM GAS  C:\Users\Rolando\AppData\Local\Temp\ccwhT7XD.s 			page 31


 1050 0052 0C       		.byte	12
 1051 0053 22       		.byte	34
 1052 0054 0000     		.short	0
 1053 0056 0000     		.short	0
 1054 0058 8000     		.short	128
 1055 005a 0D       		.byte	13
 1056 005b 22       		.byte	34
 1057 005c 0000     		.short	0
 1058 005e 000A     		.short	2560
 1059 0060 8004     		.short	1152
 1060 0062 0E       		.byte	14
 1061 0063 22       		.byte	34
 1062 0064 0000     		.short	0
 1063 0066 800B     		.short	2944
 1064 0068 8001     		.short	384
 1065 006a 0F       		.byte	15
 1066 006b 22       		.byte	34
 1067 006c 0000     		.short	0
 1068 006e 0014     		.short	5120
 1069 0070 8005     		.short	1408
 1070 0072 10       		.byte	16
 1071 0073 22       		.byte	34
 1072 0074 0000     		.short	0
 1073 0076 0016     		.short	5632
 1074 0078 0004     		.short	1024
 1075 007a 11       		.byte	17
 1076 007b 22       		.byte	34
 1077 007c 0000     		.short	0
 1078 007e 0040     		.short	16384
 1079 0080 8000     		.short	128
 1080 0082 12       		.byte	18
 1081 0083 22       		.byte	34
 1082 0084 0000     		.short	0
 1083 0086 0045     		.short	17664
 1084 0088 8000     		.short	128
 1085 008a 13       		.byte	19
 1086 008b 22       		.byte	34
 1087 008c 0000     		.short	0
 1088 008e 0047     		.short	18176
 1089 0090 8000     		.short	128
 1090 0092 14       		.byte	20
 1091 0093 22       		.byte	34
 1092 0094 0000     		.short	0
 1093 0096 0049     		.short	18688
 1094 0098 8000     		.short	128
 1095 009a 15       		.byte	21
 1096 009b 22       		.byte	34
 1097 009c 0000     		.short	0
 1098 009e 004C     		.short	19456
 1099 00a0 8000     		.short	128
 1100 00a2 16       		.byte	22
 1101 00a3 22       		.byte	34
 1102 00a4 0000     		.short	0
 1103 00a6 004D     		.short	19712
 1104 00a8 2000     		.short	32
 1105 00aa FE       		.byte	-2
 1106 00ab 22       		.byte	34
ARM GAS  C:\Users\Rolando\AppData\Local\Temp\ccwhT7XD.s 			page 32


 1107 00ac 0000     		.short	0
 1108 00ae 0050     		.short	20480
 1109 00b0 8000     		.short	128
 1110 00b2 18       		.byte	24
 1111 00b3 23       		.byte	35
 1112 00b4 0000     		.short	0
 1113 00b6 800A     		.short	2688
 1114 00b8 8000     		.short	128
 1115 00ba 19       		.byte	25
 1116 00bb 23       		.byte	35
 1117 00bc 0000     		.short	0
 1118 00be 804D     		.short	19840
 1119 00c0 8000     		.short	128
 1120 00c2 1A       		.byte	26
 1121 00c3 23       		.byte	35
 1122 00c4 0000     		.short	0
 1123 00c6 804C     		.short	19584
 1124 00c8 8000     		.short	128
 1125 00ca 1B       		.byte	27
 1126 00cb 23       		.byte	35
 1127 00cc 0000     		.short	0
 1128 00ce 8047     		.short	18304
 1129 00d0 8000     		.short	128
 1130 00d2 1C       		.byte	28
 1131 00d3 23       		.byte	35
 1132 00d4 0000     		.short	0
 1133 00d6 0046     		.short	17920
 1134 00d8 8000     		.short	128
 1135 00da 1D       		.byte	29
 1136 00db 23       		.byte	35
 1137 00dc 0000     		.short	0
 1138 00de 8046     		.short	18048
 1139 00e0 8000     		.short	128
 1140 00e2 1E       		.byte	30
 1141 00e3 23       		.byte	35
 1142 00e4 0000     		.short	0
 1143 00e6 8045     		.short	17792
 1144 00e8 8000     		.short	128
 1145 00ea 1F       		.byte	31
 1146 00eb 23       		.byte	35
 1147 00ec 0000     		.short	0
 1148 00ee 0044     		.short	17408
 1149 00f0 8000     		.short	128
 1150 00f2 20       		.byte	32
 1151 00f3 23       		.byte	35
 1152 00f4 0000     		.short	0
 1153 00f6 8044     		.short	17536
 1154 00f8 8000     		.short	128
 1155 00fa 21       		.byte	33
 1156 00fb 23       		.byte	35
 1157 00fc 0000     		.short	0
 1158 00fe 801B     		.short	7040
 1159 0100 8000     		.short	128
 1160 0102 22       		.byte	34
 1161 0103 23       		.byte	35
 1162 0104 0000     		.short	0
 1163 0106 8015     		.short	5504
ARM GAS  C:\Users\Rolando\AppData\Local\Temp\ccwhT7XD.s 			page 33


 1164 0108 8000     		.short	128
 1165 010a 23       		.byte	35
 1166 010b 23       		.byte	35
 1167 010c 0000     		.short	0
 1168 010e 8009     		.short	2432
 1169 0110 8000     		.short	128
 1170 0112 24       		.byte	36
 1171 0113 23       		.byte	35
 1172 0114 0000     		.short	0
 1173 0116 000B     		.short	2816
 1174 0118 8000     		.short	128
 1175 011a 25       		.byte	37
 1176 011b 23       		.byte	35
 1177 011c 0000     		.short	0
 1178 011e 8049     		.short	18816
 1179 0120 8000     		.short	128
 1180 0122 26       		.byte	38
 1181 0123 23       		.byte	35
 1182 0124 0000     		.short	0
 1183 0126 0048     		.short	18432
 1184 0128 8000     		.short	128
 1185 012a FE       		.byte	-2
 1186 012b 23       		.byte	35
 1187 012c 0000     		.short	0
 1188 012e 8048     		.short	18560
 1189              		.section	.rodata
 1190 000a 0000     		.align	2
 1191              		.type	CFG_TD_ADDR0.4811, %object
 1192              		.size	CFG_TD_ADDR0.4811, 152
 1193              	CFG_TD_ADDR0.4811:
 1194 000c 48010000 		.word	CH1_ADDR_DATA0.4805
 1195 0010 40010000 		.word	CH2_ADDR_DATA0.4806
 1196 0014 38010000 		.word	CH6_ADDR_DATA0.4807
 1197 0018 30010000 		.word	DMA_TD_START_CMD.4808
 1198 001c 30010000 		.word	DMA_TD_START_CMD.4808
 1199 0020 30010000 		.word	DMA_TD_START_CMD.4808
 1200 0024 00000000 		.word	DMA_ZERO_VAL.4809
 1201 0028 00000000 		.word	DMA_ZERO_VAL.4809
 1202 002c 00000000 		.word	DMA_ZERO_VAL.4809
 1203 0030 00000000 		.word	DMA_ZERO_VAL.4809
 1204 0034 00000000 		.word	DMA_ZERO_VAL.4809
 1205 0038 00000000 		.word	DMA_ZERO_VAL.4809
 1206 003c 00000000 		.word	DMA_ZERO_VAL.4809
 1207 0040 00000000 		.word	DMA_ZERO_VAL.4809
 1208 0044 00000000 		.word	DMA_ZERO_VAL.4809
 1209 0048 00000000 		.word	DMA_ZERO_VAL.4809
 1210 004c 00000000 		.word	DMA_ZERO_VAL.4809
 1211 0050 00000000 		.word	DMA_ZERO_VAL.4809
 1212 0054 00000000 		.word	DMA_ZERO_VAL.4809
 1213 0058 00000000 		.word	DMA_ZERO_VAL.4809
 1214 005c 00000000 		.word	DMA_ZERO_VAL.4809
 1215 0060 00000000 		.word	DMA_ZERO_VAL.4809
 1216 0064 00000048 		.word	1207959552
 1217 0068 80000048 		.word	1207959680
 1218 006c 00010048 		.word	1207959808
 1219 0070 80010048 		.word	1207959936
 1220 0074 00020048 		.word	1207960064
ARM GAS  C:\Users\Rolando\AppData\Local\Temp\ccwhT7XD.s 			page 34


 1221 0078 80020048 		.word	1207960192
 1222 007c 00030048 		.word	1207960320
 1223 0080 80030048 		.word	1207960448
 1224 0084 00040048 		.word	1207960576
 1225 0088 80040048 		.word	1207960704
 1226 008c 00050048 		.word	1207960832
 1227 0090 80050048 		.word	1207960960
 1228 0094 00060048 		.word	1207961088
 1229 0098 80060048 		.word	1207961216
 1230 009c 00070048 		.word	1207961344
 1231 00a0 80070048 		.word	1207961472
 1232              		.section	.dma_init
 1233              		.align	2
 1234              		.type	DMA_TD_START_CMD.4808, %object
 1235              		.size	DMA_TD_START_CMD.4808, 5
 1236              	DMA_TD_START_CMD.4808:
 1237 0130 01       		.byte	1
 1238 0131 00       		.byte	0
 1239 0132 00       		.byte	0
 1240 0133 00       		.byte	0
 1241 0134 01       		.byte	1
 1242 0135 000000   		.align	2
 1243              		.type	CH6_ADDR_DATA0.4807, %object
 1244              		.size	CH6_ADDR_DATA0.4807, 8
 1245              	CH6_ADDR_DATA0.4807:
 1246 0138 01       		.byte	1
 1247 0139 00       		.byte	0
 1248 013a 00       		.byte	0
 1249 013b 00       		.byte	0
 1250 013c 00       		.byte	0
 1251 013d 48       		.byte	72
 1252 013e 01       		.byte	1
 1253 013f 40       		.byte	64
 1254              		.align	2
 1255              		.type	CH2_ADDR_DATA0.4806, %object
 1256              		.size	CH2_ADDR_DATA0.4806, 8
 1257              	CH2_ADDR_DATA0.4806:
 1258 0140 01       		.byte	1
 1259 0141 00       		.byte	0
 1260 0142 00       		.byte	0
 1261 0143 00       		.byte	0
 1262 0144 00       		.byte	0
 1263 0145 20       		.byte	32
 1264 0146 01       		.byte	1
 1265 0147 40       		.byte	64
 1266              		.align	2
 1267              		.type	CH1_ADDR_DATA0.4805, %object
 1268              		.size	CH1_ADDR_DATA0.4805, 8
 1269              	CH1_ADDR_DATA0.4805:
 1270 0148 01       		.byte	1
 1271 0149 00       		.byte	0
 1272 014a 00       		.byte	0
 1273 014b 00       		.byte	0
 1274 014c 00       		.byte	0
 1275 014d 20       		.byte	32
 1276 014e 00       		.byte	0
 1277 014f 40       		.byte	64
ARM GAS  C:\Users\Rolando\AppData\Local\Temp\ccwhT7XD.s 			page 35


 1278              		.text
 1279              	.Letext0:
 1280              		.file 2 "c:\\program files (x86)\\cypress\\psoc creator\\3.3\\psoc creator\\import\\gnu\\arm\\4.9.
 1281              		.file 3 ".\\Generated_Source\\PSoC5\\cytypes.h"