ARM GAS  C:\Users\Rolando\AppData\Local\Temp\cc6ofmB9.s 			page 1


   1              		.syntax unified
   2              		.cpu cortex-m3
   3              		.fpu softvfp
   4              		.eabi_attribute 20, 1
   5              		.eabi_attribute 21, 1
   6              		.eabi_attribute 23, 3
   7              		.eabi_attribute 24, 1
   8              		.eabi_attribute 25, 1
   9              		.eabi_attribute 26, 1
  10              		.eabi_attribute 30, 6
  11              		.eabi_attribute 34, 1
  12              		.eabi_attribute 18, 4
  13              		.thumb
  14              		.file	"main.c"
  15              		.text
  16              	.Ltext0:
  17              		.cfi_sections	.debug_frame
  18              		.section	.rodata
  19              		.align	2
  20              	.LC0:
  21 0000 41444320 		.ascii	"ADC input volt\000"
  21      696E7075 
  21      7420766F 
  21      6C7400
  22 000f 00       		.align	2
  23              	.LC1:
  24 0010 25376C64 		.ascii	"%7ld\000"
  24      00
  25 0015 000000   		.section	.text.main,"ax",%progbits
  26              		.align	2
  27              		.global	main
  28              		.thumb
  29              		.thumb_func
  30              		.type	main, %function
  31              	main:
  32              	.LFB56:
  33              		.file 1 ".\\main.c"
   1:.\main.c      **** ﻿/******************************************************************************
   2:.\main.c      **** * File Name: Main.c
   3:.\main.c      **** *
   4:.\main.c      **** * Version 1.1
   5:.\main.c      **** *
   6:.\main.c      **** * Description:
   7:.\main.c      **** * This file contains the main function for the voltage Display test.
   8:.\main.c      **** *
   9:.\main.c      **** * Note:
  10:.\main.c      **** *
  11:.\main.c      **** * Code tested with:
  12:.\main.c      **** * PSoC Creator: 3.0
  13:.\main.c      **** * Device Tested With: CY8C5868AXI-LP035
  14:.\main.c      **** * Compiler    : ARMGCC 4.4.1, ARM RVDS Generic, ARM MDK Generic
  15:.\main.c      **** *
  16:.\main.c      **** ********************************************************************************
  17:.\main.c      **** * Copyright (2013), Cypress Semiconductor Corporation. All Rights Reserved.
  18:.\main.c      **** ********************************************************************************
  19:.\main.c      **** * This software is owned by Cypress Semiconductor Corporation (Cypress)
  20:.\main.c      **** * and is protected by and subject to worldwide patent protection (United
ARM GAS  C:\Users\Rolando\AppData\Local\Temp\cc6ofmB9.s 			page 2


  21:.\main.c      **** * States and foreign), United States copyright laws and international treaty
  22:.\main.c      **** * provisions. Cypress hereby grants to licensee a personal, non-exclusive,
  23:.\main.c      **** * non-transferable license to copy, use, modify, create derivative works of,
  24:.\main.c      **** * and compile the Cypress Source Code and derivative works for the sole
  25:.\main.c      **** * purpose of creating custom software in support of licensee product to be
  26:.\main.c      **** * used only in conjunction with a Cypress integrated circuit as specified in
  27:.\main.c      **** * the applicable agreement. Any reproduction, modification, translation,
  28:.\main.c      **** * compilation, or representation of this software except as specified above 
  29:.\main.c      **** * is prohibited without the express written permission of Cypress.
  30:.\main.c      **** *
  31:.\main.c      **** * Disclaimer: CYPRESS MAKES NO WARRANTY OF ANY KIND, EXPRESS OR IMPLIED, WITH 
  32:.\main.c      **** * REGARD TO THIS MATERIAL, INCLUDING, BUT NOT LIMITED TO, THE IMPLIED 
  33:.\main.c      **** * WARRANTIES OF MERCHANTABILITY AND FITNESS FOR A PARTICULAR PURPOSE.
  34:.\main.c      **** * Cypress reserves the right to make changes without further notice to the 
  35:.\main.c      **** * materials described herein. Cypress does not assume any liability arising out 
  36:.\main.c      **** * of the application or use of any product or circuit described herein. Cypress 
  37:.\main.c      **** * does not authorize its products for use as critical components in life-support 
  38:.\main.c      **** * systems where a malfunction or failure may reasonably be expected to result in 
  39:.\main.c      **** * significant injury to the user. The inclusion of Cypress' product in a life-
  40:.\main.c      **** * support systems application implies that the manufacturer assumes all risk of 
  41:.\main.c      **** * such use and in doing so indemnifies Cypress against all charges. 
  42:.\main.c      **** *
  43:.\main.c      **** * Use of this Software may be limited by and subject to the applicable Cypress
  44:.\main.c      **** * software license agreement. 
  45:.\main.c      **** *******************************************************************************/
  46:.\main.c      **** 
  47:.\main.c      **** /******************************************************************************
  48:.\main.c      **** *                           THEORY OF OPERATION
  49:.\main.c      **** * This project demonstrates how ADC is used to read the input voltage at 
  50:.\main.c      **** * it's input and display it on the LCD.
  51:.\main.c      **** * 
  52:.\main.c      **** * The Potentiometer is connected to the input of the DelSig ADC. ADC is 
  53:.\main.c      **** * configured with 20 bit of resolution to measure the input voltage with 
  54:.\main.c      **** * higher accuracy. Moving average filter of 128 samples is applied to the ADC
  55:.\main.c      **** * conversion result before displaying the result in micro volts on the LCD. 
  56:.\main.c      **** *
  57:.\main.c      **** * Hardware connection on the Kit
  58:.\main.c      **** * Potentiometer - PORT 6[5] 
  59:.\main.c      **** * LCD - PORT 2[0..6]
  60:.\main.c      **** *******************************************************************************/
  61:.\main.c      **** #include <device.h>
  62:.\main.c      **** #include "stdio.h"
  63:.\main.c      **** #include "stdlib.h"
  64:.\main.c      **** 
  65:.\main.c      **** /* Number of samples to be taken before averaging the ADC value */
  66:.\main.c      **** #define MAX_SAMPLE                  ((uint8)128)
  67:.\main.c      **** 
  68:.\main.c      **** /* Threshold value to reset the filter for sharp change in signal */
  69:.\main.c      **** #define SIGNAL_SLOPE                1000
  70:.\main.c      **** 
  71:.\main.c      **** /* Number of shifts for calculating the sum and average of MAX_SAMPLE */
  72:.\main.c      **** #define DIV                         7
  73:.\main.c      **** 
  74:.\main.c      **** int main(void)
  75:.\main.c      **** {
  34              		.loc 1 75 0
  35              		.cfi_startproc
ARM GAS  C:\Users\Rolando\AppData\Local\Temp\cc6ofmB9.s 			page 3


  36              		@ args = 0, pretend = 0, frame = 560
  37              		@ frame_needed = 1, uses_anonymous_args = 0
  38 0000 80B5     		push	{r7, lr}
  39              		.cfi_def_cfa_offset 8
  40              		.cfi_offset 7, -8
  41              		.cfi_offset 14, -4
  42 0002 ADF50C7D 		sub	sp, sp, #560
  43              		.cfi_def_cfa_offset 568
  44 0006 00AF     		add	r7, sp, #0
  45              		.cfi_def_cfa_register 7
  76:.\main.c      ****     uint8 i;
  77:.\main.c      ****     
  78:.\main.c      ****     /* Array to store ADC count for moving average filter */
  79:.\main.c      ****     int32 adcCounts[MAX_SAMPLE] = {0};
  46              		.loc 1 79 0
  47 0008 07F11403 		add	r3, r7, #20
  48 000c 1A46     		mov	r2, r3
  49 000e 4FF40073 		mov	r3, #512
  50 0012 1046     		mov	r0, r2
  51 0014 0021     		movs	r1, #0
  52 0016 1A46     		mov	r2, r3
  53 0018 FFF7FEFF 		bl	memset
  80:.\main.c      ****     
  81:.\main.c      ****     /* Variable to hold ADC conversion result */
  82:.\main.c      ****     int32 result = 0;
  54              		.loc 1 82 0
  55 001c 0023     		movs	r3, #0
  56 001e C7F81C32 		str	r3, [r7, #540]
  83:.\main.c      ****     
  84:.\main.c      ****     /* Variable to store accumulated sample for filter array */
  85:.\main.c      ****     int32 sum = 0;
  57              		.loc 1 85 0
  58 0022 0023     		movs	r3, #0
  59 0024 C7F82832 		str	r3, [r7, #552]
  86:.\main.c      ****     
  87:.\main.c      ****     /* Variable for testing sharp change in signal slope */
  88:.\main.c      ****     int16 diff = 0;
  60              		.loc 1 88 0
  61 0028 0023     		movs	r3, #0
  62 002a A7F81A32 		strh	r3, [r7, #538]	@ movhi
  89:.\main.c      ****     
  90:.\main.c      ****     /* Variable to hold the result in micro volts converted from filtered 
  91:.\main.c      ****      * ADC counts */
  92:.\main.c      ****     int32 microVolts = 0;
  63              		.loc 1 92 0
  64 002e 0023     		movs	r3, #0
  65 0030 C7F81432 		str	r3, [r7, #532]
  93:.\main.c      **** 	
  94:.\main.c      ****     /* Variable to hold the moving average filtered value */
  95:.\main.c      ****     int32 averageCounts = 0;
  66              		.loc 1 95 0
  67 0034 0023     		movs	r3, #0
  68 0036 C7F82432 		str	r3, [r7, #548]
  96:.\main.c      **** 	
  97:.\main.c      ****     /* Index variable to work on the filter array */
  98:.\main.c      ****     uint8 index = 0;
  69              		.loc 1 98 0
ARM GAS  C:\Users\Rolando\AppData\Local\Temp\cc6ofmB9.s 			page 4


  70 003a 0023     		movs	r3, #0
  71 003c 87F82332 		strb	r3, [r7, #547]
  99:.\main.c      ****     
 100:.\main.c      ****     /* Character array to hold the micro volts*/
 101:.\main.c      ****     char displayStr[15] = {'\0'};        
  72              		.loc 1 101 0
  73 0040 3B1D     		adds	r3, r7, #4
  74 0042 0022     		movs	r2, #0
  75 0044 1A60     		str	r2, [r3]
  76 0046 0433     		adds	r3, r3, #4
  77 0048 0022     		movs	r2, #0
  78 004a 1A60     		str	r2, [r3]
  79 004c 0433     		adds	r3, r3, #4
  80 004e 0022     		movs	r2, #0
  81 0050 1A60     		str	r2, [r3]
  82 0052 0433     		adds	r3, r3, #4
  83 0054 0022     		movs	r2, #0
  84 0056 1A80     		strh	r2, [r3]	@ movhi
  85 0058 0233     		adds	r3, r3, #2
  86 005a 0022     		movs	r2, #0
  87 005c 1A70     		strb	r2, [r3]
  88 005e 0133     		adds	r3, r3, #1
 102:.\main.c      **** 
 103:.\main.c      ****     CYGlobalIntEnable;
  89              		.loc 1 103 0
  90              	@ 103 ".\main.c" 1
  91 0060 62B6     		CPSIE   i
  92              	@ 0 "" 2
 104:.\main.c      **** 
 105:.\main.c      ****     /* Start ADC and start conversion */
 106:.\main.c      ****     ADC_Start();
  93              		.loc 1 106 0
  94              		.thumb
  95 0062 FFF7FEFF 		bl	ADC_Start
 107:.\main.c      ****     ADC_StartConvert();
  96              		.loc 1 107 0
  97 0066 FFF7FEFF 		bl	ADC_StartConvert
 108:.\main.c      **** 
 109:.\main.c      ****     /* Start LCD and set position */
 110:.\main.c      ****     LCD_Start();
  98              		.loc 1 110 0
  99 006a FFF7FEFF 		bl	LCD_Start
 111:.\main.c      ****     LCD_Position(0,0);
 100              		.loc 1 111 0
 101 006e 0020     		movs	r0, #0
 102 0070 0021     		movs	r1, #0
 103 0072 FFF7FEFF 		bl	LCD_Position
 112:.\main.c      ****     LCD_PrintString("ADC input volt");
 104              		.loc 1 112 0
 105 0076 5648     		ldr	r0, .L9
 106 0078 FFF7FEFF 		bl	LCD_PrintString
 113:.\main.c      **** 
 114:.\main.c      ****     /* Print µV unit on the LCD */
 115:.\main.c      ****     LCD_Position(1,8);
 107              		.loc 1 115 0
 108 007c 0120     		movs	r0, #1
 109 007e 0821     		movs	r1, #8
ARM GAS  C:\Users\Rolando\AppData\Local\Temp\cc6ofmB9.s 			page 5


 110 0080 FFF7FEFF 		bl	LCD_Position
 116:.\main.c      ****     LCD_WriteData(0xE4);
 111              		.loc 1 116 0
 112 0084 E420     		movs	r0, #228
 113 0086 FFF7FEFF 		bl	LCD_WriteData
 117:.\main.c      ****     LCD_PutChar('V');
 114              		.loc 1 117 0
 115 008a 5620     		movs	r0, #86
 116 008c FFF7FEFF 		bl	LCD_PutChar
 118:.\main.c      ****     
 119:.\main.c      ****     /* Read one sample from the ADC and initialize the filter */
 120:.\main.c      ****     ADC_IsEndConversion(ADC_WAIT_FOR_RESULT);
 117              		.loc 1 120 0
 118 0090 0020     		movs	r0, #0
 119 0092 FFF7FEFF 		bl	ADC_IsEndConversion
 121:.\main.c      ****     result = ADC_GetResult32();
 120              		.loc 1 121 0
 121 0096 FFF7FEFF 		bl	ADC_GetResult32
 122 009a C7F81C02 		str	r0, [r7, #540]
 122:.\main.c      ****     
 123:.\main.c      ****     for(i = 0; i < MAX_SAMPLE; i++)
 123              		.loc 1 123 0
 124 009e 0023     		movs	r3, #0
 125 00a0 87F82F32 		strb	r3, [r7, #559]
 126 00a4 0CE0     		b	.L2
 127              	.L3:
 124:.\main.c      ****     {
 125:.\main.c      ****         adcCounts[i] = result;
 128              		.loc 1 125 0 discriminator 3
 129 00a6 97F82F22 		ldrb	r2, [r7, #559]	@ zero_extendqisi2
 130 00aa 07F11403 		add	r3, r7, #20
 131 00ae D7F81C12 		ldr	r1, [r7, #540]
 132 00b2 43F82210 		str	r1, [r3, r2, lsl #2]
 123:.\main.c      ****     {
 133              		.loc 1 123 0 discriminator 3
 134 00b6 97F82F32 		ldrb	r3, [r7, #559]	@ zero_extendqisi2
 135 00ba 0133     		adds	r3, r3, #1
 136 00bc 87F82F32 		strb	r3, [r7, #559]
 137              	.L2:
 123:.\main.c      ****     {
 138              		.loc 1 123 0 is_stmt 0 discriminator 1
 139 00c0 97F82F32 		ldrb	r3, [r7, #559]	@ zero_extendqisi2
 140 00c4 5BB2     		sxtb	r3, r3
 141 00c6 002B     		cmp	r3, #0
 142 00c8 EDDA     		bge	.L3
 126:.\main.c      ****     }
 127:.\main.c      ****     
 128:.\main.c      ****     /* Store sum of 128 samples*/
 129:.\main.c      ****     sum = result << DIV;
 143              		.loc 1 129 0 is_stmt 1
 144 00ca D7F81C32 		ldr	r3, [r7, #540]
 145 00ce DB01     		lsls	r3, r3, #7
 146 00d0 C7F82832 		str	r3, [r7, #552]
 130:.\main.c      ****     
 131:.\main.c      ****     /* Average count is equal to one single sample for first ADC reading */
 132:.\main.c      ****     averageCounts = result;
 147              		.loc 1 132 0
ARM GAS  C:\Users\Rolando\AppData\Local\Temp\cc6ofmB9.s 			page 6


 148 00d4 D7F81C32 		ldr	r3, [r7, #540]
 149 00d8 C7F82432 		str	r3, [r7, #548]
 150              	.L8:
 133:.\main.c      ****     
 134:.\main.c      ****     while(1)
 135:.\main.c      ****     {
 136:.\main.c      ****         ADC_IsEndConversion(ADC_WAIT_FOR_RESULT);
 151              		.loc 1 136 0
 152 00dc 0020     		movs	r0, #0
 153 00de FFF7FEFF 		bl	ADC_IsEndConversion
 137:.\main.c      ****         result = ADC_GetResult32();
 154              		.loc 1 137 0
 155 00e2 FFF7FEFF 		bl	ADC_GetResult32
 156 00e6 C7F81C02 		str	r0, [r7, #540]
 138:.\main.c      ****         
 139:.\main.c      ****         diff = abs(averageCounts - result);
 157              		.loc 1 139 0
 158 00ea D7F82422 		ldr	r2, [r7, #548]
 159 00ee D7F81C32 		ldr	r3, [r7, #540]
 160 00f2 D31A     		subs	r3, r2, r3
 161 00f4 002B     		cmp	r3, #0
 162 00f6 B8BF     		it	lt
 163 00f8 5B42     		rsblt	r3, r3, #0
 164 00fa A7F81A32 		strh	r3, [r7, #538]	@ movhi
 140:.\main.c      **** 
 141:.\main.c      ****         /* If sharp change in the signal then reset the filter with the new 
 142:.\main.c      ****          * signal value */
 143:.\main.c      ****         if(diff > SIGNAL_SLOPE)
 165              		.loc 1 143 0
 166 00fe B7F91A32 		ldrsh	r3, [r7, #538]
 167 0102 B3F57A7F 		cmp	r3, #1000
 168 0106 22DD     		ble	.L4
 144:.\main.c      ****         {
 145:.\main.c      ****             for(i = 0; i < MAX_SAMPLE; i++)
 169              		.loc 1 145 0
 170 0108 0023     		movs	r3, #0
 171 010a 87F82F32 		strb	r3, [r7, #559]
 172 010e 0CE0     		b	.L5
 173              	.L6:
 146:.\main.c      ****             {
 147:.\main.c      ****                 adcCounts[i] = result;
 174              		.loc 1 147 0 discriminator 3
 175 0110 97F82F22 		ldrb	r2, [r7, #559]	@ zero_extendqisi2
 176 0114 07F11403 		add	r3, r7, #20
 177 0118 D7F81C12 		ldr	r1, [r7, #540]
 178 011c 43F82210 		str	r1, [r3, r2, lsl #2]
 145:.\main.c      ****             {
 179              		.loc 1 145 0 discriminator 3
 180 0120 97F82F32 		ldrb	r3, [r7, #559]	@ zero_extendqisi2
 181 0124 0133     		adds	r3, r3, #1
 182 0126 87F82F32 		strb	r3, [r7, #559]
 183              	.L5:
 145:.\main.c      ****             {
 184              		.loc 1 145 0 is_stmt 0 discriminator 1
 185 012a 97F82F32 		ldrb	r3, [r7, #559]	@ zero_extendqisi2
 186 012e 5BB2     		sxtb	r3, r3
 187 0130 002B     		cmp	r3, #0
ARM GAS  C:\Users\Rolando\AppData\Local\Temp\cc6ofmB9.s 			page 7


 188 0132 EDDA     		bge	.L6
 148:.\main.c      ****             }
 149:.\main.c      ****             
 150:.\main.c      ****             /* Store sum of 128 samples*/
 151:.\main.c      ****             sum = result << DIV;
 189              		.loc 1 151 0 is_stmt 1
 190 0134 D7F81C32 		ldr	r3, [r7, #540]
 191 0138 DB01     		lsls	r3, r3, #7
 192 013a C7F82832 		str	r3, [r7, #552]
 152:.\main.c      ****     
 153:.\main.c      ****             /* Average count is equal to new sample */
 154:.\main.c      ****             averageCounts = result;
 193              		.loc 1 154 0
 194 013e D7F81C32 		ldr	r3, [r7, #540]
 195 0142 C7F82432 		str	r3, [r7, #548]
 155:.\main.c      ****             index = 0;
 196              		.loc 1 155 0
 197 0146 0023     		movs	r3, #0
 198 0148 87F82332 		strb	r3, [r7, #547]
 199 014c 2AE0     		b	.L7
 200              	.L4:
 156:.\main.c      ****         }
 157:.\main.c      ****         
 158:.\main.c      ****         /* Get moving average */
 159:.\main.c      ****         else
 160:.\main.c      ****         {
 161:.\main.c      ****             /* Remove the oldest element and add new sample to sum and get 
 162:.\main.c      ****              * the average */
 163:.\main.c      ****             sum = sum - adcCounts[index];
 201              		.loc 1 163 0
 202 014e 97F82322 		ldrb	r2, [r7, #547]	@ zero_extendqisi2
 203 0152 07F11403 		add	r3, r7, #20
 204 0156 53F82230 		ldr	r3, [r3, r2, lsl #2]
 205 015a D7F82822 		ldr	r2, [r7, #552]
 206 015e D31A     		subs	r3, r2, r3
 207 0160 C7F82832 		str	r3, [r7, #552]
 164:.\main.c      ****             sum = sum + result;
 208              		.loc 1 164 0
 209 0164 D7F82822 		ldr	r2, [r7, #552]
 210 0168 D7F81C32 		ldr	r3, [r7, #540]
 211 016c 1344     		add	r3, r3, r2
 212 016e C7F82832 		str	r3, [r7, #552]
 165:.\main.c      ****             averageCounts = sum >> DIV;
 213              		.loc 1 165 0
 214 0172 D7F82832 		ldr	r3, [r7, #552]
 215 0176 DB11     		asrs	r3, r3, #7
 216 0178 C7F82432 		str	r3, [r7, #548]
 166:.\main.c      ****             
 167:.\main.c      ****             /* Remove the oldest sample and store new sample */
 168:.\main.c      ****             adcCounts[index] = result;
 217              		.loc 1 168 0
 218 017c 97F82322 		ldrb	r2, [r7, #547]	@ zero_extendqisi2
 219 0180 07F11403 		add	r3, r7, #20
 220 0184 D7F81C12 		ldr	r1, [r7, #540]
 221 0188 43F82210 		str	r1, [r3, r2, lsl #2]
 169:.\main.c      ****             index++;
 222              		.loc 1 169 0
ARM GAS  C:\Users\Rolando\AppData\Local\Temp\cc6ofmB9.s 			page 8


 223 018c 97F82332 		ldrb	r3, [r7, #547]	@ zero_extendqisi2
 224 0190 0133     		adds	r3, r3, #1
 225 0192 87F82332 		strb	r3, [r7, #547]
 170:.\main.c      ****             if (index == MAX_SAMPLE)
 226              		.loc 1 170 0
 227 0196 97F82332 		ldrb	r3, [r7, #547]	@ zero_extendqisi2
 228 019a 802B     		cmp	r3, #128
 229 019c 02D1     		bne	.L7
 171:.\main.c      ****             {
 172:.\main.c      ****                 index = 0;
 230              		.loc 1 172 0
 231 019e 0023     		movs	r3, #0
 232 01a0 87F82332 		strb	r3, [r7, #547]
 233              	.L7:
 173:.\main.c      ****             }
 174:.\main.c      ****         }
 175:.\main.c      ****         microVolts = ADC_CountsTo_uVolts(averageCounts);
 234              		.loc 1 175 0
 235 01a4 D7F82402 		ldr	r0, [r7, #548]
 236 01a8 FFF7FEFF 		bl	ADC_CountsTo_uVolts
 237 01ac C7F81402 		str	r0, [r7, #532]
 176:.\main.c      ****             
 177:.\main.c      ****         /* Convert micro volts to string and display on the LCD */
 178:.\main.c      ****         sprintf(displayStr,"%7ld",microVolts);
 238              		.loc 1 178 0
 239 01b0 3B1D     		adds	r3, r7, #4
 240 01b2 1846     		mov	r0, r3
 241 01b4 0749     		ldr	r1, .L9+4
 242 01b6 D7F81422 		ldr	r2, [r7, #532]
 243 01ba FFF7FEFF 		bl	sprintf
 179:.\main.c      **** 
 180:.\main.c      ****         LCD_Position(1,0);
 244              		.loc 1 180 0
 245 01be 0120     		movs	r0, #1
 246 01c0 0021     		movs	r1, #0
 247 01c2 FFF7FEFF 		bl	LCD_Position
 181:.\main.c      ****         LCD_PrintString(displayStr);
 248              		.loc 1 181 0
 249 01c6 3B1D     		adds	r3, r7, #4
 250 01c8 1846     		mov	r0, r3
 251 01ca FFF7FEFF 		bl	LCD_PrintString
 182:.\main.c      ****     }	
 252              		.loc 1 182 0
 253 01ce 85E7     		b	.L8
 254              	.L10:
 255              		.align	2
 256              	.L9:
 257 01d0 00000000 		.word	.LC0
 258 01d4 10000000 		.word	.LC1
 259              		.cfi_endproc
 260              	.LFE56:
 261              		.size	main, .-main
 262              		.text
 263              	.Letext0:
 264              		.file 2 "c:\\program files (x86)\\cypress\\psoc creator\\3.3\\psoc creator\\import\\gnu\\arm\\4.9.
 265              		.file 3 "c:\\program files (x86)\\cypress\\psoc creator\\3.3\\psoc creator\\import\\gnu\\arm\\4.9.
 266              		.file 4 "Generated_Source\\PSoC5/cytypes.h"
ARM GAS  C:\Users\Rolando\AppData\Local\Temp\cc6ofmB9.s 			page 9


 267              		.file 5 "Generated_Source\\PSoC5/core_cm3.h"