ARM GAS  C:\Users\Rolando\AppData\Local\Temp\cckz3nFF.s 			page 1


   1              		.syntax unified
   2              		.cpu cortex-m3
   3              		.fpu softvfp
   4              		.eabi_attribute 20, 1
   5              		.eabi_attribute 21, 1
   6              		.eabi_attribute 23, 3
   7              		.eabi_attribute 24, 1
   8              		.eabi_attribute 25, 1
   9              		.eabi_attribute 26, 1
  10              		.eabi_attribute 30, 6
  11              		.eabi_attribute 34, 1
  12              		.eabi_attribute 18, 4
  13              		.thumb
  14              		.file	"Count7.c"
  15              		.text
  16              	.Ltext0:
  17              		.cfi_sections	.debug_frame
  18              		.global	Count7_initVar
  19              		.bss
  20              		.type	Count7_initVar, %object
  21              		.size	Count7_initVar, 1
  22              	Count7_initVar:
  23 0000 00       		.space	1
  24              		.section	.text.Count7_Init,"ax",%progbits
  25              		.align	2
  26              		.global	Count7_Init
  27              		.thumb
  28              		.thumb_func
  29              		.type	Count7_Init, %function
  30              	Count7_Init:
  31              	.LFB0:
  32              		.file 1 ".\\Generated_Source\\PSoC5\\Count7.c"
   1:.\Generated_Source\PSoC5/Count7.c **** /*******************************************************************************
   2:.\Generated_Source\PSoC5/Count7.c **** * File Name: Count7.c
   3:.\Generated_Source\PSoC5/Count7.c **** * Version 1.0
   4:.\Generated_Source\PSoC5/Count7.c **** *
   5:.\Generated_Source\PSoC5/Count7.c **** * Description:
   6:.\Generated_Source\PSoC5/Count7.c **** *  This file provides source code for the Count7 component's API.
   7:.\Generated_Source\PSoC5/Count7.c **** *
   8:.\Generated_Source\PSoC5/Count7.c **** * Note:
   9:.\Generated_Source\PSoC5/Count7.c **** *
  10:.\Generated_Source\PSoC5/Count7.c **** ********************************************************************************
  11:.\Generated_Source\PSoC5/Count7.c **** * Copyright 2013, Cypress Semiconductor Corporation.  All rights reserved.
  12:.\Generated_Source\PSoC5/Count7.c **** * You may use this file only in accordance with the license, terms, conditions,
  13:.\Generated_Source\PSoC5/Count7.c **** * disclaimers, and limitations in the end user license agreement accompanying
  14:.\Generated_Source\PSoC5/Count7.c **** * the software package with which this file was provided.
  15:.\Generated_Source\PSoC5/Count7.c **** *******************************************************************************/
  16:.\Generated_Source\PSoC5/Count7.c **** 
  17:.\Generated_Source\PSoC5/Count7.c **** #include "Count7.h"
  18:.\Generated_Source\PSoC5/Count7.c **** #include "CyLib.h"
  19:.\Generated_Source\PSoC5/Count7.c **** 
  20:.\Generated_Source\PSoC5/Count7.c **** 
  21:.\Generated_Source\PSoC5/Count7.c **** uint8 Count7_initVar = 0u;
  22:.\Generated_Source\PSoC5/Count7.c **** 
  23:.\Generated_Source\PSoC5/Count7.c **** 
  24:.\Generated_Source\PSoC5/Count7.c **** /*******************************************************************************
  25:.\Generated_Source\PSoC5/Count7.c **** * Function Name: Count7_Init
ARM GAS  C:\Users\Rolando\AppData\Local\Temp\cckz3nFF.s 			page 2


  26:.\Generated_Source\PSoC5/Count7.c **** ********************************************************************************
  27:.\Generated_Source\PSoC5/Count7.c **** *
  28:.\Generated_Source\PSoC5/Count7.c **** * Summary:
  29:.\Generated_Source\PSoC5/Count7.c **** *  Initializes or restores the component according to the parameter editor
  30:.\Generated_Source\PSoC5/Count7.c **** *  settings.
  31:.\Generated_Source\PSoC5/Count7.c **** *
  32:.\Generated_Source\PSoC5/Count7.c **** * Parameters:
  33:.\Generated_Source\PSoC5/Count7.c **** *  None
  34:.\Generated_Source\PSoC5/Count7.c **** *
  35:.\Generated_Source\PSoC5/Count7.c **** * Return:
  36:.\Generated_Source\PSoC5/Count7.c **** *  None
  37:.\Generated_Source\PSoC5/Count7.c **** *
  38:.\Generated_Source\PSoC5/Count7.c **** * Theory:
  39:.\Generated_Source\PSoC5/Count7.c **** *  It is not necessary to call Count7_Init() because the Count7_Start() API
  40:.\Generated_Source\PSoC5/Count7.c **** *  calls this function and is the preferred method to begin component
  41:.\Generated_Source\PSoC5/Count7.c **** *  operation.
  42:.\Generated_Source\PSoC5/Count7.c **** *
  43:.\Generated_Source\PSoC5/Count7.c **** *******************************************************************************/
  44:.\Generated_Source\PSoC5/Count7.c **** void Count7_Init(void) 
  45:.\Generated_Source\PSoC5/Count7.c **** {
  33              		.loc 1 45 0
  34              		.cfi_startproc
  35              		@ args = 0, pretend = 0, frame = 0
  36              		@ frame_needed = 1, uses_anonymous_args = 0
  37              		@ link register save eliminated.
  38 0000 80B4     		push	{r7}
  39              		.cfi_def_cfa_offset 4
  40              		.cfi_offset 7, -4
  41 0002 00AF     		add	r7, sp, #0
  42              		.cfi_def_cfa_register 7
  46:.\Generated_Source\PSoC5/Count7.c ****     /* Set the initial period value from parameter editor */
  47:.\Generated_Source\PSoC5/Count7.c ****     Count7_PERIOD_REG = Count7_INITIAL_PERIOD;
  43              		.loc 1 47 0
  44 0004 034B     		ldr	r3, .L2
  45 0006 1422     		movs	r2, #20
  46 0008 1A70     		strb	r2, [r3]
  48:.\Generated_Source\PSoC5/Count7.c **** }
  47              		.loc 1 48 0
  48 000a BD46     		mov	sp, r7
  49              		.cfi_def_cfa_register 13
  50              		@ sp needed
  51 000c 5DF8047B 		ldr	r7, [sp], #4
  52              		.cfi_restore 7
  53              		.cfi_def_cfa_offset 0
  54 0010 7047     		bx	lr
  55              	.L3:
  56 0012 00BF     		.align	2
  57              	.L2:
  58 0014 8E640040 		.word	1073767566
  59              		.cfi_endproc
  60              	.LFE0:
  61              		.size	Count7_Init, .-Count7_Init
  62              		.section	.text.Count7_Enable,"ax",%progbits
  63              		.align	2
  64              		.global	Count7_Enable
  65              		.thumb
  66              		.thumb_func
ARM GAS  C:\Users\Rolando\AppData\Local\Temp\cckz3nFF.s 			page 3


  67              		.type	Count7_Enable, %function
  68              	Count7_Enable:
  69              	.LFB1:
  49:.\Generated_Source\PSoC5/Count7.c **** 
  50:.\Generated_Source\PSoC5/Count7.c **** 
  51:.\Generated_Source\PSoC5/Count7.c **** /*******************************************************************************
  52:.\Generated_Source\PSoC5/Count7.c **** * Function Name: Count7_Enable
  53:.\Generated_Source\PSoC5/Count7.c **** ********************************************************************************
  54:.\Generated_Source\PSoC5/Count7.c **** *
  55:.\Generated_Source\PSoC5/Count7.c **** * Summary:
  56:.\Generated_Source\PSoC5/Count7.c **** *  Enables the software enable of the counter.
  57:.\Generated_Source\PSoC5/Count7.c **** *
  58:.\Generated_Source\PSoC5/Count7.c **** * Parameters:
  59:.\Generated_Source\PSoC5/Count7.c **** *  None
  60:.\Generated_Source\PSoC5/Count7.c **** *
  61:.\Generated_Source\PSoC5/Count7.c **** * Return:
  62:.\Generated_Source\PSoC5/Count7.c **** *  None
  63:.\Generated_Source\PSoC5/Count7.c **** *
  64:.\Generated_Source\PSoC5/Count7.c **** * Theory:
  65:.\Generated_Source\PSoC5/Count7.c **** *  It is not necessary to call Count7_Enable() because the Count7_Start() API
  66:.\Generated_Source\PSoC5/Count7.c **** *  calls this function, which is the preferred method to begin component
  67:.\Generated_Source\PSoC5/Count7.c **** *  operation.
  68:.\Generated_Source\PSoC5/Count7.c **** *  This API performs modification of auxiliary control register which is a
  69:.\Generated_Source\PSoC5/Count7.c **** *  shared resource so it is required to disable interrupts until the
  70:.\Generated_Source\PSoC5/Count7.c **** *  modification will complete.
  71:.\Generated_Source\PSoC5/Count7.c **** *
  72:.\Generated_Source\PSoC5/Count7.c **** *******************************************************************************/
  73:.\Generated_Source\PSoC5/Count7.c **** void Count7_Enable(void) 
  74:.\Generated_Source\PSoC5/Count7.c **** {
  70              		.loc 1 74 0
  71              		.cfi_startproc
  72              		@ args = 0, pretend = 0, frame = 8
  73              		@ frame_needed = 1, uses_anonymous_args = 0
  74 0000 80B5     		push	{r7, lr}
  75              		.cfi_def_cfa_offset 8
  76              		.cfi_offset 7, -8
  77              		.cfi_offset 14, -4
  78 0002 82B0     		sub	sp, sp, #8
  79              		.cfi_def_cfa_offset 16
  80 0004 00AF     		add	r7, sp, #0
  81              		.cfi_def_cfa_register 7
  75:.\Generated_Source\PSoC5/Count7.c ****     uint8 interruptState;
  76:.\Generated_Source\PSoC5/Count7.c **** 
  77:.\Generated_Source\PSoC5/Count7.c ****     interruptState = CyEnterCriticalSection();
  82              		.loc 1 77 0
  83 0006 FFF7FEFF 		bl	CyEnterCriticalSection
  84 000a 0346     		mov	r3, r0
  85 000c FB71     		strb	r3, [r7, #7]
  78:.\Generated_Source\PSoC5/Count7.c ****     /* Set the counter start bit in auxiliary control. If routed enable
  79:.\Generated_Source\PSoC5/Count7.c ****     * isn't used then this will immediately star the Count7 operation.
  80:.\Generated_Source\PSoC5/Count7.c ****     */
  81:.\Generated_Source\PSoC5/Count7.c ****     Count7_AUX_CONTROL_REG |= Count7_COUNTER_START;
  86              		.loc 1 81 0
  87 000e 074A     		ldr	r2, .L5
  88 0010 064B     		ldr	r3, .L5
  89 0012 1B78     		ldrb	r3, [r3]
  90 0014 DBB2     		uxtb	r3, r3
ARM GAS  C:\Users\Rolando\AppData\Local\Temp\cckz3nFF.s 			page 4


  91 0016 43F02003 		orr	r3, r3, #32
  92 001a DBB2     		uxtb	r3, r3
  93 001c 1370     		strb	r3, [r2]
  82:.\Generated_Source\PSoC5/Count7.c **** 
  83:.\Generated_Source\PSoC5/Count7.c ****     CyExitCriticalSection(interruptState);
  94              		.loc 1 83 0
  95 001e FB79     		ldrb	r3, [r7, #7]	@ zero_extendqisi2
  96 0020 1846     		mov	r0, r3
  97 0022 FFF7FEFF 		bl	CyExitCriticalSection
  84:.\Generated_Source\PSoC5/Count7.c **** }
  98              		.loc 1 84 0
  99 0026 0837     		adds	r7, r7, #8
 100              		.cfi_def_cfa_offset 8
 101 0028 BD46     		mov	sp, r7
 102              		.cfi_def_cfa_register 13
 103              		@ sp needed
 104 002a 80BD     		pop	{r7, pc}
 105              	.L6:
 106              		.align	2
 107              	.L5:
 108 002c 9E640040 		.word	1073767582
 109              		.cfi_endproc
 110              	.LFE1:
 111              		.size	Count7_Enable, .-Count7_Enable
 112              		.section	.text.Count7_Start,"ax",%progbits
 113              		.align	2
 114              		.global	Count7_Start
 115              		.thumb
 116              		.thumb_func
 117              		.type	Count7_Start, %function
 118              	Count7_Start:
 119              	.LFB2:
  85:.\Generated_Source\PSoC5/Count7.c **** 
  86:.\Generated_Source\PSoC5/Count7.c **** 
  87:.\Generated_Source\PSoC5/Count7.c **** /*******************************************************************************
  88:.\Generated_Source\PSoC5/Count7.c **** * Function Name: Count7_Start
  89:.\Generated_Source\PSoC5/Count7.c **** ********************************************************************************
  90:.\Generated_Source\PSoC5/Count7.c **** *
  91:.\Generated_Source\PSoC5/Count7.c **** * Summary:
  92:.\Generated_Source\PSoC5/Count7.c **** *  Performs all of the required initialization for the component and enables
  93:.\Generated_Source\PSoC5/Count7.c **** *  the counter. The first time the routine is executed, the period is set as
  94:.\Generated_Source\PSoC5/Count7.c **** *  configured in the customizer. When called to restart the counter following a
  95:.\Generated_Source\PSoC5/Count7.c **** *  Count7_Stop() call, the current period value is retained.
  96:.\Generated_Source\PSoC5/Count7.c **** *
  97:.\Generated_Source\PSoC5/Count7.c **** * Parameters:
  98:.\Generated_Source\PSoC5/Count7.c **** *  None.
  99:.\Generated_Source\PSoC5/Count7.c **** *
 100:.\Generated_Source\PSoC5/Count7.c **** * Global Variables:
 101:.\Generated_Source\PSoC5/Count7.c **** *  Count7_initVar - global variable.
 102:.\Generated_Source\PSoC5/Count7.c **** *
 103:.\Generated_Source\PSoC5/Count7.c **** * Return:
 104:.\Generated_Source\PSoC5/Count7.c **** *  None.
 105:.\Generated_Source\PSoC5/Count7.c **** *
 106:.\Generated_Source\PSoC5/Count7.c **** *******************************************************************************/
 107:.\Generated_Source\PSoC5/Count7.c **** void Count7_Start(void) 
 108:.\Generated_Source\PSoC5/Count7.c **** {
 120              		.loc 1 108 0
ARM GAS  C:\Users\Rolando\AppData\Local\Temp\cckz3nFF.s 			page 5


 121              		.cfi_startproc
 122              		@ args = 0, pretend = 0, frame = 0
 123              		@ frame_needed = 1, uses_anonymous_args = 0
 124 0000 80B5     		push	{r7, lr}
 125              		.cfi_def_cfa_offset 8
 126              		.cfi_offset 7, -8
 127              		.cfi_offset 14, -4
 128 0002 00AF     		add	r7, sp, #0
 129              		.cfi_def_cfa_register 7
 109:.\Generated_Source\PSoC5/Count7.c ****     /* If not initialized then perform initialization */
 110:.\Generated_Source\PSoC5/Count7.c ****     if(Count7_initVar == 0u)
 130              		.loc 1 110 0
 131 0004 054B     		ldr	r3, .L9
 132 0006 1B78     		ldrb	r3, [r3]	@ zero_extendqisi2
 133 0008 002B     		cmp	r3, #0
 134 000a 04D1     		bne	.L8
 111:.\Generated_Source\PSoC5/Count7.c ****     {
 112:.\Generated_Source\PSoC5/Count7.c ****         Count7_Init();
 135              		.loc 1 112 0
 136 000c FFF7FEFF 		bl	Count7_Init
 113:.\Generated_Source\PSoC5/Count7.c ****         Count7_initVar = 1u;
 137              		.loc 1 113 0
 138 0010 024B     		ldr	r3, .L9
 139 0012 0122     		movs	r2, #1
 140 0014 1A70     		strb	r2, [r3]
 141              	.L8:
 114:.\Generated_Source\PSoC5/Count7.c ****     }
 115:.\Generated_Source\PSoC5/Count7.c **** 
 116:.\Generated_Source\PSoC5/Count7.c ****     /* Enable Count7 */
 117:.\Generated_Source\PSoC5/Count7.c ****     Count7_Enable();
 142              		.loc 1 117 0
 143 0016 FFF7FEFF 		bl	Count7_Enable
 118:.\Generated_Source\PSoC5/Count7.c **** }
 144              		.loc 1 118 0
 145 001a 80BD     		pop	{r7, pc}
 146              	.L10:
 147              		.align	2
 148              	.L9:
 149 001c 00000000 		.word	Count7_initVar
 150              		.cfi_endproc
 151              	.LFE2:
 152              		.size	Count7_Start, .-Count7_Start
 153              		.section	.text.Count7_Stop,"ax",%progbits
 154              		.align	2
 155              		.global	Count7_Stop
 156              		.thumb
 157              		.thumb_func
 158              		.type	Count7_Stop, %function
 159              	Count7_Stop:
 160              	.LFB3:
 119:.\Generated_Source\PSoC5/Count7.c **** 
 120:.\Generated_Source\PSoC5/Count7.c **** 
 121:.\Generated_Source\PSoC5/Count7.c **** /*******************************************************************************
 122:.\Generated_Source\PSoC5/Count7.c **** * Function Name: Count7_Stop
 123:.\Generated_Source\PSoC5/Count7.c **** ********************************************************************************
 124:.\Generated_Source\PSoC5/Count7.c **** *
 125:.\Generated_Source\PSoC5/Count7.c **** * Summary:
ARM GAS  C:\Users\Rolando\AppData\Local\Temp\cckz3nFF.s 			page 6


 126:.\Generated_Source\PSoC5/Count7.c **** *  Disables the software enable of the counter.
 127:.\Generated_Source\PSoC5/Count7.c **** *
 128:.\Generated_Source\PSoC5/Count7.c **** * Parameters:
 129:.\Generated_Source\PSoC5/Count7.c **** *  None
 130:.\Generated_Source\PSoC5/Count7.c **** *
 131:.\Generated_Source\PSoC5/Count7.c **** * Return:
 132:.\Generated_Source\PSoC5/Count7.c **** *  None
 133:.\Generated_Source\PSoC5/Count7.c **** *
 134:.\Generated_Source\PSoC5/Count7.c **** *******************************************************************************/
 135:.\Generated_Source\PSoC5/Count7.c **** void Count7_Stop(void) 
 136:.\Generated_Source\PSoC5/Count7.c **** {
 161              		.loc 1 136 0
 162              		.cfi_startproc
 163              		@ args = 0, pretend = 0, frame = 8
 164              		@ frame_needed = 1, uses_anonymous_args = 0
 165 0000 80B5     		push	{r7, lr}
 166              		.cfi_def_cfa_offset 8
 167              		.cfi_offset 7, -8
 168              		.cfi_offset 14, -4
 169 0002 82B0     		sub	sp, sp, #8
 170              		.cfi_def_cfa_offset 16
 171 0004 00AF     		add	r7, sp, #0
 172              		.cfi_def_cfa_register 7
 137:.\Generated_Source\PSoC5/Count7.c ****     uint8 interruptState;
 138:.\Generated_Source\PSoC5/Count7.c **** 
 139:.\Generated_Source\PSoC5/Count7.c ****     interruptState = CyEnterCriticalSection();
 173              		.loc 1 139 0
 174 0006 FFF7FEFF 		bl	CyEnterCriticalSection
 175 000a 0346     		mov	r3, r0
 176 000c FB71     		strb	r3, [r7, #7]
 140:.\Generated_Source\PSoC5/Count7.c ****     /* Clear the counter start bit in auxiliary control. */
 141:.\Generated_Source\PSoC5/Count7.c ****     Count7_AUX_CONTROL_REG &= (uint8) ~((uint8) Count7_COUNTER_START);
 177              		.loc 1 141 0
 178 000e 074A     		ldr	r2, .L12
 179 0010 064B     		ldr	r3, .L12
 180 0012 1B78     		ldrb	r3, [r3]
 181 0014 DBB2     		uxtb	r3, r3
 182 0016 23F02003 		bic	r3, r3, #32
 183 001a DBB2     		uxtb	r3, r3
 184 001c 1370     		strb	r3, [r2]
 142:.\Generated_Source\PSoC5/Count7.c **** 
 143:.\Generated_Source\PSoC5/Count7.c ****     CyExitCriticalSection(interruptState);
 185              		.loc 1 143 0
 186 001e FB79     		ldrb	r3, [r7, #7]	@ zero_extendqisi2
 187 0020 1846     		mov	r0, r3
 188 0022 FFF7FEFF 		bl	CyExitCriticalSection
 144:.\Generated_Source\PSoC5/Count7.c **** }
 189              		.loc 1 144 0
 190 0026 0837     		adds	r7, r7, #8
 191              		.cfi_def_cfa_offset 8
 192 0028 BD46     		mov	sp, r7
 193              		.cfi_def_cfa_register 13
 194              		@ sp needed
 195 002a 80BD     		pop	{r7, pc}
 196              	.L13:
 197              		.align	2
 198              	.L12:
ARM GAS  C:\Users\Rolando\AppData\Local\Temp\cckz3nFF.s 			page 7


 199 002c 9E640040 		.word	1073767582
 200              		.cfi_endproc
 201              	.LFE3:
 202              		.size	Count7_Stop, .-Count7_Stop
 203              		.section	.text.Count7_WriteCounter,"ax",%progbits
 204              		.align	2
 205              		.global	Count7_WriteCounter
 206              		.thumb
 207              		.thumb_func
 208              		.type	Count7_WriteCounter, %function
 209              	Count7_WriteCounter:
 210              	.LFB4:
 145:.\Generated_Source\PSoC5/Count7.c **** 
 146:.\Generated_Source\PSoC5/Count7.c **** 
 147:.\Generated_Source\PSoC5/Count7.c **** /*******************************************************************************
 148:.\Generated_Source\PSoC5/Count7.c **** * Function Name: Count7_WriteCounter
 149:.\Generated_Source\PSoC5/Count7.c **** ********************************************************************************
 150:.\Generated_Source\PSoC5/Count7.c **** *
 151:.\Generated_Source\PSoC5/Count7.c **** * Summary:
 152:.\Generated_Source\PSoC5/Count7.c **** *  This function writes the counter directly. The counter should be disabled
 153:.\Generated_Source\PSoC5/Count7.c **** *  before calling this function.
 154:.\Generated_Source\PSoC5/Count7.c **** *
 155:.\Generated_Source\PSoC5/Count7.c **** * Parameters:
 156:.\Generated_Source\PSoC5/Count7.c **** *  count - Value to be written to counter.
 157:.\Generated_Source\PSoC5/Count7.c **** *
 158:.\Generated_Source\PSoC5/Count7.c **** * Return:
 159:.\Generated_Source\PSoC5/Count7.c **** *  None
 160:.\Generated_Source\PSoC5/Count7.c **** *
 161:.\Generated_Source\PSoC5/Count7.c **** *******************************************************************************/
 162:.\Generated_Source\PSoC5/Count7.c **** void Count7_WriteCounter(uint8 count) 
 163:.\Generated_Source\PSoC5/Count7.c **** {
 211              		.loc 1 163 0
 212              		.cfi_startproc
 213              		@ args = 0, pretend = 0, frame = 8
 214              		@ frame_needed = 1, uses_anonymous_args = 0
 215              		@ link register save eliminated.
 216 0000 80B4     		push	{r7}
 217              		.cfi_def_cfa_offset 4
 218              		.cfi_offset 7, -4
 219 0002 83B0     		sub	sp, sp, #12
 220              		.cfi_def_cfa_offset 16
 221 0004 00AF     		add	r7, sp, #0
 222              		.cfi_def_cfa_register 7
 223 0006 0346     		mov	r3, r0
 224 0008 FB71     		strb	r3, [r7, #7]
 164:.\Generated_Source\PSoC5/Count7.c ****     Count7_COUNT_REG = (count & Count7_COUNT_7BIT_MASK);
 225              		.loc 1 164 0
 226 000a 054A     		ldr	r2, .L15
 227 000c FB79     		ldrb	r3, [r7, #7]
 228 000e 03F07F03 		and	r3, r3, #127
 229 0012 DBB2     		uxtb	r3, r3
 230 0014 1370     		strb	r3, [r2]
 165:.\Generated_Source\PSoC5/Count7.c **** }
 231              		.loc 1 165 0
 232 0016 0C37     		adds	r7, r7, #12
 233              		.cfi_def_cfa_offset 4
 234 0018 BD46     		mov	sp, r7
ARM GAS  C:\Users\Rolando\AppData\Local\Temp\cckz3nFF.s 			page 8


 235              		.cfi_def_cfa_register 13
 236              		@ sp needed
 237 001a 5DF8047B 		ldr	r7, [sp], #4
 238              		.cfi_restore 7
 239              		.cfi_def_cfa_offset 0
 240 001e 7047     		bx	lr
 241              	.L16:
 242              		.align	2
 243              	.L15:
 244 0020 7E640040 		.word	1073767550
 245              		.cfi_endproc
 246              	.LFE4:
 247              		.size	Count7_WriteCounter, .-Count7_WriteCounter
 248              		.section	.text.Count7_ReadCounter,"ax",%progbits
 249              		.align	2
 250              		.global	Count7_ReadCounter
 251              		.thumb
 252              		.thumb_func
 253              		.type	Count7_ReadCounter, %function
 254              	Count7_ReadCounter:
 255              	.LFB5:
 166:.\Generated_Source\PSoC5/Count7.c **** 
 167:.\Generated_Source\PSoC5/Count7.c **** 
 168:.\Generated_Source\PSoC5/Count7.c **** /*******************************************************************************
 169:.\Generated_Source\PSoC5/Count7.c **** * Function Name: Count7_ReadCounter
 170:.\Generated_Source\PSoC5/Count7.c **** ********************************************************************************
 171:.\Generated_Source\PSoC5/Count7.c **** *
 172:.\Generated_Source\PSoC5/Count7.c **** * Summary:
 173:.\Generated_Source\PSoC5/Count7.c **** *  This function reads the counter value.
 174:.\Generated_Source\PSoC5/Count7.c **** *
 175:.\Generated_Source\PSoC5/Count7.c **** * Parameters:
 176:.\Generated_Source\PSoC5/Count7.c **** *  None
 177:.\Generated_Source\PSoC5/Count7.c **** *
 178:.\Generated_Source\PSoC5/Count7.c **** * Return:
 179:.\Generated_Source\PSoC5/Count7.c **** *  None
 180:.\Generated_Source\PSoC5/Count7.c **** *
 181:.\Generated_Source\PSoC5/Count7.c **** *******************************************************************************/
 182:.\Generated_Source\PSoC5/Count7.c **** uint8 Count7_ReadCounter(void) 
 183:.\Generated_Source\PSoC5/Count7.c **** {
 256              		.loc 1 183 0
 257              		.cfi_startproc
 258              		@ args = 0, pretend = 0, frame = 0
 259              		@ frame_needed = 1, uses_anonymous_args = 0
 260              		@ link register save eliminated.
 261 0000 80B4     		push	{r7}
 262              		.cfi_def_cfa_offset 4
 263              		.cfi_offset 7, -4
 264 0002 00AF     		add	r7, sp, #0
 265              		.cfi_def_cfa_register 7
 184:.\Generated_Source\PSoC5/Count7.c ****     return(Count7_COUNT_REG & Count7_COUNT_7BIT_MASK);
 266              		.loc 1 184 0
 267 0004 054B     		ldr	r3, .L19
 268 0006 1B78     		ldrb	r3, [r3]
 269 0008 DBB2     		uxtb	r3, r3
 270 000a 03F07F03 		and	r3, r3, #127
 271 000e DBB2     		uxtb	r3, r3
 185:.\Generated_Source\PSoC5/Count7.c **** }
ARM GAS  C:\Users\Rolando\AppData\Local\Temp\cckz3nFF.s 			page 9


 272              		.loc 1 185 0
 273 0010 1846     		mov	r0, r3
 274 0012 BD46     		mov	sp, r7
 275              		.cfi_def_cfa_register 13
 276              		@ sp needed
 277 0014 5DF8047B 		ldr	r7, [sp], #4
 278              		.cfi_restore 7
 279              		.cfi_def_cfa_offset 0
 280 0018 7047     		bx	lr
 281              	.L20:
 282 001a 00BF     		.align	2
 283              	.L19:
 284 001c 7E640040 		.word	1073767550
 285              		.cfi_endproc
 286              	.LFE5:
 287              		.size	Count7_ReadCounter, .-Count7_ReadCounter
 288              		.section	.text.Count7_WritePeriod,"ax",%progbits
 289              		.align	2
 290              		.global	Count7_WritePeriod
 291              		.thumb
 292              		.thumb_func
 293              		.type	Count7_WritePeriod, %function
 294              	Count7_WritePeriod:
 295              	.LFB6:
 186:.\Generated_Source\PSoC5/Count7.c **** 
 187:.\Generated_Source\PSoC5/Count7.c **** 
 188:.\Generated_Source\PSoC5/Count7.c **** /*******************************************************************************
 189:.\Generated_Source\PSoC5/Count7.c **** * Function Name: Count7_WritePeriod
 190:.\Generated_Source\PSoC5/Count7.c **** ********************************************************************************
 191:.\Generated_Source\PSoC5/Count7.c **** *
 192:.\Generated_Source\PSoC5/Count7.c **** * Summary:
 193:.\Generated_Source\PSoC5/Count7.c **** *  This function writes the period register. The actual period is one greater
 194:.\Generated_Source\PSoC5/Count7.c **** *  than the value in the period register since the counting sequence starts
 195:.\Generated_Source\PSoC5/Count7.c **** *  with the period register and counts down to 0 inclusive. The period of the
 196:.\Generated_Source\PSoC5/Count7.c **** *  counter output does not change until the counter is reloaded following the
 197:.\Generated_Source\PSoC5/Count7.c **** *  terminal count value of 0 or due to a hardware load signal.
 198:.\Generated_Source\PSoC5/Count7.c **** *
 199:.\Generated_Source\PSoC5/Count7.c **** * Parameters:
 200:.\Generated_Source\PSoC5/Count7.c **** *  period - Period value to be written.
 201:.\Generated_Source\PSoC5/Count7.c **** *
 202:.\Generated_Source\PSoC5/Count7.c **** * Return:
 203:.\Generated_Source\PSoC5/Count7.c **** *  None
 204:.\Generated_Source\PSoC5/Count7.c **** *
 205:.\Generated_Source\PSoC5/Count7.c **** *******************************************************************************/
 206:.\Generated_Source\PSoC5/Count7.c **** void Count7_WritePeriod(uint8 period) 
 207:.\Generated_Source\PSoC5/Count7.c **** {
 296              		.loc 1 207 0
 297              		.cfi_startproc
 298              		@ args = 0, pretend = 0, frame = 8
 299              		@ frame_needed = 1, uses_anonymous_args = 0
 300              		@ link register save eliminated.
 301 0000 80B4     		push	{r7}
 302              		.cfi_def_cfa_offset 4
 303              		.cfi_offset 7, -4
 304 0002 83B0     		sub	sp, sp, #12
 305              		.cfi_def_cfa_offset 16
 306 0004 00AF     		add	r7, sp, #0
ARM GAS  C:\Users\Rolando\AppData\Local\Temp\cckz3nFF.s 			page 10


 307              		.cfi_def_cfa_register 7
 308 0006 0346     		mov	r3, r0
 309 0008 FB71     		strb	r3, [r7, #7]
 208:.\Generated_Source\PSoC5/Count7.c ****     Count7_PERIOD_REG = period;
 310              		.loc 1 208 0
 311 000a 044A     		ldr	r2, .L22
 312 000c FB79     		ldrb	r3, [r7, #7]
 313 000e 1370     		strb	r3, [r2]
 209:.\Generated_Source\PSoC5/Count7.c **** }
 314              		.loc 1 209 0
 315 0010 0C37     		adds	r7, r7, #12
 316              		.cfi_def_cfa_offset 4
 317 0012 BD46     		mov	sp, r7
 318              		.cfi_def_cfa_register 13
 319              		@ sp needed
 320 0014 5DF8047B 		ldr	r7, [sp], #4
 321              		.cfi_restore 7
 322              		.cfi_def_cfa_offset 0
 323 0018 7047     		bx	lr
 324              	.L23:
 325 001a 00BF     		.align	2
 326              	.L22:
 327 001c 8E640040 		.word	1073767566
 328              		.cfi_endproc
 329              	.LFE6:
 330              		.size	Count7_WritePeriod, .-Count7_WritePeriod
 331              		.section	.text.Count7_ReadPeriod,"ax",%progbits
 332              		.align	2
 333              		.global	Count7_ReadPeriod
 334              		.thumb
 335              		.thumb_func
 336              		.type	Count7_ReadPeriod, %function
 337              	Count7_ReadPeriod:
 338              	.LFB7:
 210:.\Generated_Source\PSoC5/Count7.c **** 
 211:.\Generated_Source\PSoC5/Count7.c **** 
 212:.\Generated_Source\PSoC5/Count7.c **** /*******************************************************************************
 213:.\Generated_Source\PSoC5/Count7.c **** * Function Name: Count7_ReadPeriod
 214:.\Generated_Source\PSoC5/Count7.c **** ********************************************************************************
 215:.\Generated_Source\PSoC5/Count7.c **** *
 216:.\Generated_Source\PSoC5/Count7.c **** * Summary:
 217:.\Generated_Source\PSoC5/Count7.c **** *  This function reads the period register.
 218:.\Generated_Source\PSoC5/Count7.c **** *
 219:.\Generated_Source\PSoC5/Count7.c **** * Parameters:
 220:.\Generated_Source\PSoC5/Count7.c **** *  None
 221:.\Generated_Source\PSoC5/Count7.c **** *
 222:.\Generated_Source\PSoC5/Count7.c **** * Return:
 223:.\Generated_Source\PSoC5/Count7.c **** *  uint8 - Current period value.
 224:.\Generated_Source\PSoC5/Count7.c **** *
 225:.\Generated_Source\PSoC5/Count7.c **** *******************************************************************************/
 226:.\Generated_Source\PSoC5/Count7.c **** uint8 Count7_ReadPeriod(void) 
 227:.\Generated_Source\PSoC5/Count7.c **** {
 339              		.loc 1 227 0
 340              		.cfi_startproc
 341              		@ args = 0, pretend = 0, frame = 0
 342              		@ frame_needed = 1, uses_anonymous_args = 0
 343              		@ link register save eliminated.
ARM GAS  C:\Users\Rolando\AppData\Local\Temp\cckz3nFF.s 			page 11


 344 0000 80B4     		push	{r7}
 345              		.cfi_def_cfa_offset 4
 346              		.cfi_offset 7, -4
 347 0002 00AF     		add	r7, sp, #0
 348              		.cfi_def_cfa_register 7
 228:.\Generated_Source\PSoC5/Count7.c ****     return(Count7_PERIOD_REG);
 349              		.loc 1 228 0
 350 0004 034B     		ldr	r3, .L26
 351 0006 1B78     		ldrb	r3, [r3]
 352 0008 DBB2     		uxtb	r3, r3
 229:.\Generated_Source\PSoC5/Count7.c **** }
 353              		.loc 1 229 0
 354 000a 1846     		mov	r0, r3
 355 000c BD46     		mov	sp, r7
 356              		.cfi_def_cfa_register 13
 357              		@ sp needed
 358 000e 5DF8047B 		ldr	r7, [sp], #4
 359              		.cfi_restore 7
 360              		.cfi_def_cfa_offset 0
 361 0012 7047     		bx	lr
 362              	.L27:
 363              		.align	2
 364              	.L26:
 365 0014 8E640040 		.word	1073767566
 366              		.cfi_endproc
 367              	.LFE7:
 368              		.size	Count7_ReadPeriod, .-Count7_ReadPeriod
 369              		.text
 370              	.Letext0:
 371              		.file 2 ".\\Generated_Source\\PSoC5\\cytypes.h"