ARM GAS  C:\Users\Rolando\AppData\Local\Temp\ccDDNmCf.s 			page 1


   1              		.syntax unified
   2              		.cpu cortex-m3
   3              		.fpu softvfp
   4              		.eabi_attribute 20, 1
   5              		.eabi_attribute 21, 1
   6              		.eabi_attribute 23, 3
   7              		.eabi_attribute 24, 1
   8              		.eabi_attribute 25, 1
   9              		.eabi_attribute 26, 1
  10              		.eabi_attribute 30, 6
  11              		.eabi_attribute 34, 1
  12              		.eabi_attribute 18, 4
  13              		.thumb
  14              		.file	"main.c"
  15              		.text
  16              	.Ltext0:
  17              		.cfi_sections	.debug_frame
  18              		.section	.rodata
  19              		.align	2
  20              	.LC0:
  21 0000 53544154 		.ascii	"STATUS = 0x\000"
  21      5553203D 
  21      20307800 
  22              		.align	2
  23              	.LC1:
  24 000c 434F554E 		.ascii	"COUNT =  0x\000"
  24      54203D20 
  24      20307800 
  25              		.section	.text.main,"ax",%progbits
  26              		.align	2
  27              		.global	main
  28              		.thumb
  29              		.thumb_func
  30              		.type	main, %function
  31              	main:
  32              	.LFB63:
  33              		.file 1 ".\\main.c"
   1:.\main.c      **** /*******************************************************************************
   2:.\main.c      **** * File Name: main.c
   3:.\main.c      **** *
   4:.\main.c      **** * Version: 1.0
   5:.\main.c      **** *
   6:.\main.c      **** * Description:
   7:.\main.c      **** *  This is the source code for the datasheet example of the Count7 component.
   8:.\main.c      **** *
   9:.\main.c      **** * Note:
  10:.\main.c      **** *
  11:.\main.c      **** ********************************************************************************
  12:.\main.c      **** * Copyright 2013-2014, Cypress Semiconductor Corporation.  All rights reserved.
  13:.\main.c      **** * You may use this file only in accordance with the license, terms, conditions,
  14:.\main.c      **** * disclaimers, and limitations in the end user license agreement accompanying
  15:.\main.c      **** * the software package with which this file was provided.
  16:.\main.c      **** *******************************************************************************/
  17:.\main.c      **** #include <project.h>
  18:.\main.c      **** 
  19:.\main.c      **** #define LCD_REFRESH_PERIOD      100u
  20:.\main.c      **** 
ARM GAS  C:\Users\Rolando\AppData\Local\Temp\ccDDNmCf.s 			page 2


  21:.\main.c      **** /*******************************************************************************
  22:.\main.c      **** * Function Name: main
  23:.\main.c      **** ********************************************************************************
  24:.\main.c      **** *
  25:.\main.c      **** * Summary:
  26:.\main.c      **** *  The main function performs the following tasks:
  27:.\main.c      **** *   1. Starts all the components
  28:.\main.c      **** *   2. Prints out the count value onto the LCD with a user defined refresh rate
  29:.\main.c      **** *
  30:.\main.c      **** * Parameters:
  31:.\main.c      **** *  None
  32:.\main.c      **** *
  33:.\main.c      **** * Return:
  34:.\main.c      **** *  None
  35:.\main.c      **** *
  36:.\main.c      **** * Reentrant:
  37:.\main.c      **** *  No
  38:.\main.c      **** *
  39:.\main.c      **** *******************************************************************************/
  40:.\main.c      **** int main()
  41:.\main.c      **** {
  34              		.loc 1 41 0
  35              		.cfi_startproc
  36              		@ args = 0, pretend = 0, frame = 8
  37              		@ frame_needed = 1, uses_anonymous_args = 0
  38 0000 80B5     		push	{r7, lr}
  39              		.cfi_def_cfa_offset 8
  40              		.cfi_offset 7, -8
  41              		.cfi_offset 14, -4
  42 0002 82B0     		sub	sp, sp, #8
  43              		.cfi_def_cfa_offset 16
  44 0004 00AF     		add	r7, sp, #0
  45              		.cfi_def_cfa_register 7
  42:.\main.c      ****     /* Initialize the display refresh rate */
  43:.\main.c      ****     uint8 refreshRate = LCD_REFRESH_PERIOD - 1u;
  46              		.loc 1 43 0
  47 0006 6323     		movs	r3, #99
  48 0008 FB71     		strb	r3, [r7, #7]
  44:.\main.c      ****     uint8 count;
  45:.\main.c      ****     uint8 status;
  46:.\main.c      ****     
  47:.\main.c      ****     /* Start components */
  48:.\main.c      ****     LCD_Start();
  49              		.loc 1 48 0
  50 000a FFF7FEFF 		bl	LCD_Start
  49:.\main.c      ****     Count7_Start();
  51              		.loc 1 49 0
  52 000e FFF7FEFF 		bl	Count7_Start
  50:.\main.c      ****     
  51:.\main.c      ****     LCD_PrintString("STATUS = 0x");
  53              		.loc 1 51 0
  54 0012 1948     		ldr	r0, .L5
  55 0014 FFF7FEFF 		bl	LCD_PrintString
  52:.\main.c      ****     LCD_Position(1u,0u);
  56              		.loc 1 52 0
  57 0018 0120     		movs	r0, #1
  58 001a 0021     		movs	r1, #0
ARM GAS  C:\Users\Rolando\AppData\Local\Temp\ccDDNmCf.s 			page 3


  59 001c FFF7FEFF 		bl	LCD_Position
  53:.\main.c      ****     LCD_PrintString("COUNT =  0x");
  60              		.loc 1 53 0
  61 0020 1648     		ldr	r0, .L5+4
  62 0022 FFF7FEFF 		bl	LCD_PrintString
  63              	.L4:
  54:.\main.c      ****     
  55:.\main.c      ****     for(;;)
  56:.\main.c      ****     {
  57:.\main.c      ****         if(0u != refreshRate)
  64              		.loc 1 57 0
  65 0026 FB79     		ldrb	r3, [r7, #7]	@ zero_extendqisi2
  66 0028 002B     		cmp	r3, #0
  67 002a 03D0     		beq	.L2
  58:.\main.c      ****         {
  59:.\main.c      ****             refreshRate--;
  68              		.loc 1 59 0
  69 002c FB79     		ldrb	r3, [r7, #7]	@ zero_extendqisi2
  70 002e 013B     		subs	r3, r3, #1
  71 0030 FB71     		strb	r3, [r7, #7]
  72 0032 1DE0     		b	.L3
  73              	.L2:
  60:.\main.c      ****         }
  61:.\main.c      ****         else
  62:.\main.c      ****         {
  63:.\main.c      ****             /* Update count value on LCD */
  64:.\main.c      ****             refreshRate = LCD_REFRESH_PERIOD - 1u;
  74              		.loc 1 64 0
  75 0034 6323     		movs	r3, #99
  76 0036 FB71     		strb	r3, [r7, #7]
  65:.\main.c      ****             
  66:.\main.c      ****             /* Stop Count7 prior reading count value */
  67:.\main.c      ****             Count7_Stop();
  77              		.loc 1 67 0
  78 0038 FFF7FEFF 		bl	Count7_Stop
  68:.\main.c      ****             count = Count7_ReadCounter();
  79              		.loc 1 68 0
  80 003c FFF7FEFF 		bl	Count7_ReadCounter
  81 0040 0346     		mov	r3, r0
  82 0042 BB71     		strb	r3, [r7, #6]
  69:.\main.c      ****             status = Status_Read();
  83              		.loc 1 69 0
  84 0044 FFF7FEFF 		bl	Status_Read
  85 0048 0346     		mov	r3, r0
  86 004a 7B71     		strb	r3, [r7, #5]
  70:.\main.c      ****             Count7_Enable();
  87              		.loc 1 70 0
  88 004c FFF7FEFF 		bl	Count7_Enable
  71:.\main.c      ****             
  72:.\main.c      ****             /* Print out status register value */ 
  73:.\main.c      ****             LCD_Position(0u, 11u);
  89              		.loc 1 73 0
  90 0050 0020     		movs	r0, #0
  91 0052 0B21     		movs	r1, #11
  92 0054 FFF7FEFF 		bl	LCD_Position
  74:.\main.c      ****             LCD_PrintInt8(status);
  93              		.loc 1 74 0
ARM GAS  C:\Users\Rolando\AppData\Local\Temp\ccDDNmCf.s 			page 4


  94 0058 7B79     		ldrb	r3, [r7, #5]	@ zero_extendqisi2
  95 005a 1846     		mov	r0, r3
  96 005c FFF7FEFF 		bl	LCD_PrintInt8
  75:.\main.c      ****             
  76:.\main.c      ****             /* Print out count value */ 
  77:.\main.c      ****             LCD_Position(1u, 11u);
  97              		.loc 1 77 0
  98 0060 0120     		movs	r0, #1
  99 0062 0B21     		movs	r1, #11
 100 0064 FFF7FEFF 		bl	LCD_Position
  78:.\main.c      ****             LCD_PrintInt8(count);
 101              		.loc 1 78 0
 102 0068 BB79     		ldrb	r3, [r7, #6]	@ zero_extendqisi2
 103 006a 1846     		mov	r0, r3
 104 006c FFF7FEFF 		bl	LCD_PrintInt8
 105              	.L3:
  79:.\main.c      ****         }
  80:.\main.c      ****         CyDelay(1u);
 106              		.loc 1 80 0
 107 0070 0120     		movs	r0, #1
 108 0072 FFF7FEFF 		bl	CyDelay
  81:.\main.c      ****     }
 109              		.loc 1 81 0
 110 0076 D6E7     		b	.L4
 111              	.L6:
 112              		.align	2
 113              	.L5:
 114 0078 00000000 		.word	.LC0
 115 007c 0C000000 		.word	.LC1
 116              		.cfi_endproc
 117              	.LFE63:
 118              		.size	main, .-main
 119              		.text
 120              	.Letext0:
 121              		.file 2 "c:\\program files (x86)\\cypress\\psoc creator\\3.3\\psoc creator\\import\\gnu\\arm\\4.9.
 122              		.file 3 "c:\\program files (x86)\\cypress\\psoc creator\\3.3\\psoc creator\\import\\gnu\\arm\\4.9.
 123              		.file 4 "Generated_Source\\PSoC5/cytypes.h"
 124              		.file 5 "Generated_Source\\PSoC5/core_cm3.h"