ARM GAS  C:\Users\Rolando\AppData\Local\Temp\ccUzkFvW.s 			page 1


   1              		.syntax unified
   2              		.cpu cortex-m3
   3              		.fpu softvfp
   4              		.eabi_attribute 20, 1
   5              		.eabi_attribute 21, 1
   6              		.eabi_attribute 23, 3
   7              		.eabi_attribute 24, 1
   8              		.eabi_attribute 25, 1
   9              		.eabi_attribute 26, 1
  10              		.eabi_attribute 30, 4
  11              		.eabi_attribute 34, 1
  12              		.eabi_attribute 18, 4
  13              		.thumb
  14              		.file	"ADC.c"
  15              		.text
  16              	.Ltext0:
  17              		.cfi_sections	.debug_frame
  18              		.section	.text.ADC_Enable,"ax",%progbits
  19              		.align	1
  20              		.global	ADC_Enable
  21              		.thumb
  22              		.thumb_func
  23              		.type	ADC_Enable, %function
  24              	ADC_Enable:
  25              	.LFB2:
  26              		.file 1 ".\\Generated_Source\\PSoC5\\ADC.c"
   1:.\Generated_Source\PSoC5/ADC.c **** /*******************************************************************************
   2:.\Generated_Source\PSoC5/ADC.c **** * File Name: ADC.c
   3:.\Generated_Source\PSoC5/ADC.c **** * Version 2.10
   4:.\Generated_Source\PSoC5/ADC.c **** *
   5:.\Generated_Source\PSoC5/ADC.c **** * Description:
   6:.\Generated_Source\PSoC5/ADC.c **** *  This file provides the source code to the API for the Successive
   7:.\Generated_Source\PSoC5/ADC.c **** *  approximation ADC Component.
   8:.\Generated_Source\PSoC5/ADC.c **** *
   9:.\Generated_Source\PSoC5/ADC.c **** * Note:
  10:.\Generated_Source\PSoC5/ADC.c **** *
  11:.\Generated_Source\PSoC5/ADC.c **** ********************************************************************************
  12:.\Generated_Source\PSoC5/ADC.c **** * Copyright 2008-2013, Cypress Semiconductor Corporation.  All rights reserved.
  13:.\Generated_Source\PSoC5/ADC.c **** * You may use this file only in accordance with the license, terms, conditions,
  14:.\Generated_Source\PSoC5/ADC.c **** * disclaimers, and limitations in the end user license agreement accompanying
  15:.\Generated_Source\PSoC5/ADC.c **** * the software package with which this file was provided.
  16:.\Generated_Source\PSoC5/ADC.c **** *******************************************************************************/
  17:.\Generated_Source\PSoC5/ADC.c **** 
  18:.\Generated_Source\PSoC5/ADC.c **** #include "CyLib.h"
  19:.\Generated_Source\PSoC5/ADC.c **** #include "ADC.h"
  20:.\Generated_Source\PSoC5/ADC.c **** 
  21:.\Generated_Source\PSoC5/ADC.c **** #if(ADC_DEFAULT_INTERNAL_CLK)
  22:.\Generated_Source\PSoC5/ADC.c ****     #include "ADC_theACLK.h"
  23:.\Generated_Source\PSoC5/ADC.c **** #endif /* End ADC_DEFAULT_INTERNAL_CLK */
  24:.\Generated_Source\PSoC5/ADC.c **** 
  25:.\Generated_Source\PSoC5/ADC.c **** 
  26:.\Generated_Source\PSoC5/ADC.c **** /***************************************
  27:.\Generated_Source\PSoC5/ADC.c **** * Forward function references
  28:.\Generated_Source\PSoC5/ADC.c **** ***************************************/
  29:.\Generated_Source\PSoC5/ADC.c **** static void ADC_CalcGain(uint8 resolution);
  30:.\Generated_Source\PSoC5/ADC.c **** 
  31:.\Generated_Source\PSoC5/ADC.c **** 
ARM GAS  C:\Users\Rolando\AppData\Local\Temp\ccUzkFvW.s 			page 2


  32:.\Generated_Source\PSoC5/ADC.c **** /***************************************
  33:.\Generated_Source\PSoC5/ADC.c **** * Global data allocation
  34:.\Generated_Source\PSoC5/ADC.c **** ***************************************/
  35:.\Generated_Source\PSoC5/ADC.c **** uint8 ADC_initVar = 0u;
  36:.\Generated_Source\PSoC5/ADC.c **** volatile int16 ADC_offset;
  37:.\Generated_Source\PSoC5/ADC.c **** volatile int16 ADC_countsPerVolt;     /* Obsolete Gain compensation */
  38:.\Generated_Source\PSoC5/ADC.c **** volatile int32 ADC_countsPer10Volt;   /* Gain compensation */
  39:.\Generated_Source\PSoC5/ADC.c **** volatile int16 ADC_shift;
  40:.\Generated_Source\PSoC5/ADC.c **** 
  41:.\Generated_Source\PSoC5/ADC.c **** 
  42:.\Generated_Source\PSoC5/ADC.c **** /*******************************************************************************
  43:.\Generated_Source\PSoC5/ADC.c **** * Function Name: ADC_Start
  44:.\Generated_Source\PSoC5/ADC.c **** ********************************************************************************
  45:.\Generated_Source\PSoC5/ADC.c **** *
  46:.\Generated_Source\PSoC5/ADC.c **** * Summary:
  47:.\Generated_Source\PSoC5/ADC.c **** *  This is the preferred method to begin component operation.
  48:.\Generated_Source\PSoC5/ADC.c **** *  ADC_Start() sets the initVar variable, calls the
  49:.\Generated_Source\PSoC5/ADC.c **** *  ADC_Init() function, and then calls the
  50:.\Generated_Source\PSoC5/ADC.c **** *  ADC_Enable() function.
  51:.\Generated_Source\PSoC5/ADC.c **** *
  52:.\Generated_Source\PSoC5/ADC.c **** * Parameters:
  53:.\Generated_Source\PSoC5/ADC.c **** *  None.
  54:.\Generated_Source\PSoC5/ADC.c **** *
  55:.\Generated_Source\PSoC5/ADC.c **** * Return:
  56:.\Generated_Source\PSoC5/ADC.c **** *  None.
  57:.\Generated_Source\PSoC5/ADC.c **** *
  58:.\Generated_Source\PSoC5/ADC.c **** * Global variables:
  59:.\Generated_Source\PSoC5/ADC.c **** *  The ADC_initVar variable is used to indicate when/if initial
  60:.\Generated_Source\PSoC5/ADC.c **** *  configuration of this component has happened. The variable is initialized to
  61:.\Generated_Source\PSoC5/ADC.c **** *  zero and set to 1 the first time ADC_Start() is called. This allows for
  62:.\Generated_Source\PSoC5/ADC.c **** *  component Re-Start without re-initialization in all subsequent calls to the
  63:.\Generated_Source\PSoC5/ADC.c **** *  ADC_Start() routine.
  64:.\Generated_Source\PSoC5/ADC.c **** *  If re-initialization of the component is required the variable should be set
  65:.\Generated_Source\PSoC5/ADC.c **** *  to zero before call of ADC_Start() routine, or the user may call
  66:.\Generated_Source\PSoC5/ADC.c **** *  ADC_Init() and ADC_Enable() as done in the
  67:.\Generated_Source\PSoC5/ADC.c **** *  ADC_Start() routine.
  68:.\Generated_Source\PSoC5/ADC.c **** *
  69:.\Generated_Source\PSoC5/ADC.c **** * Side Effect:
  70:.\Generated_Source\PSoC5/ADC.c **** *  If the initVar variable is already set, this function only calls the
  71:.\Generated_Source\PSoC5/ADC.c **** *  ADC_Enable() function.
  72:.\Generated_Source\PSoC5/ADC.c **** *
  73:.\Generated_Source\PSoC5/ADC.c **** *******************************************************************************/
  74:.\Generated_Source\PSoC5/ADC.c **** void ADC_Start(void)
  75:.\Generated_Source\PSoC5/ADC.c **** {
  76:.\Generated_Source\PSoC5/ADC.c **** 
  77:.\Generated_Source\PSoC5/ADC.c ****     /* If not Initialized then initialize all required hardware and software */
  78:.\Generated_Source\PSoC5/ADC.c ****     if(ADC_initVar == 0u)
  79:.\Generated_Source\PSoC5/ADC.c ****     {
  80:.\Generated_Source\PSoC5/ADC.c ****         ADC_Init();
  81:.\Generated_Source\PSoC5/ADC.c ****         ADC_initVar = 1u;
  82:.\Generated_Source\PSoC5/ADC.c ****     }
  83:.\Generated_Source\PSoC5/ADC.c ****     ADC_Enable();
  84:.\Generated_Source\PSoC5/ADC.c **** }
  85:.\Generated_Source\PSoC5/ADC.c **** 
  86:.\Generated_Source\PSoC5/ADC.c **** 
  87:.\Generated_Source\PSoC5/ADC.c **** /*******************************************************************************
  88:.\Generated_Source\PSoC5/ADC.c **** * Function Name: ADC_Init
ARM GAS  C:\Users\Rolando\AppData\Local\Temp\ccUzkFvW.s 			page 3


  89:.\Generated_Source\PSoC5/ADC.c **** ********************************************************************************
  90:.\Generated_Source\PSoC5/ADC.c **** *
  91:.\Generated_Source\PSoC5/ADC.c **** * Summary:
  92:.\Generated_Source\PSoC5/ADC.c **** *  Initialize component's parameters to the parameters set by user in the
  93:.\Generated_Source\PSoC5/ADC.c **** *  customizer of the component placed onto schematic. Usually called in
  94:.\Generated_Source\PSoC5/ADC.c **** *  ADC_Start().
  95:.\Generated_Source\PSoC5/ADC.c **** *
  96:.\Generated_Source\PSoC5/ADC.c **** * Parameters:
  97:.\Generated_Source\PSoC5/ADC.c **** *  None.
  98:.\Generated_Source\PSoC5/ADC.c **** *
  99:.\Generated_Source\PSoC5/ADC.c **** * Return:
 100:.\Generated_Source\PSoC5/ADC.c **** *  None.
 101:.\Generated_Source\PSoC5/ADC.c **** *
 102:.\Generated_Source\PSoC5/ADC.c **** * Global variables:
 103:.\Generated_Source\PSoC5/ADC.c **** *  The ADC_offset variable is initialized to 0.
 104:.\Generated_Source\PSoC5/ADC.c **** *
 105:.\Generated_Source\PSoC5/ADC.c **** *******************************************************************************/
 106:.\Generated_Source\PSoC5/ADC.c **** void ADC_Init(void)
 107:.\Generated_Source\PSoC5/ADC.c **** {
 108:.\Generated_Source\PSoC5/ADC.c **** 
 109:.\Generated_Source\PSoC5/ADC.c ****     /* This is only valid if there is an internal clock */
 110:.\Generated_Source\PSoC5/ADC.c ****     #if(ADC_DEFAULT_INTERNAL_CLK)
 111:.\Generated_Source\PSoC5/ADC.c ****         ADC_theACLK_SetMode(CYCLK_DUTY);
 112:.\Generated_Source\PSoC5/ADC.c ****     #endif /* End ADC_DEFAULT_INTERNAL_CLK */
 113:.\Generated_Source\PSoC5/ADC.c **** 
 114:.\Generated_Source\PSoC5/ADC.c ****     #if(ADC_IRQ_REMOVE == 0u)
 115:.\Generated_Source\PSoC5/ADC.c ****         /* Start and set interrupt vector */
 116:.\Generated_Source\PSoC5/ADC.c ****         CyIntSetPriority(ADC_INTC_NUMBER, ADC_INTC_PRIOR_NUMBER);
 117:.\Generated_Source\PSoC5/ADC.c ****         (void)CyIntSetVector(ADC_INTC_NUMBER, &ADC_ISR);
 118:.\Generated_Source\PSoC5/ADC.c ****     #endif   /* End ADC_IRQ_REMOVE */
 119:.\Generated_Source\PSoC5/ADC.c **** 
 120:.\Generated_Source\PSoC5/ADC.c ****     /* Enable IRQ mode*/
 121:.\Generated_Source\PSoC5/ADC.c ****     ADC_SAR_CSR1_REG |= ADC_SAR_IRQ_MASK_EN | ADC_SAR_IRQ_MODE_EDGE;
 122:.\Generated_Source\PSoC5/ADC.c **** 
 123:.\Generated_Source\PSoC5/ADC.c ****     /*Set SAR ADC resolution ADC */
 124:.\Generated_Source\PSoC5/ADC.c ****     ADC_SetResolution(ADC_DEFAULT_RESOLUTION);
 125:.\Generated_Source\PSoC5/ADC.c ****     ADC_offset = 0;
 126:.\Generated_Source\PSoC5/ADC.c **** }
 127:.\Generated_Source\PSoC5/ADC.c **** 
 128:.\Generated_Source\PSoC5/ADC.c **** 
 129:.\Generated_Source\PSoC5/ADC.c **** /*******************************************************************************
 130:.\Generated_Source\PSoC5/ADC.c **** * Function Name: ADC_Enable
 131:.\Generated_Source\PSoC5/ADC.c **** ********************************************************************************
 132:.\Generated_Source\PSoC5/ADC.c **** *
 133:.\Generated_Source\PSoC5/ADC.c **** * Summary:
 134:.\Generated_Source\PSoC5/ADC.c **** *  Enables the reference, clock and power for SAR ADC.
 135:.\Generated_Source\PSoC5/ADC.c **** *
 136:.\Generated_Source\PSoC5/ADC.c **** * Parameters:
 137:.\Generated_Source\PSoC5/ADC.c **** *  None.
 138:.\Generated_Source\PSoC5/ADC.c **** *
 139:.\Generated_Source\PSoC5/ADC.c **** * Return:
 140:.\Generated_Source\PSoC5/ADC.c **** *  None.
 141:.\Generated_Source\PSoC5/ADC.c **** *
 142:.\Generated_Source\PSoC5/ADC.c **** *******************************************************************************/
 143:.\Generated_Source\PSoC5/ADC.c **** void ADC_Enable(void)
 144:.\Generated_Source\PSoC5/ADC.c **** {
  27              		.loc 1 144 0
ARM GAS  C:\Users\Rolando\AppData\Local\Temp\ccUzkFvW.s 			page 4


  28              		.cfi_startproc
  29              		@ args = 0, pretend = 0, frame = 0
  30              		@ frame_needed = 0, uses_anonymous_args = 0
  31 0000 10B5     		push	{r4, lr}
  32              		.cfi_def_cfa_offset 8
  33              		.cfi_offset 4, -8
  34              		.cfi_offset 14, -4
 145:.\Generated_Source\PSoC5/ADC.c ****     uint8 tmpReg;
 146:.\Generated_Source\PSoC5/ADC.c ****     uint8 enableInterrupts;
 147:.\Generated_Source\PSoC5/ADC.c ****     enableInterrupts = CyEnterCriticalSection();
  35              		.loc 1 147 0
  36 0002 FFF7FEFF 		bl	CyEnterCriticalSection
  37              	.LVL0:
 148:.\Generated_Source\PSoC5/ADC.c **** 
 149:.\Generated_Source\PSoC5/ADC.c ****     /* Enable the SAR ADC block in Active Power Mode */
 150:.\Generated_Source\PSoC5/ADC.c ****     ADC_PWRMGR_SAR_REG |= ADC_ACT_PWR_SAR_EN;
  38              		.loc 1 150 0
  39 0006 214A     		ldr	r2, .L2
 147:.\Generated_Source\PSoC5/ADC.c **** 
  40              		.loc 1 147 0
  41 0008 0446     		mov	r4, r0
  42              	.LVL1:
  43              		.loc 1 150 0
  44 000a 1378     		ldrb	r3, [r2]	@ zero_extendqisi2
 151:.\Generated_Source\PSoC5/ADC.c **** 
 152:.\Generated_Source\PSoC5/ADC.c ****      /* Enable the SAR ADC in Standby Power Mode*/
 153:.\Generated_Source\PSoC5/ADC.c ****     ADC_STBY_PWRMGR_SAR_REG |= ADC_STBY_PWR_SAR_EN;
 154:.\Generated_Source\PSoC5/ADC.c **** 
 155:.\Generated_Source\PSoC5/ADC.c ****     /* This is only valid if there is an internal clock */
 156:.\Generated_Source\PSoC5/ADC.c ****     #if(ADC_DEFAULT_INTERNAL_CLK)
 157:.\Generated_Source\PSoC5/ADC.c ****         ADC_PWRMGR_CLK_REG |= ADC_ACT_PWR_CLK_EN;
 158:.\Generated_Source\PSoC5/ADC.c ****         ADC_STBY_PWRMGR_CLK_REG |= ADC_STBY_PWR_CLK_EN;
 159:.\Generated_Source\PSoC5/ADC.c ****     #endif /* End ADC_DEFAULT_INTERNAL_CLK */
 160:.\Generated_Source\PSoC5/ADC.c **** 
 161:.\Generated_Source\PSoC5/ADC.c ****     /* Enable VCM buffer and Enable Int Ref Amp */
 162:.\Generated_Source\PSoC5/ADC.c ****     tmpReg = ADC_SAR_CSR3_REG;
 163:.\Generated_Source\PSoC5/ADC.c ****     tmpReg |= ADC_SAR_EN_BUF_VCM_EN;
 164:.\Generated_Source\PSoC5/ADC.c ****     /* PD_BUF_VREF is OFF in External reference or Vdda reference mode */
 165:.\Generated_Source\PSoC5/ADC.c ****     #if((ADC_DEFAULT_REFERENCE == ADC__EXT_REF) || \
 166:.\Generated_Source\PSoC5/ADC.c ****         (ADC_DEFAULT_RANGE == ADC__VNEG_VDDA_DIFF))
 167:.\Generated_Source\PSoC5/ADC.c ****         tmpReg &= (uint8)~ADC_SAR_EN_BUF_VREF_EN;
 168:.\Generated_Source\PSoC5/ADC.c ****     #else /* In INTREF or INTREF Bypassed this buffer is ON */
 169:.\Generated_Source\PSoC5/ADC.c ****         tmpReg |= ADC_SAR_EN_BUF_VREF_EN;
 170:.\Generated_Source\PSoC5/ADC.c ****     #endif /* ADC_DEFAULT_REFERENCE == ADC__EXT_REF */
 171:.\Generated_Source\PSoC5/ADC.c ****     ADC_SAR_CSR3_REG = tmpReg;
 172:.\Generated_Source\PSoC5/ADC.c **** 
 173:.\Generated_Source\PSoC5/ADC.c ****     /* Set reference for ADC */
 174:.\Generated_Source\PSoC5/ADC.c ****     #if(ADC_DEFAULT_RANGE == ADC__VNEG_VDDA_DIFF)
 175:.\Generated_Source\PSoC5/ADC.c ****         #if(ADC_DEFAULT_REFERENCE == ADC__EXT_REF)
 176:.\Generated_Source\PSoC5/ADC.c ****             ADC_SAR_CSR6_REG = ADC_INT_BYPASS_EXT_VREF; /* S2 */
 177:.\Generated_Source\PSoC5/ADC.c ****         #else /* Internal Vdda reference or obsolete bypass mode */
 178:.\Generated_Source\PSoC5/ADC.c ****             ADC_SAR_CSR6_REG = ADC_VDDA_VREF;           /* S7 */
 179:.\Generated_Source\PSoC5/ADC.c ****         #endif /* ADC_DEFAULT_REFERENCE == ADC__EXT_REF */
 180:.\Generated_Source\PSoC5/ADC.c ****     #else  /* Reference goes through internal buffer */
 181:.\Generated_Source\PSoC5/ADC.c ****         #if(ADC_DEFAULT_REFERENCE == ADC__INT_REF_NOT_BYPASSED)
 182:.\Generated_Source\PSoC5/ADC.c ****             ADC_SAR_CSR6_REG = ADC_INT_VREF;            /* S3 + S4 */
 183:.\Generated_Source\PSoC5/ADC.c ****         #else /* INTREF Bypassed of External */
ARM GAS  C:\Users\Rolando\AppData\Local\Temp\ccUzkFvW.s 			page 5


 184:.\Generated_Source\PSoC5/ADC.c ****             ADC_SAR_CSR6_REG = ADC_INT_BYPASS_EXT_VREF; /* S2 */
 185:.\Generated_Source\PSoC5/ADC.c ****         #endif /* ADC_DEFAULT_REFERENCE == ADC__INT_REF_NOT_BYPASSED */
 186:.\Generated_Source\PSoC5/ADC.c ****     #endif /* VNEG_VDDA_DIFF */
 187:.\Generated_Source\PSoC5/ADC.c **** 
 188:.\Generated_Source\PSoC5/ADC.c ****     /* Low non-overlap delay for sampling clock signals (for 1MSPS) */
 189:.\Generated_Source\PSoC5/ADC.c ****     #if(ADC_HIGH_POWER_PULSE == 0u) /* MinPulseWidth <= 50 ns */
 190:.\Generated_Source\PSoC5/ADC.c ****         ADC_SAR_CSR5_REG &= (uint8)~ADC_SAR_DLY_INC;
 191:.\Generated_Source\PSoC5/ADC.c ****     #else /* Set High non-overlap delay for sampling clock signals (for <500KSPS)*/
 192:.\Generated_Source\PSoC5/ADC.c ****         ADC_SAR_CSR5_REG |= ADC_SAR_DLY_INC;
 193:.\Generated_Source\PSoC5/ADC.c ****     #endif /* ADC_CLOCK_FREQUENCY > (ADC_MAX_FREQUENCY / 2) */
 194:.\Generated_Source\PSoC5/ADC.c **** 
 195:.\Generated_Source\PSoC5/ADC.c ****      /* Delay control for comparator latch enable, low delay, (Default for 1MSPS) */
 196:.\Generated_Source\PSoC5/ADC.c ****     #if(ADC_HIGH_POWER_PULSE == 0u) /* MinPulseWidth <= 50 ns */
 197:.\Generated_Source\PSoC5/ADC.c ****         ADC_SAR_CSR5_REG |= ADC_SAR_DCEN;
 198:.\Generated_Source\PSoC5/ADC.c ****     #else /* Delay control for comparator latch enable, high delay (for <500ksps)*/
 199:.\Generated_Source\PSoC5/ADC.c ****         ADC_SAR_CSR5_REG &= (uint8)~ADC_SAR_DCEN;
 200:.\Generated_Source\PSoC5/ADC.c ****     #endif /* ADC_CLOCK_FREQUENCY > (ADC_MAX_FREQUENCY / 2) */
 201:.\Generated_Source\PSoC5/ADC.c **** 
 202:.\Generated_Source\PSoC5/ADC.c ****     /* Set default power and other configurations for control register 0 in multiple lines */
 203:.\Generated_Source\PSoC5/ADC.c ****     ADC_SAR_CSR0_REG = (uint8)((uint8)ADC_DEFAULT_POWER << ADC_SAR_POWER_SHIFT)
 204:.\Generated_Source\PSoC5/ADC.c ****     /* SAR_HIZ_CLEAR:   Should not be used for LP */
 205:.\Generated_Source\PSoC5/ADC.c ****     #if ((CY_PSOC5LP) || (ADC_DEFAULT_REFERENCE != ADC__EXT_REF))
 206:.\Generated_Source\PSoC5/ADC.c ****         | ADC_SAR_HIZ_CLEAR
 207:.\Generated_Source\PSoC5/ADC.c ****     #endif /* SAR_HIZ_CLEAR */
 208:.\Generated_Source\PSoC5/ADC.c ****     /*Set Convertion mode */
 209:.\Generated_Source\PSoC5/ADC.c ****     #if(ADC_DEFAULT_CONV_MODE != ADC__FREE_RUNNING)      /* If triggered mode */
 210:.\Generated_Source\PSoC5/ADC.c ****         | ADC_SAR_MX_SOF_UDB           /* source: UDB */
 211:.\Generated_Source\PSoC5/ADC.c ****         | ADC_SAR_SOF_MODE_EDGE        /* Set edge-sensitive sof source */
 212:.\Generated_Source\PSoC5/ADC.c ****     #endif /* ADC_DEFAULT_CONV_MODE */
 213:.\Generated_Source\PSoC5/ADC.c ****     ; /* end of multiple line initialization */
 214:.\Generated_Source\PSoC5/ADC.c **** 
 215:.\Generated_Source\PSoC5/ADC.c ****     ADC_SAR_TR0_REG = ADC_SAR_CAP_TRIM_2;
 216:.\Generated_Source\PSoC5/ADC.c **** 
 217:.\Generated_Source\PSoC5/ADC.c ****     /* Enable clock for SAR ADC*/
 218:.\Generated_Source\PSoC5/ADC.c ****     ADC_SAR_CLK_REG |= ADC_SAR_MX_CLK_EN;
 219:.\Generated_Source\PSoC5/ADC.c **** 
 220:.\Generated_Source\PSoC5/ADC.c ****     CyDelayUs(10u); /* The block is ready to use 10 us after the enable signal is set high. */
  45              		.loc 1 220 0
  46 000c 0A20     		movs	r0, #10
 150:.\Generated_Source\PSoC5/ADC.c **** 
  47              		.loc 1 150 0
  48 000e 43F00103 		orr	r3, r3, #1
  49 0012 1370     		strb	r3, [r2]
 153:.\Generated_Source\PSoC5/ADC.c **** 
  50              		.loc 1 153 0
  51 0014 137C     		ldrb	r3, [r2, #16]	@ zero_extendqisi2
  52 0016 43F00103 		orr	r3, r3, #1
  53 001a 1374     		strb	r3, [r2, #16]
 157:.\Generated_Source\PSoC5/ADC.c ****         ADC_STBY_PWRMGR_CLK_REG |= ADC_STBY_PWR_CLK_EN;
  54              		.loc 1 157 0
  55 001c 12F80A3C 		ldrb	r3, [r2, #-10]	@ zero_extendqisi2
  56 0020 43F00103 		orr	r3, r3, #1
  57 0024 02F80A3C 		strb	r3, [r2, #-10]
 158:.\Generated_Source\PSoC5/ADC.c ****     #endif /* End ADC_DEFAULT_INTERNAL_CLK */
  58              		.loc 1 158 0
  59 0028 9379     		ldrb	r3, [r2, #6]	@ zero_extendqisi2
  60 002a 43F00103 		orr	r3, r3, #1
ARM GAS  C:\Users\Rolando\AppData\Local\Temp\ccUzkFvW.s 			page 6


  61 002e 9371     		strb	r3, [r2, #6]
 162:.\Generated_Source\PSoC5/ADC.c ****     tmpReg |= ADC_SAR_EN_BUF_VCM_EN;
  62              		.loc 1 162 0
  63 0030 02F5AA52 		add	r2, r2, #5440
  64 0034 1832     		adds	r2, r2, #24
  65 0036 1378     		ldrb	r3, [r2]	@ zero_extendqisi2
  66              	.LVL2:
 169:.\Generated_Source\PSoC5/ADC.c ****     #endif /* ADC_DEFAULT_REFERENCE == ADC__EXT_REF */
  67              		.loc 1 169 0
  68 0038 43F00303 		orr	r3, r3, #3
  69              	.LVL3:
 171:.\Generated_Source\PSoC5/ADC.c **** 
  70              		.loc 1 171 0
  71 003c 1370     		strb	r3, [r2]
 182:.\Generated_Source\PSoC5/ADC.c ****         #else /* INTREF Bypassed of External */
  72              		.loc 1 182 0
  73 003e 144B     		ldr	r3, .L2+4
  74              	.LVL4:
  75 0040 1822     		movs	r2, #24
  76              	.LVL5:
  77 0042 1A70     		strb	r2, [r3]
  78              	.LVL6:
 192:.\Generated_Source\PSoC5/ADC.c ****     #endif /* ADC_CLOCK_FREQUENCY > (ADC_MAX_FREQUENCY / 2) */
  79              		.loc 1 192 0
  80 0044 13F8012C 		ldrb	r2, [r3, #-1]	@ zero_extendqisi2
  81 0048 42F04002 		orr	r2, r2, #64
  82 004c 03F8012C 		strb	r2, [r3, #-1]
 199:.\Generated_Source\PSoC5/ADC.c ****     #endif /* ADC_CLOCK_FREQUENCY > (ADC_MAX_FREQUENCY / 2) */
  83              		.loc 1 199 0
  84 0050 13F8012C 		ldrb	r2, [r3, #-1]	@ zero_extendqisi2
  85 0054 02F0DF02 		and	r2, r2, #223
  86 0058 03F8012C 		strb	r2, [r3, #-1]
 203:.\Generated_Source\PSoC5/ADC.c ****     /* SAR_HIZ_CLEAR:   Should not be used for LP */
  87              		.loc 1 203 0
  88 005c C822     		movs	r2, #200
  89 005e 03F8062C 		strb	r2, [r3, #-6]
 215:.\Generated_Source\PSoC5/ADC.c **** 
  90              		.loc 1 215 0
  91 0062 A3F59753 		sub	r3, r3, #4832
  92 0066 0222     		movs	r2, #2
  93 0068 123B     		subs	r3, r3, #18
  94 006a 1A70     		strb	r2, [r3]
 218:.\Generated_Source\PSoC5/ADC.c **** 
  95              		.loc 1 218 0
  96 006c 094A     		ldr	r2, .L2+8
  97 006e 1378     		ldrb	r3, [r2]	@ zero_extendqisi2
  98 0070 43F00803 		orr	r3, r3, #8
  99 0074 1370     		strb	r3, [r2]
 100              		.loc 1 220 0
 101 0076 FFF7FEFF 		bl	CyDelayUs
 102              	.LVL7:
 221:.\Generated_Source\PSoC5/ADC.c **** 
 222:.\Generated_Source\PSoC5/ADC.c ****     #if(ADC_IRQ_REMOVE == 0u)
 223:.\Generated_Source\PSoC5/ADC.c ****         /* Clear a pending interrupt */
 224:.\Generated_Source\PSoC5/ADC.c ****         CyIntClearPending(ADC_INTC_NUMBER);
 103              		.loc 1 224 0
 104 007a 074B     		ldr	r3, .L2+12
ARM GAS  C:\Users\Rolando\AppData\Local\Temp\ccUzkFvW.s 			page 7


 105 007c 0122     		movs	r2, #1
 225:.\Generated_Source\PSoC5/ADC.c ****     #endif   /* End ADC_IRQ_REMOVE */
 226:.\Generated_Source\PSoC5/ADC.c **** 
 227:.\Generated_Source\PSoC5/ADC.c ****     CyExitCriticalSection(enableInterrupts);
 106              		.loc 1 227 0
 107 007e 2046     		mov	r0, r4
 228:.\Generated_Source\PSoC5/ADC.c **** }
 108              		.loc 1 228 0
 109 0080 BDE81040 		pop	{r4, lr}
 110              		.cfi_restore 14
 111              		.cfi_restore 4
 112              		.cfi_def_cfa_offset 0
 113              	.LVL8:
 224:.\Generated_Source\PSoC5/ADC.c ****     #endif   /* End ADC_IRQ_REMOVE */
 114              		.loc 1 224 0
 115 0084 1A60     		str	r2, [r3]
 227:.\Generated_Source\PSoC5/ADC.c **** }
 116              		.loc 1 227 0
 117 0086 FFF7FEBF 		b	CyExitCriticalSection
 118              	.LVL9:
 119              	.L3:
 120 008a 00BF     		.align	2
 121              	.L2:
 122 008c AB430040 		.word	1073759147
 123 0090 06590040 		.word	1073764614
 124 0094 275B0040 		.word	1073765159
 125 0098 80E200E0 		.word	-536812928
 126              		.cfi_endproc
 127              	.LFE2:
 128              		.size	ADC_Enable, .-ADC_Enable
 129              		.section	.text.ADC_Stop,"ax",%progbits
 130              		.align	1
 131              		.global	ADC_Stop
 132              		.thumb
 133              		.thumb_func
 134              		.type	ADC_Stop, %function
 135              	ADC_Stop:
 136              	.LFB3:
 229:.\Generated_Source\PSoC5/ADC.c **** 
 230:.\Generated_Source\PSoC5/ADC.c **** 
 231:.\Generated_Source\PSoC5/ADC.c **** /*******************************************************************************
 232:.\Generated_Source\PSoC5/ADC.c **** * Function Name: ADC_Stop
 233:.\Generated_Source\PSoC5/ADC.c **** ********************************************************************************
 234:.\Generated_Source\PSoC5/ADC.c **** *
 235:.\Generated_Source\PSoC5/ADC.c **** * Summary:
 236:.\Generated_Source\PSoC5/ADC.c **** *  Stops ADC conversions and puts the ADC into its lowest power mode.
 237:.\Generated_Source\PSoC5/ADC.c **** *
 238:.\Generated_Source\PSoC5/ADC.c **** * Parameters:
 239:.\Generated_Source\PSoC5/ADC.c **** *  None.
 240:.\Generated_Source\PSoC5/ADC.c **** *
 241:.\Generated_Source\PSoC5/ADC.c **** * Return:
 242:.\Generated_Source\PSoC5/ADC.c **** *  None.
 243:.\Generated_Source\PSoC5/ADC.c **** *
 244:.\Generated_Source\PSoC5/ADC.c **** *******************************************************************************/
 245:.\Generated_Source\PSoC5/ADC.c **** void ADC_Stop(void)
 246:.\Generated_Source\PSoC5/ADC.c **** {
 137              		.loc 1 246 0
ARM GAS  C:\Users\Rolando\AppData\Local\Temp\ccUzkFvW.s 			page 8


 138              		.cfi_startproc
 139              		@ args = 0, pretend = 0, frame = 0
 140              		@ frame_needed = 0, uses_anonymous_args = 0
 141 0000 08B5     		push	{r3, lr}
 142              		.cfi_def_cfa_offset 8
 143              		.cfi_offset 3, -8
 144              		.cfi_offset 14, -4
 247:.\Generated_Source\PSoC5/ADC.c ****     uint8 enableInterrupts;
 248:.\Generated_Source\PSoC5/ADC.c ****     enableInterrupts = CyEnterCriticalSection();
 145              		.loc 1 248 0
 146 0002 FFF7FEFF 		bl	CyEnterCriticalSection
 147              	.LVL10:
 249:.\Generated_Source\PSoC5/ADC.c **** 
 250:.\Generated_Source\PSoC5/ADC.c ****     /* Stop all conversions */
 251:.\Generated_Source\PSoC5/ADC.c ****     ADC_SAR_CSR0_REG &= (uint8)~ADC_SAR_SOF_START_CONV;
 148              		.loc 1 251 0
 149 0006 0F4A     		ldr	r2, .L5
 150 0008 1378     		ldrb	r3, [r2]	@ zero_extendqisi2
 151 000a 03F0FE03 		and	r3, r3, #254
 152 000e 1370     		strb	r3, [r2]
 252:.\Generated_Source\PSoC5/ADC.c ****     /* Disable the SAR ADC block in Active Power Mode */
 253:.\Generated_Source\PSoC5/ADC.c ****     ADC_PWRMGR_SAR_REG &= (uint8)~ADC_ACT_PWR_SAR_EN;
 153              		.loc 1 253 0
 154 0010 A2F5AA52 		sub	r2, r2, #5440
 155 0014 153A     		subs	r2, r2, #21
 156 0016 1378     		ldrb	r3, [r2]	@ zero_extendqisi2
 157 0018 03F0FE03 		and	r3, r3, #254
 158 001c 1370     		strb	r3, [r2]
 254:.\Generated_Source\PSoC5/ADC.c ****     /* Disable the SAR ADC in Standby Power Mode */
 255:.\Generated_Source\PSoC5/ADC.c ****     ADC_STBY_PWRMGR_SAR_REG &= (uint8)~ADC_STBY_PWR_SAR_EN;
 159              		.loc 1 255 0
 160 001e 137C     		ldrb	r3, [r2, #16]	@ zero_extendqisi2
 161 0020 03F0FE03 		and	r3, r3, #254
 162 0024 1374     		strb	r3, [r2, #16]
 256:.\Generated_Source\PSoC5/ADC.c **** 
 257:.\Generated_Source\PSoC5/ADC.c ****     /* This is only valid if there is an internal clock */
 258:.\Generated_Source\PSoC5/ADC.c ****     #if(ADC_DEFAULT_INTERNAL_CLK)
 259:.\Generated_Source\PSoC5/ADC.c ****         ADC_PWRMGR_CLK_REG &= (uint8)~ADC_ACT_PWR_CLK_EN;
 163              		.loc 1 259 0
 164 0026 12F80A3C 		ldrb	r3, [r2, #-10]	@ zero_extendqisi2
 165 002a 03F0FE03 		and	r3, r3, #254
 166 002e 02F80A3C 		strb	r3, [r2, #-10]
 260:.\Generated_Source\PSoC5/ADC.c ****         ADC_STBY_PWRMGR_CLK_REG &= (uint8)~ADC_STBY_PWR_CLK_EN;
 167              		.loc 1 260 0
 168 0032 9379     		ldrb	r3, [r2, #6]	@ zero_extendqisi2
 169 0034 03F0FE03 		and	r3, r3, #254
 170 0038 9371     		strb	r3, [r2, #6]
 261:.\Generated_Source\PSoC5/ADC.c ****     #endif /* End ADC_DEFAULT_INTERNAL_CLK */
 262:.\Generated_Source\PSoC5/ADC.c **** 
 263:.\Generated_Source\PSoC5/ADC.c ****     CyExitCriticalSection(enableInterrupts);
 264:.\Generated_Source\PSoC5/ADC.c **** 
 265:.\Generated_Source\PSoC5/ADC.c **** }
 171              		.loc 1 265 0
 172 003a BDE80840 		pop	{r3, lr}
 173              		.cfi_restore 14
 174              		.cfi_restore 3
 175              		.cfi_def_cfa_offset 0
ARM GAS  C:\Users\Rolando\AppData\Local\Temp\ccUzkFvW.s 			page 9


 263:.\Generated_Source\PSoC5/ADC.c **** 
 176              		.loc 1 263 0
 177 003e FFF7FEBF 		b	CyExitCriticalSection
 178              	.LVL11:
 179              	.L6:
 180 0042 00BF     		.align	2
 181              	.L5:
 182 0044 00590040 		.word	1073764608
 183              		.cfi_endproc
 184              	.LFE3:
 185              		.size	ADC_Stop, .-ADC_Stop
 186              		.section	.text.ADC_SetPower,"ax",%progbits
 187              		.align	1
 188              		.global	ADC_SetPower
 189              		.thumb
 190              		.thumb_func
 191              		.type	ADC_SetPower, %function
 192              	ADC_SetPower:
 193              	.LFB4:
 266:.\Generated_Source\PSoC5/ADC.c **** 
 267:.\Generated_Source\PSoC5/ADC.c **** 
 268:.\Generated_Source\PSoC5/ADC.c **** /*******************************************************************************
 269:.\Generated_Source\PSoC5/ADC.c **** * Function Name: ADC_SetPower
 270:.\Generated_Source\PSoC5/ADC.c **** ********************************************************************************
 271:.\Generated_Source\PSoC5/ADC.c **** *
 272:.\Generated_Source\PSoC5/ADC.c **** * Summary:
 273:.\Generated_Source\PSoC5/ADC.c **** *  Sets the operational power of the ADC. You should use the higher power
 274:.\Generated_Source\PSoC5/ADC.c **** *  settings with faster clock speeds.
 275:.\Generated_Source\PSoC5/ADC.c **** *
 276:.\Generated_Source\PSoC5/ADC.c **** * Parameters:
 277:.\Generated_Source\PSoC5/ADC.c **** *  power:  Power setting for ADC
 278:.\Generated_Source\PSoC5/ADC.c **** *  0 ->    Normal
 279:.\Generated_Source\PSoC5/ADC.c **** *  1 ->    Medium power
 280:.\Generated_Source\PSoC5/ADC.c **** *  2 ->    1.25 power
 281:.\Generated_Source\PSoC5/ADC.c **** *  3 ->    Minimum power.
 282:.\Generated_Source\PSoC5/ADC.c **** *
 283:.\Generated_Source\PSoC5/ADC.c **** * Return:
 284:.\Generated_Source\PSoC5/ADC.c **** *  None.
 285:.\Generated_Source\PSoC5/ADC.c **** *
 286:.\Generated_Source\PSoC5/ADC.c **** *******************************************************************************/
 287:.\Generated_Source\PSoC5/ADC.c **** void ADC_SetPower(uint8 power)
 288:.\Generated_Source\PSoC5/ADC.c **** {
 194              		.loc 1 288 0
 195              		.cfi_startproc
 196              		@ args = 0, pretend = 0, frame = 0
 197              		@ frame_needed = 0, uses_anonymous_args = 0
 198              		@ link register save eliminated.
 199              	.LVL12:
 289:.\Generated_Source\PSoC5/ADC.c ****     uint8 tmpReg;
 290:.\Generated_Source\PSoC5/ADC.c **** 
 291:.\Generated_Source\PSoC5/ADC.c ****     /* mask off invalid power settings */
 292:.\Generated_Source\PSoC5/ADC.c ****     power &= ADC_SAR_API_POWER_MASK;
 293:.\Generated_Source\PSoC5/ADC.c **** 
 294:.\Generated_Source\PSoC5/ADC.c ****     /* Set Power parameter  */
 295:.\Generated_Source\PSoC5/ADC.c ****     tmpReg = ADC_SAR_CSR0_REG & (uint8)~ADC_SAR_POWER_MASK;
 200              		.loc 1 295 0
 201 0000 044A     		ldr	r2, .L8
ARM GAS  C:\Users\Rolando\AppData\Local\Temp\ccUzkFvW.s 			page 10


 292:.\Generated_Source\PSoC5/ADC.c **** 
 202              		.loc 1 292 0
 203 0002 00F00300 		and	r0, r0, #3
 204              	.LVL13:
 205              		.loc 1 295 0
 206 0006 1378     		ldrb	r3, [r2]	@ zero_extendqisi2
 207 0008 03F03F03 		and	r3, r3, #63
 208              	.LVL14:
 296:.\Generated_Source\PSoC5/ADC.c ****     tmpReg |= (uint8)(power << ADC_SAR_POWER_SHIFT);
 209              		.loc 1 296 0
 210 000c 43EA8013 		orr	r3, r3, r0, lsl #6
 211              	.LVL15:
 297:.\Generated_Source\PSoC5/ADC.c ****     ADC_SAR_CSR0_REG = tmpReg;
 212              		.loc 1 297 0
 213 0010 1370     		strb	r3, [r2]
 214 0012 7047     		bx	lr
 215              	.L9:
 216              		.align	2
 217              	.L8:
 218 0014 00590040 		.word	1073764608
 219              		.cfi_endproc
 220              	.LFE4:
 221              		.size	ADC_SetPower, .-ADC_SetPower
 222              		.section	.text.ADC_SetResolution,"ax",%progbits
 223              		.align	1
 224              		.global	ADC_SetResolution
 225              		.thumb
 226              		.thumb_func
 227              		.type	ADC_SetResolution, %function
 228              	ADC_SetResolution:
 229              	.LFB5:
 298:.\Generated_Source\PSoC5/ADC.c **** }
 299:.\Generated_Source\PSoC5/ADC.c **** 
 300:.\Generated_Source\PSoC5/ADC.c **** 
 301:.\Generated_Source\PSoC5/ADC.c **** /*******************************************************************************
 302:.\Generated_Source\PSoC5/ADC.c **** * Function Name: ADC_SetResolution
 303:.\Generated_Source\PSoC5/ADC.c **** ********************************************************************************
 304:.\Generated_Source\PSoC5/ADC.c **** *
 305:.\Generated_Source\PSoC5/ADC.c **** * Summary:
 306:.\Generated_Source\PSoC5/ADC.c **** *  Sets the Relution of the SAR.
 307:.\Generated_Source\PSoC5/ADC.c **** *
 308:.\Generated_Source\PSoC5/ADC.c **** * Parameters:
 309:.\Generated_Source\PSoC5/ADC.c **** *  resolution:
 310:.\Generated_Source\PSoC5/ADC.c **** *  12 ->    RES12
 311:.\Generated_Source\PSoC5/ADC.c **** *  10 ->    RES10
 312:.\Generated_Source\PSoC5/ADC.c **** *  8  ->    RES8
 313:.\Generated_Source\PSoC5/ADC.c **** *
 314:.\Generated_Source\PSoC5/ADC.c **** * Return:
 315:.\Generated_Source\PSoC5/ADC.c **** *  None.
 316:.\Generated_Source\PSoC5/ADC.c **** *
 317:.\Generated_Source\PSoC5/ADC.c **** * Side Effects:
 318:.\Generated_Source\PSoC5/ADC.c **** *  The ADC resolution cannot be changed during a conversion cycle. The
 319:.\Generated_Source\PSoC5/ADC.c **** *  recommended best practice is to stop conversions with
 320:.\Generated_Source\PSoC5/ADC.c **** *  ADC_StopConvert(), change the resolution, then restart the
 321:.\Generated_Source\PSoC5/ADC.c **** *  conversions with ADC_StartConvert().
 322:.\Generated_Source\PSoC5/ADC.c **** *  If you decide not to stop conversions before calling this API, you
 323:.\Generated_Source\PSoC5/ADC.c **** *  should use ADC_IsEndConversion() to wait until conversion is complete
ARM GAS  C:\Users\Rolando\AppData\Local\Temp\ccUzkFvW.s 			page 11


 324:.\Generated_Source\PSoC5/ADC.c **** *  before changing the resolution.
 325:.\Generated_Source\PSoC5/ADC.c **** *  If you call ADC_SetResolution() during a conversion, the resolution will
 326:.\Generated_Source\PSoC5/ADC.c **** *  not be changed until the current conversion is complete. Data will not be
 327:.\Generated_Source\PSoC5/ADC.c **** *  available in the new resolution for another 6 + "New Resolution(in bits)"
 328:.\Generated_Source\PSoC5/ADC.c **** *  clock cycles.
 329:.\Generated_Source\PSoC5/ADC.c **** *  You may need add a delay of this number of clock cycles after
 330:.\Generated_Source\PSoC5/ADC.c **** *  ADC_SetResolution() is called before data is valid again.
 331:.\Generated_Source\PSoC5/ADC.c **** *  Affects ADC_CountsTo_Volts(), ADC_CountsTo_mVolts(), and
 332:.\Generated_Source\PSoC5/ADC.c **** *  ADC_CountsTo_uVolts() by calculating the correct conversion between ADC
 333:.\Generated_Source\PSoC5/ADC.c **** *  counts and the applied input voltage. Calculation depends on resolution,
 334:.\Generated_Source\PSoC5/ADC.c **** *  input range, and voltage reference.
 335:.\Generated_Source\PSoC5/ADC.c **** *
 336:.\Generated_Source\PSoC5/ADC.c **** *******************************************************************************/
 337:.\Generated_Source\PSoC5/ADC.c **** void ADC_SetResolution(uint8 resolution)
 338:.\Generated_Source\PSoC5/ADC.c **** {
 230              		.loc 1 338 0
 231              		.cfi_startproc
 232              		@ args = 0, pretend = 0, frame = 0
 233              		@ frame_needed = 0, uses_anonymous_args = 0
 234              	.LVL16:
 339:.\Generated_Source\PSoC5/ADC.c ****     uint8 tmpReg;
 340:.\Generated_Source\PSoC5/ADC.c **** 
 341:.\Generated_Source\PSoC5/ADC.c ****     /* Set SAR ADC resolution and sample width: 18 conversion cycles at 12bits + 1 gap */
 342:.\Generated_Source\PSoC5/ADC.c ****     switch (resolution)
 235              		.loc 1 342 0
 236 0000 0A28     		cmp	r0, #10
 338:.\Generated_Source\PSoC5/ADC.c ****     uint8 tmpReg;
 237              		.loc 1 338 0
 238 0002 10B5     		push	{r4, lr}
 239              		.cfi_def_cfa_offset 8
 240              		.cfi_offset 4, -8
 241              		.cfi_offset 14, -4
 338:.\Generated_Source\PSoC5/ADC.c ****     uint8 tmpReg;
 242              		.loc 1 338 0
 243 0004 0446     		mov	r4, r0
 244              		.loc 1 342 0
 245 0006 05D0     		beq	.L12
 246 0008 0C28     		cmp	r0, #12
 247 000a 08D0     		beq	.L19
 248 000c 0828     		cmp	r0, #8
 249 000e 03D1     		bne	.L21
 250              	.LVL17:
 343:.\Generated_Source\PSoC5/ADC.c ****     {
 344:.\Generated_Source\PSoC5/ADC.c ****         case (uint8)ADC__BITS_12:
 345:.\Generated_Source\PSoC5/ADC.c ****             tmpReg = ADC_SAR_RESOLUTION_12BIT | ADC_SAR_SAMPLE_WIDTH;
 346:.\Generated_Source\PSoC5/ADC.c ****             break;
 347:.\Generated_Source\PSoC5/ADC.c ****         case (uint8)ADC__BITS_10:
 348:.\Generated_Source\PSoC5/ADC.c ****             tmpReg = ADC_SAR_RESOLUTION_10BIT | ADC_SAR_SAMPLE_WIDTH;
 349:.\Generated_Source\PSoC5/ADC.c ****             break;
 350:.\Generated_Source\PSoC5/ADC.c ****         case (uint8)ADC__BITS_8:
 351:.\Generated_Source\PSoC5/ADC.c ****             tmpReg = ADC_SAR_RESOLUTION_8BIT | ADC_SAR_SAMPLE_WIDTH;
 251              		.loc 1 351 0
 252 0010 4423     		movs	r3, #68
 352:.\Generated_Source\PSoC5/ADC.c ****             break;
 253              		.loc 1 352 0
 254 0012 05E0     		b	.L13
 255              	.LVL18:
ARM GAS  C:\Users\Rolando\AppData\Local\Temp\ccUzkFvW.s 			page 12


 256              	.L12:
 348:.\Generated_Source\PSoC5/ADC.c ****             break;
 257              		.loc 1 348 0
 258 0014 8423     		movs	r3, #132
 259 0016 03E0     		b	.L13
 260              	.L21:
 261              	.LVL19:
 353:.\Generated_Source\PSoC5/ADC.c ****         default:
 354:.\Generated_Source\PSoC5/ADC.c ****             tmpReg = ADC_SAR_RESOLUTION_12BIT | ADC_SAR_SAMPLE_WIDTH;
 355:.\Generated_Source\PSoC5/ADC.c ****             /* Halt CPU in debug mode if resolution is out of valid range */
 356:.\Generated_Source\PSoC5/ADC.c ****             CYASSERT(0u != 0u);
 262              		.loc 1 356 0
 263 0018 0020     		movs	r0, #0
 264              	.LVL20:
 265 001a FFF7FEFF 		bl	CyHalt
 266              	.LVL21:
 267              	.L19:
 345:.\Generated_Source\PSoC5/ADC.c ****             break;
 268              		.loc 1 345 0
 269 001e C423     		movs	r3, #196
 270              	.L13:
 357:.\Generated_Source\PSoC5/ADC.c ****             break;
 358:.\Generated_Source\PSoC5/ADC.c ****     }
 359:.\Generated_Source\PSoC5/ADC.c ****     ADC_SAR_CSR2_REG = tmpReg;
 271              		.loc 1 359 0
 272 0020 124A     		ldr	r2, .L24
 273              	.LBB4:
 274              	.LBB5:
 360:.\Generated_Source\PSoC5/ADC.c **** 
 361:.\Generated_Source\PSoC5/ADC.c ****      /* Calculate gain for convert counts to volts */
 362:.\Generated_Source\PSoC5/ADC.c ****     ADC_CalcGain(resolution);
 363:.\Generated_Source\PSoC5/ADC.c **** }
 364:.\Generated_Source\PSoC5/ADC.c **** 
 365:.\Generated_Source\PSoC5/ADC.c **** 
 366:.\Generated_Source\PSoC5/ADC.c **** #if(ADC_DEFAULT_CONV_MODE != ADC__HARDWARE_TRIGGER)
 367:.\Generated_Source\PSoC5/ADC.c **** 
 368:.\Generated_Source\PSoC5/ADC.c **** 
 369:.\Generated_Source\PSoC5/ADC.c ****     /*******************************************************************************
 370:.\Generated_Source\PSoC5/ADC.c ****     * Function Name: ADC_StartConvert
 371:.\Generated_Source\PSoC5/ADC.c ****     ********************************************************************************
 372:.\Generated_Source\PSoC5/ADC.c ****     *
 373:.\Generated_Source\PSoC5/ADC.c ****     * Summary:
 374:.\Generated_Source\PSoC5/ADC.c ****     *  Forces the ADC to initiate a conversion. In free-running mode, the ADC runs
 375:.\Generated_Source\PSoC5/ADC.c ****     *  continuously. In software trigger mode, the function also acts as a software
 376:.\Generated_Source\PSoC5/ADC.c ****     *  version of the SOC and every conversion must be triggered by
 377:.\Generated_Source\PSoC5/ADC.c ****     *  ADC_StartConvert(). This function is not available when the
 378:.\Generated_Source\PSoC5/ADC.c ****     *  Hardware Trigger sample mode is selected.
 379:.\Generated_Source\PSoC5/ADC.c ****     *
 380:.\Generated_Source\PSoC5/ADC.c ****     * Parameters:
 381:.\Generated_Source\PSoC5/ADC.c ****     *  None.
 382:.\Generated_Source\PSoC5/ADC.c ****     *
 383:.\Generated_Source\PSoC5/ADC.c ****     * Return:
 384:.\Generated_Source\PSoC5/ADC.c ****     *  None.
 385:.\Generated_Source\PSoC5/ADC.c ****     *
 386:.\Generated_Source\PSoC5/ADC.c ****     * Theory:
 387:.\Generated_Source\PSoC5/ADC.c ****     *  Forces the ADC to initiate a conversion. In Free Running mode, the ADC will
 388:.\Generated_Source\PSoC5/ADC.c ****     *  run continuously. In a software trigger mode the function also acts as a
ARM GAS  C:\Users\Rolando\AppData\Local\Temp\ccUzkFvW.s 			page 13


 389:.\Generated_Source\PSoC5/ADC.c ****     *  software version of the SOC. Here every conversion has to be triggered by
 390:.\Generated_Source\PSoC5/ADC.c ****     *  the routine. This writes into the SOC bit in SAR_CTRL reg.
 391:.\Generated_Source\PSoC5/ADC.c ****     *
 392:.\Generated_Source\PSoC5/ADC.c ****     * Side Effects:
 393:.\Generated_Source\PSoC5/ADC.c ****     *  In a software trigger mode the function switches source for SOF from the
 394:.\Generated_Source\PSoC5/ADC.c ****     *  external pin to the internal SOF generation. Application should not call
 395:.\Generated_Source\PSoC5/ADC.c ****     *  StartConvert if external source used for SOF.
 396:.\Generated_Source\PSoC5/ADC.c ****     *
 397:.\Generated_Source\PSoC5/ADC.c ****     *******************************************************************************/
 398:.\Generated_Source\PSoC5/ADC.c ****     void ADC_StartConvert(void)
 399:.\Generated_Source\PSoC5/ADC.c ****     {
 400:.\Generated_Source\PSoC5/ADC.c ****         #if(ADC_DEFAULT_CONV_MODE != ADC__FREE_RUNNING)  /* If software triggered mode */
 401:.\Generated_Source\PSoC5/ADC.c ****             ADC_SAR_CSR0_REG &= (uint8)~ADC_SAR_MX_SOF_UDB;   /* source: SOF bit */
 402:.\Generated_Source\PSoC5/ADC.c ****         #endif /* End ADC_DEFAULT_CONV_MODE */
 403:.\Generated_Source\PSoC5/ADC.c **** 
 404:.\Generated_Source\PSoC5/ADC.c ****         /* Start the conversion */
 405:.\Generated_Source\PSoC5/ADC.c ****         ADC_SAR_CSR0_REG |= ADC_SAR_SOF_START_CONV;
 406:.\Generated_Source\PSoC5/ADC.c ****     }
 407:.\Generated_Source\PSoC5/ADC.c **** 
 408:.\Generated_Source\PSoC5/ADC.c **** 
 409:.\Generated_Source\PSoC5/ADC.c ****     /*******************************************************************************
 410:.\Generated_Source\PSoC5/ADC.c ****     * Function Name: ADC_StopConvert
 411:.\Generated_Source\PSoC5/ADC.c ****     ********************************************************************************
 412:.\Generated_Source\PSoC5/ADC.c ****     *
 413:.\Generated_Source\PSoC5/ADC.c ****     * Summary:
 414:.\Generated_Source\PSoC5/ADC.c ****     *  Forces the ADC to stop conversions. If a conversion is currently executing,
 415:.\Generated_Source\PSoC5/ADC.c ****     *  that conversion will complete, but no further conversions will occur. This
 416:.\Generated_Source\PSoC5/ADC.c ****     *  function is not available when the Hardware Trigger sample mode is selected.
 417:.\Generated_Source\PSoC5/ADC.c ****     *
 418:.\Generated_Source\PSoC5/ADC.c ****     * Parameters:
 419:.\Generated_Source\PSoC5/ADC.c ****     *  None.
 420:.\Generated_Source\PSoC5/ADC.c ****     *
 421:.\Generated_Source\PSoC5/ADC.c ****     * Return:
 422:.\Generated_Source\PSoC5/ADC.c ****     *  None.
 423:.\Generated_Source\PSoC5/ADC.c ****     *
 424:.\Generated_Source\PSoC5/ADC.c ****     * Theory:
 425:.\Generated_Source\PSoC5/ADC.c ****     *  Stops ADC conversion in Free Running mode.
 426:.\Generated_Source\PSoC5/ADC.c ****     *
 427:.\Generated_Source\PSoC5/ADC.c ****     * Side Effects:
 428:.\Generated_Source\PSoC5/ADC.c ****     *  In Software Trigger sample mode, this function sets a software version of the
 429:.\Generated_Source\PSoC5/ADC.c ****     *  SOC to low level and switches the SOC source to hardware SOC input.
 430:.\Generated_Source\PSoC5/ADC.c ****     *
 431:.\Generated_Source\PSoC5/ADC.c ****     *******************************************************************************/
 432:.\Generated_Source\PSoC5/ADC.c ****     void ADC_StopConvert(void)
 433:.\Generated_Source\PSoC5/ADC.c ****     {
 434:.\Generated_Source\PSoC5/ADC.c ****         /* Stop all conversions */
 435:.\Generated_Source\PSoC5/ADC.c ****         ADC_SAR_CSR0_REG &= (uint8)~ADC_SAR_SOF_START_CONV;
 436:.\Generated_Source\PSoC5/ADC.c **** 
 437:.\Generated_Source\PSoC5/ADC.c ****         #if(ADC_DEFAULT_CONV_MODE != ADC__FREE_RUNNING)  /* If software triggered mode */
 438:.\Generated_Source\PSoC5/ADC.c ****             /* Return source to UDB for hardware SOF signal */
 439:.\Generated_Source\PSoC5/ADC.c ****             ADC_SAR_CSR0_REG |= ADC_SAR_MX_SOF_UDB;    /* source: UDB */
 440:.\Generated_Source\PSoC5/ADC.c ****         #endif /* End ADC_DEFAULT_CONV_MODE */
 441:.\Generated_Source\PSoC5/ADC.c **** 
 442:.\Generated_Source\PSoC5/ADC.c ****     }
 443:.\Generated_Source\PSoC5/ADC.c **** 
 444:.\Generated_Source\PSoC5/ADC.c **** #endif /* End ADC_DEFAULT_CONV_MODE != ADC__HARDWARE_TRIGGER */
 445:.\Generated_Source\PSoC5/ADC.c **** 
ARM GAS  C:\Users\Rolando\AppData\Local\Temp\ccUzkFvW.s 			page 14


 446:.\Generated_Source\PSoC5/ADC.c **** 
 447:.\Generated_Source\PSoC5/ADC.c **** /*******************************************************************************
 448:.\Generated_Source\PSoC5/ADC.c **** * Function Name: ADC_IsEndConversion
 449:.\Generated_Source\PSoC5/ADC.c **** ********************************************************************************
 450:.\Generated_Source\PSoC5/ADC.c **** *
 451:.\Generated_Source\PSoC5/ADC.c **** * Summary:
 452:.\Generated_Source\PSoC5/ADC.c **** *  Immediately returns the status of the conversion or does not return
 453:.\Generated_Source\PSoC5/ADC.c **** *  (blocking) until the conversion completes, depending on the retMode
 454:.\Generated_Source\PSoC5/ADC.c **** *  parameter.
 455:.\Generated_Source\PSoC5/ADC.c **** *
 456:.\Generated_Source\PSoC5/ADC.c **** * Parameters:
 457:.\Generated_Source\PSoC5/ADC.c **** *  retMode:  Check conversion return mode.
 458:.\Generated_Source\PSoC5/ADC.c **** *   ADC_RETURN_STATUS: Immediately returns the status. If the
 459:.\Generated_Source\PSoC5/ADC.c **** *     value returned is zero, the conversion is not complete, and this function
 460:.\Generated_Source\PSoC5/ADC.c **** *     should be retried until a nonzero result is returned.
 461:.\Generated_Source\PSoC5/ADC.c **** *   ADC_WAIT_FOR_RESULT: Does not return a result until the ADC
 462:.\Generated_Source\PSoC5/ADC.c **** *     conversion is complete.
 463:.\Generated_Source\PSoC5/ADC.c **** *
 464:.\Generated_Source\PSoC5/ADC.c **** * Return:
 465:.\Generated_Source\PSoC5/ADC.c **** *  (uint8)  0 =>  The ADC is still calculating the last result.
 466:.\Generated_Source\PSoC5/ADC.c **** *           1 =>  The last conversion is complete.
 467:.\Generated_Source\PSoC5/ADC.c **** *
 468:.\Generated_Source\PSoC5/ADC.c **** * Side Effects:
 469:.\Generated_Source\PSoC5/ADC.c **** *  This function reads the end of conversion status, which is cleared on read.
 470:.\Generated_Source\PSoC5/ADC.c **** *
 471:.\Generated_Source\PSoC5/ADC.c **** *******************************************************************************/
 472:.\Generated_Source\PSoC5/ADC.c **** uint8 ADC_IsEndConversion(uint8 retMode)
 473:.\Generated_Source\PSoC5/ADC.c **** {
 474:.\Generated_Source\PSoC5/ADC.c ****     uint8 status;
 475:.\Generated_Source\PSoC5/ADC.c **** 
 476:.\Generated_Source\PSoC5/ADC.c ****     do
 477:.\Generated_Source\PSoC5/ADC.c ****     {
 478:.\Generated_Source\PSoC5/ADC.c ****         status = ADC_SAR_CSR1_REG & ADC_SAR_EOF_1;
 479:.\Generated_Source\PSoC5/ADC.c ****     } while ((status != ADC_SAR_EOF_1) && (retMode == ADC_WAIT_FOR_RESULT));
 480:.\Generated_Source\PSoC5/ADC.c ****     /* If convertion complete, wait until EOF bit released */
 481:.\Generated_Source\PSoC5/ADC.c ****     if(status == ADC_SAR_EOF_1)
 482:.\Generated_Source\PSoC5/ADC.c ****     {
 483:.\Generated_Source\PSoC5/ADC.c ****         /* wait one ADC clock to let the EOC status bit release */
 484:.\Generated_Source\PSoC5/ADC.c ****         CyDelayUs(1u);
 485:.\Generated_Source\PSoC5/ADC.c ****         /* Do the unconditional read operation of the CSR1 register to make sure the EOC bit has be
 486:.\Generated_Source\PSoC5/ADC.c ****         CY_GET_REG8(ADC_SAR_CSR1_PTR);
 487:.\Generated_Source\PSoC5/ADC.c ****     }
 488:.\Generated_Source\PSoC5/ADC.c **** 
 489:.\Generated_Source\PSoC5/ADC.c ****     return(status);
 490:.\Generated_Source\PSoC5/ADC.c **** }
 491:.\Generated_Source\PSoC5/ADC.c **** 
 492:.\Generated_Source\PSoC5/ADC.c **** 
 493:.\Generated_Source\PSoC5/ADC.c **** /*******************************************************************************
 494:.\Generated_Source\PSoC5/ADC.c **** * Function Name: ADC_GetResult8
 495:.\Generated_Source\PSoC5/ADC.c **** ********************************************************************************
 496:.\Generated_Source\PSoC5/ADC.c **** *
 497:.\Generated_Source\PSoC5/ADC.c **** * Summary:
 498:.\Generated_Source\PSoC5/ADC.c **** *  Returns the result of an 8-bit conversion. If the resolution is set greater
 499:.\Generated_Source\PSoC5/ADC.c **** *  than 8 bits, the function returns the LSB of the result.
 500:.\Generated_Source\PSoC5/ADC.c **** *  ADC_IsEndConversion() should be called to verify that the data
 501:.\Generated_Source\PSoC5/ADC.c **** *   sample is ready.
 502:.\Generated_Source\PSoC5/ADC.c **** *
ARM GAS  C:\Users\Rolando\AppData\Local\Temp\ccUzkFvW.s 			page 15


 503:.\Generated_Source\PSoC5/ADC.c **** * Parameters:
 504:.\Generated_Source\PSoC5/ADC.c **** *  None.
 505:.\Generated_Source\PSoC5/ADC.c **** *
 506:.\Generated_Source\PSoC5/ADC.c **** * Return:
 507:.\Generated_Source\PSoC5/ADC.c **** *  The LSB of the last ADC conversion.
 508:.\Generated_Source\PSoC5/ADC.c **** *
 509:.\Generated_Source\PSoC5/ADC.c **** * Global Variables:
 510:.\Generated_Source\PSoC5/ADC.c **** *  ADC_shift - used to convert the ADC counts to the 2s
 511:.\Generated_Source\PSoC5/ADC.c **** *  compliment form.
 512:.\Generated_Source\PSoC5/ADC.c **** *
 513:.\Generated_Source\PSoC5/ADC.c **** * Side Effects:
 514:.\Generated_Source\PSoC5/ADC.c **** *  Converts the ADC counts to the 2s complement form.
 515:.\Generated_Source\PSoC5/ADC.c **** *
 516:.\Generated_Source\PSoC5/ADC.c **** *******************************************************************************/
 517:.\Generated_Source\PSoC5/ADC.c **** int8 ADC_GetResult8( void )
 518:.\Generated_Source\PSoC5/ADC.c **** {
 519:.\Generated_Source\PSoC5/ADC.c ****     return( (int8)ADC_SAR_WRK0_REG - (int8)ADC_shift);
 520:.\Generated_Source\PSoC5/ADC.c **** }
 521:.\Generated_Source\PSoC5/ADC.c **** 
 522:.\Generated_Source\PSoC5/ADC.c **** 
 523:.\Generated_Source\PSoC5/ADC.c **** /*******************************************************************************
 524:.\Generated_Source\PSoC5/ADC.c **** * Function Name: ADC_GetResult16
 525:.\Generated_Source\PSoC5/ADC.c **** ********************************************************************************
 526:.\Generated_Source\PSoC5/ADC.c **** *
 527:.\Generated_Source\PSoC5/ADC.c **** * Summary:
 528:.\Generated_Source\PSoC5/ADC.c **** *  Returns a 16-bit result for a conversion with a result that has a resolution
 529:.\Generated_Source\PSoC5/ADC.c **** *  of 8 to 12 bits.
 530:.\Generated_Source\PSoC5/ADC.c **** *  ADC_IsEndConversion() should be called to verify that the data
 531:.\Generated_Source\PSoC5/ADC.c **** *   sample is ready
 532:.\Generated_Source\PSoC5/ADC.c **** *
 533:.\Generated_Source\PSoC5/ADC.c **** * Parameters:
 534:.\Generated_Source\PSoC5/ADC.c **** *  None.
 535:.\Generated_Source\PSoC5/ADC.c **** *
 536:.\Generated_Source\PSoC5/ADC.c **** * Return:
 537:.\Generated_Source\PSoC5/ADC.c **** *  The 16-bit result of the last ADC conversion
 538:.\Generated_Source\PSoC5/ADC.c **** *
 539:.\Generated_Source\PSoC5/ADC.c **** * Global Variables:
 540:.\Generated_Source\PSoC5/ADC.c **** *  ADC_shift - used to convert the ADC counts to the 2s
 541:.\Generated_Source\PSoC5/ADC.c **** *  compliment form.
 542:.\Generated_Source\PSoC5/ADC.c **** *
 543:.\Generated_Source\PSoC5/ADC.c **** * Side Effects:
 544:.\Generated_Source\PSoC5/ADC.c **** *  Converts the ADC counts to the 2s complement form.
 545:.\Generated_Source\PSoC5/ADC.c **** *
 546:.\Generated_Source\PSoC5/ADC.c **** *******************************************************************************/
 547:.\Generated_Source\PSoC5/ADC.c **** int16 ADC_GetResult16( void )
 548:.\Generated_Source\PSoC5/ADC.c **** {
 549:.\Generated_Source\PSoC5/ADC.c ****     uint16 res;
 550:.\Generated_Source\PSoC5/ADC.c **** 
 551:.\Generated_Source\PSoC5/ADC.c ****     res = CY_GET_REG16(ADC_SAR_WRK_PTR);
 552:.\Generated_Source\PSoC5/ADC.c **** 
 553:.\Generated_Source\PSoC5/ADC.c ****     return( (int16)res - ADC_shift );
 554:.\Generated_Source\PSoC5/ADC.c **** }
 555:.\Generated_Source\PSoC5/ADC.c **** 
 556:.\Generated_Source\PSoC5/ADC.c **** 
 557:.\Generated_Source\PSoC5/ADC.c **** /*******************************************************************************
 558:.\Generated_Source\PSoC5/ADC.c **** * Function Name: ADC_SetOffset
 559:.\Generated_Source\PSoC5/ADC.c **** ********************************************************************************
ARM GAS  C:\Users\Rolando\AppData\Local\Temp\ccUzkFvW.s 			page 16


 560:.\Generated_Source\PSoC5/ADC.c **** *
 561:.\Generated_Source\PSoC5/ADC.c **** * Summary:
 562:.\Generated_Source\PSoC5/ADC.c **** *  Sets the ADC offset, which is used by ADC_CountsTo_Volts(),
 563:.\Generated_Source\PSoC5/ADC.c **** *  ADC_CountsTo_mVolts(), and ADC_CountsTo_uVolts()
 564:.\Generated_Source\PSoC5/ADC.c **** *  to subtract the offset from the given reading before calculating the voltage
 565:.\Generated_Source\PSoC5/ADC.c **** *  conversion.
 566:.\Generated_Source\PSoC5/ADC.c **** *
 567:.\Generated_Source\PSoC5/ADC.c **** * Parameters:
 568:.\Generated_Source\PSoC5/ADC.c **** *  int16: This value is measured when the inputs are shorted or connected to
 569:.\Generated_Source\PSoC5/ADC.c ****    the same input voltage.
 570:.\Generated_Source\PSoC5/ADC.c **** *
 571:.\Generated_Source\PSoC5/ADC.c **** * Return:
 572:.\Generated_Source\PSoC5/ADC.c **** *  None.
 573:.\Generated_Source\PSoC5/ADC.c **** *
 574:.\Generated_Source\PSoC5/ADC.c **** * Global Variables:
 575:.\Generated_Source\PSoC5/ADC.c **** *  The ADC_offset variable modified. This variable is used for
 576:.\Generated_Source\PSoC5/ADC.c **** *  offset calibration purpose.
 577:.\Generated_Source\PSoC5/ADC.c **** *  Affects the ADC_CountsTo_Volts,
 578:.\Generated_Source\PSoC5/ADC.c **** *  ADC_CountsTo_mVolts, ADC_CountsTo_uVolts functions
 579:.\Generated_Source\PSoC5/ADC.c **** *  by subtracting the given offset.
 580:.\Generated_Source\PSoC5/ADC.c **** *
 581:.\Generated_Source\PSoC5/ADC.c **** *******************************************************************************/
 582:.\Generated_Source\PSoC5/ADC.c **** void ADC_SetOffset(int16 offset)
 583:.\Generated_Source\PSoC5/ADC.c **** {
 584:.\Generated_Source\PSoC5/ADC.c ****     ADC_offset = offset;
 585:.\Generated_Source\PSoC5/ADC.c **** }
 586:.\Generated_Source\PSoC5/ADC.c **** 
 587:.\Generated_Source\PSoC5/ADC.c **** 
 588:.\Generated_Source\PSoC5/ADC.c **** /*******************************************************************************
 589:.\Generated_Source\PSoC5/ADC.c **** * Function Name: ADC_CalcGain
 590:.\Generated_Source\PSoC5/ADC.c **** ********************************************************************************
 591:.\Generated_Source\PSoC5/ADC.c **** *
 592:.\Generated_Source\PSoC5/ADC.c **** * Summary:
 593:.\Generated_Source\PSoC5/ADC.c **** *  This function calculates the ADC gain in counts per 10 volt.
 594:.\Generated_Source\PSoC5/ADC.c **** *
 595:.\Generated_Source\PSoC5/ADC.c **** * Parameters:
 596:.\Generated_Source\PSoC5/ADC.c **** *  uint8: resolution
 597:.\Generated_Source\PSoC5/ADC.c **** *
 598:.\Generated_Source\PSoC5/ADC.c **** * Return:
 599:.\Generated_Source\PSoC5/ADC.c **** *  None.
 600:.\Generated_Source\PSoC5/ADC.c **** *
 601:.\Generated_Source\PSoC5/ADC.c **** * Global Variables:
 602:.\Generated_Source\PSoC5/ADC.c **** *  ADC_shift variable initialized. This variable is used to
 603:.\Generated_Source\PSoC5/ADC.c **** *  convert the ADC counts to the 2s compliment form.
 604:.\Generated_Source\PSoC5/ADC.c **** *  ADC_countsPer10Volt variable initialized. This variable is used
 605:.\Generated_Source\PSoC5/ADC.c **** *  for gain calibration purpose.
 606:.\Generated_Source\PSoC5/ADC.c **** *
 607:.\Generated_Source\PSoC5/ADC.c **** *******************************************************************************/
 608:.\Generated_Source\PSoC5/ADC.c **** static void ADC_CalcGain( uint8 resolution )
 609:.\Generated_Source\PSoC5/ADC.c **** {
 610:.\Generated_Source\PSoC5/ADC.c ****     int32 counts;
 611:.\Generated_Source\PSoC5/ADC.c ****     #if(!((ADC_DEFAULT_RANGE == ADC__VSS_TO_VREF) || \
 612:.\Generated_Source\PSoC5/ADC.c ****          (ADC_DEFAULT_RANGE == ADC__VSSA_TO_VDDA) || \
 613:.\Generated_Source\PSoC5/ADC.c ****          (ADC_DEFAULT_RANGE == ADC__VSSA_TO_VDAC)) )
 614:.\Generated_Source\PSoC5/ADC.c ****         uint16 diff_zero;
 615:.\Generated_Source\PSoC5/ADC.c ****     #endif /* End ADC_DEFAULT_RANGE */
 616:.\Generated_Source\PSoC5/ADC.c **** 
ARM GAS  C:\Users\Rolando\AppData\Local\Temp\ccUzkFvW.s 			page 17


 617:.\Generated_Source\PSoC5/ADC.c ****     switch (resolution)
 275              		.loc 1 617 0
 276 0022 0A2C     		cmp	r4, #10
 277              	.LBE5:
 278              	.LBE4:
 359:.\Generated_Source\PSoC5/ADC.c **** 
 279              		.loc 1 359 0
 280 0024 1370     		strb	r3, [r2]
 281              	.LVL22:
 282              	.LBB7:
 283              	.LBB6:
 284              		.loc 1 617 0
 285 0026 06D0     		beq	.L16
 286 0028 0C2C     		cmp	r4, #12
 287 002a 0CD0     		beq	.L20
 288 002c 082C     		cmp	r4, #8
 289 002e 05D1     		bne	.L22
 290              	.LVL23:
 618:.\Generated_Source\PSoC5/ADC.c ****     {
 619:.\Generated_Source\PSoC5/ADC.c ****         case (uint8)ADC__BITS_12:
 620:.\Generated_Source\PSoC5/ADC.c ****             counts = (int32)ADC_SAR_WRK_MAX_12BIT;
 621:.\Generated_Source\PSoC5/ADC.c ****             #if(!((ADC_DEFAULT_RANGE == ADC__VSS_TO_VREF) || \
 622:.\Generated_Source\PSoC5/ADC.c ****                  (ADC_DEFAULT_RANGE == ADC__VSSA_TO_VDDA) || \
 623:.\Generated_Source\PSoC5/ADC.c ****                  (ADC_DEFAULT_RANGE == ADC__VSSA_TO_VDAC)) )
 624:.\Generated_Source\PSoC5/ADC.c ****                 diff_zero = ADC_SAR_DIFF_SHIFT;
 625:.\Generated_Source\PSoC5/ADC.c ****             #endif /* End ADC_DEFAULT_RANGE */
 626:.\Generated_Source\PSoC5/ADC.c ****             break;
 627:.\Generated_Source\PSoC5/ADC.c ****         case (uint8)ADC__BITS_10:
 628:.\Generated_Source\PSoC5/ADC.c ****             counts = (int32)ADC_SAR_WRK_MAX_10BIT;
 629:.\Generated_Source\PSoC5/ADC.c ****             #if(!((ADC_DEFAULT_RANGE == ADC__VSS_TO_VREF) || \
 630:.\Generated_Source\PSoC5/ADC.c ****                  (ADC_DEFAULT_RANGE == ADC__VSSA_TO_VDDA) || \
 631:.\Generated_Source\PSoC5/ADC.c ****                  (ADC_DEFAULT_RANGE == ADC__VSSA_TO_VDAC)) )
 632:.\Generated_Source\PSoC5/ADC.c ****                 diff_zero = ADC_SAR_DIFF_SHIFT >> 2u;
 633:.\Generated_Source\PSoC5/ADC.c ****             #endif /* End ADC_DEFAULT_RANGE */
 634:.\Generated_Source\PSoC5/ADC.c ****             break;
 635:.\Generated_Source\PSoC5/ADC.c ****         case (uint8)ADC__BITS_8:
 636:.\Generated_Source\PSoC5/ADC.c ****             counts = (int32)ADC_SAR_WRK_MAX_8BIT;
 291              		.loc 1 636 0
 292 0030 4FF48072 		mov	r2, #256
 293 0034 09E0     		b	.L17
 294              	.LVL24:
 295              	.L16:
 628:.\Generated_Source\PSoC5/ADC.c ****             #if(!((ADC_DEFAULT_RANGE == ADC__VSS_TO_VREF) || \
 296              		.loc 1 628 0
 297 0036 4FF48062 		mov	r2, #1024
 298 003a 06E0     		b	.L17
 299              	.L22:
 300              	.LVL25:
 637:.\Generated_Source\PSoC5/ADC.c ****             #if(!((ADC_DEFAULT_RANGE == ADC__VSS_TO_VREF) || \
 638:.\Generated_Source\PSoC5/ADC.c ****                  (ADC_DEFAULT_RANGE == ADC__VSSA_TO_VDDA) || \
 639:.\Generated_Source\PSoC5/ADC.c ****                  (ADC_DEFAULT_RANGE == ADC__VSSA_TO_VDAC)) )
 640:.\Generated_Source\PSoC5/ADC.c ****                 diff_zero = ADC_SAR_DIFF_SHIFT >> 4u;
 641:.\Generated_Source\PSoC5/ADC.c ****             #endif /* End ADC_DEFAULT_RANGE */
 642:.\Generated_Source\PSoC5/ADC.c ****             break;
 643:.\Generated_Source\PSoC5/ADC.c ****         default: /* Halt CPU in debug mode if resolution is out of valid range */
 644:.\Generated_Source\PSoC5/ADC.c ****             counts = 0;
 645:.\Generated_Source\PSoC5/ADC.c ****             #if(!((ADC_DEFAULT_RANGE == ADC__VSS_TO_VREF) || \
ARM GAS  C:\Users\Rolando\AppData\Local\Temp\ccUzkFvW.s 			page 18


 646:.\Generated_Source\PSoC5/ADC.c ****                  (ADC_DEFAULT_RANGE == ADC__VSSA_TO_VDDA) || \
 647:.\Generated_Source\PSoC5/ADC.c ****                  (ADC_DEFAULT_RANGE == ADC__VSSA_TO_VDAC)) )
 648:.\Generated_Source\PSoC5/ADC.c ****                 diff_zero = 0u;
 649:.\Generated_Source\PSoC5/ADC.c ****             #endif /* End ADC_DEFAULT_RANGE */
 650:.\Generated_Source\PSoC5/ADC.c ****             CYASSERT(0u != 0u);
 301              		.loc 1 650 0
 302 003c 0020     		movs	r0, #0
 303 003e FFF7FEFF 		bl	CyHalt
 304              	.LVL26:
 644:.\Generated_Source\PSoC5/ADC.c ****             #if(!((ADC_DEFAULT_RANGE == ADC__VSS_TO_VREF) || \
 305              		.loc 1 644 0
 306 0042 0022     		movs	r2, #0
 307 0044 01E0     		b	.L17
 308              	.LVL27:
 309              	.L20:
 620:.\Generated_Source\PSoC5/ADC.c ****             #if(!((ADC_DEFAULT_RANGE == ADC__VSS_TO_VREF) || \
 310              		.loc 1 620 0
 311 0046 4FF48052 		mov	r2, #4096
 312              	.LVL28:
 313              	.L17:
 651:.\Generated_Source\PSoC5/ADC.c ****             break;
 652:.\Generated_Source\PSoC5/ADC.c ****     }
 653:.\Generated_Source\PSoC5/ADC.c ****     ADC_countsPerVolt = 0; /* Clear obsolete variable */
 314              		.loc 1 653 0
 315 004a 094B     		ldr	r3, .L24+4
 316 004c 0021     		movs	r1, #0
 317 004e 1980     		strh	r1, [r3]	@ movhi
 654:.\Generated_Source\PSoC5/ADC.c ****     /* Calculate gain in counts per 10 volts with rounding */
 655:.\Generated_Source\PSoC5/ADC.c ****     ADC_countsPer10Volt = (((counts * ADC_10MV_COUNTS) +
 318              		.loc 1 655 0
 319 0050 42F21073 		movw	r3, #10000
 320 0054 5343     		muls	r3, r2, r3
 656:.\Generated_Source\PSoC5/ADC.c ****                         ADC_DEFAULT_REF_VOLTAGE_MV) / (ADC_DEFAULT_REF_VOLTAGE_MV * 2));
 321              		.loc 1 656 0
 322 0056 41F28832 		movw	r2, #5000
 323              	.LVL29:
 655:.\Generated_Source\PSoC5/ADC.c ****                         ADC_DEFAULT_REF_VOLTAGE_MV) / (ADC_DEFAULT_REF_VOLTAGE_MV * 2));
 324              		.loc 1 655 0
 325 005a 03F6C413 		addw	r3, r3, #2500
 326              		.loc 1 656 0
 327 005e 93FBF2F3 		sdiv	r3, r3, r2
 655:.\Generated_Source\PSoC5/ADC.c ****                         ADC_DEFAULT_REF_VOLTAGE_MV) / (ADC_DEFAULT_REF_VOLTAGE_MV * 2));
 328              		.loc 1 655 0
 329 0062 044A     		ldr	r2, .L24+8
 330 0064 1360     		str	r3, [r2]
 657:.\Generated_Source\PSoC5/ADC.c **** 
 658:.\Generated_Source\PSoC5/ADC.c ****     #if( (ADC_DEFAULT_RANGE == ADC__VSS_TO_VREF) || \
 659:.\Generated_Source\PSoC5/ADC.c ****          (ADC_DEFAULT_RANGE == ADC__VSSA_TO_VDDA) || \
 660:.\Generated_Source\PSoC5/ADC.c ****          (ADC_DEFAULT_RANGE == ADC__VSSA_TO_VDAC) )
 661:.\Generated_Source\PSoC5/ADC.c ****         ADC_shift = 0;
 331              		.loc 1 661 0
 332 0066 044B     		ldr	r3, .L24+12
 333 0068 1980     		strh	r1, [r3]	@ movhi
 334 006a 10BD     		pop	{r4, pc}
 335              	.L25:
 336              		.align	2
 337              	.L24:
ARM GAS  C:\Users\Rolando\AppData\Local\Temp\ccUzkFvW.s 			page 19


 338 006c 02590040 		.word	1073764610
 339 0070 00000000 		.word	ADC_countsPerVolt
 340 0074 00000000 		.word	ADC_countsPer10Volt
 341 0078 00000000 		.word	ADC_shift
 342              	.LBE6:
 343              	.LBE7:
 344              		.cfi_endproc
 345              	.LFE5:
 346              		.size	ADC_SetResolution, .-ADC_SetResolution
 347              		.section	.text.ADC_Init,"ax",%progbits
 348              		.align	1
 349              		.global	ADC_Init
 350              		.thumb
 351              		.thumb_func
 352              		.type	ADC_Init, %function
 353              	ADC_Init:
 354              	.LFB1:
 107:.\Generated_Source\PSoC5/ADC.c **** 
 355              		.loc 1 107 0
 356              		.cfi_startproc
 357              		@ args = 0, pretend = 0, frame = 0
 358              		@ frame_needed = 0, uses_anonymous_args = 0
 359 0000 08B5     		push	{r3, lr}
 360              		.cfi_def_cfa_offset 8
 361              		.cfi_offset 3, -8
 362              		.cfi_offset 14, -4
 111:.\Generated_Source\PSoC5/ADC.c ****     #endif /* End ADC_DEFAULT_INTERNAL_CLK */
 363              		.loc 1 111 0
 364 0002 1020     		movs	r0, #16
 365 0004 FFF7FEFF 		bl	ADC_theACLK_SetModeRegister
 366              	.LVL30:
 116:.\Generated_Source\PSoC5/ADC.c ****         (void)CyIntSetVector(ADC_INTC_NUMBER, &ADC_ISR);
 367              		.loc 1 116 0
 368 0008 0020     		movs	r0, #0
 369 000a 0721     		movs	r1, #7
 370 000c FFF7FEFF 		bl	CyIntSetPriority
 371              	.LVL31:
 117:.\Generated_Source\PSoC5/ADC.c ****     #endif   /* End ADC_IRQ_REMOVE */
 372              		.loc 1 117 0
 373 0010 0749     		ldr	r1, .L27
 374 0012 0020     		movs	r0, #0
 375 0014 FFF7FEFF 		bl	CyIntSetVector
 376              	.LVL32:
 121:.\Generated_Source\PSoC5/ADC.c **** 
 377              		.loc 1 121 0
 378 0018 064A     		ldr	r2, .L27+4
 124:.\Generated_Source\PSoC5/ADC.c ****     ADC_offset = 0;
 379              		.loc 1 124 0
 380 001a 0820     		movs	r0, #8
 121:.\Generated_Source\PSoC5/ADC.c **** 
 381              		.loc 1 121 0
 382 001c 1378     		ldrb	r3, [r2]	@ zero_extendqisi2
 383 001e 43F00603 		orr	r3, r3, #6
 384 0022 1370     		strb	r3, [r2]
 124:.\Generated_Source\PSoC5/ADC.c ****     ADC_offset = 0;
 385              		.loc 1 124 0
 386 0024 FFF7FEFF 		bl	ADC_SetResolution
ARM GAS  C:\Users\Rolando\AppData\Local\Temp\ccUzkFvW.s 			page 20


 387              	.LVL33:
 125:.\Generated_Source\PSoC5/ADC.c **** }
 388              		.loc 1 125 0
 389 0028 034B     		ldr	r3, .L27+8
 390 002a 0022     		movs	r2, #0
 391 002c 1A80     		strh	r2, [r3]	@ movhi
 392 002e 08BD     		pop	{r3, pc}
 393              	.L28:
 394              		.align	2
 395              	.L27:
 396 0030 00000000 		.word	ADC_ISR
 397 0034 01590040 		.word	1073764609
 398 0038 00000000 		.word	ADC_offset
 399              		.cfi_endproc
 400              	.LFE1:
 401              		.size	ADC_Init, .-ADC_Init
 402              		.section	.text.ADC_Start,"ax",%progbits
 403              		.align	1
 404              		.global	ADC_Start
 405              		.thumb
 406              		.thumb_func
 407              		.type	ADC_Start, %function
 408              	ADC_Start:
 409              	.LFB0:
  75:.\Generated_Source\PSoC5/ADC.c **** 
 410              		.loc 1 75 0
 411              		.cfi_startproc
 412              		@ args = 0, pretend = 0, frame = 0
 413              		@ frame_needed = 0, uses_anonymous_args = 0
 414 0000 10B5     		push	{r4, lr}
 415              		.cfi_def_cfa_offset 8
 416              		.cfi_offset 4, -8
 417              		.cfi_offset 14, -4
  78:.\Generated_Source\PSoC5/ADC.c ****     {
 418              		.loc 1 78 0
 419 0002 054C     		ldr	r4, .L31
 420 0004 2378     		ldrb	r3, [r4]	@ zero_extendqisi2
 421 0006 1BB9     		cbnz	r3, .L30
  80:.\Generated_Source\PSoC5/ADC.c ****         ADC_initVar = 1u;
 422              		.loc 1 80 0
 423 0008 FFF7FEFF 		bl	ADC_Init
 424              	.LVL34:
  81:.\Generated_Source\PSoC5/ADC.c ****     }
 425              		.loc 1 81 0
 426 000c 0123     		movs	r3, #1
 427 000e 2370     		strb	r3, [r4]
 428              	.L30:
  84:.\Generated_Source\PSoC5/ADC.c **** 
 429              		.loc 1 84 0
 430 0010 BDE81040 		pop	{r4, lr}
 431              		.cfi_restore 14
 432              		.cfi_restore 4
 433              		.cfi_def_cfa_offset 0
  83:.\Generated_Source\PSoC5/ADC.c **** }
 434              		.loc 1 83 0
 435 0014 FFF7FEBF 		b	ADC_Enable
 436              	.LVL35:
ARM GAS  C:\Users\Rolando\AppData\Local\Temp\ccUzkFvW.s 			page 21


 437              	.L32:
 438              		.align	2
 439              	.L31:
 440 0018 00000000 		.word	.LANCHOR0
 441              		.cfi_endproc
 442              	.LFE0:
 443              		.size	ADC_Start, .-ADC_Start
 444              		.section	.text.ADC_StartConvert,"ax",%progbits
 445              		.align	1
 446              		.global	ADC_StartConvert
 447              		.thumb
 448              		.thumb_func
 449              		.type	ADC_StartConvert, %function
 450              	ADC_StartConvert:
 451              	.LFB6:
 399:.\Generated_Source\PSoC5/ADC.c ****         #if(ADC_DEFAULT_CONV_MODE != ADC__FREE_RUNNING)  /* If software triggered mode */
 452              		.loc 1 399 0
 453              		.cfi_startproc
 454              		@ args = 0, pretend = 0, frame = 0
 455              		@ frame_needed = 0, uses_anonymous_args = 0
 456              		@ link register save eliminated.
 405:.\Generated_Source\PSoC5/ADC.c ****     }
 457              		.loc 1 405 0
 458 0000 024A     		ldr	r2, .L34
 459 0002 1378     		ldrb	r3, [r2]	@ zero_extendqisi2
 460 0004 43F00103 		orr	r3, r3, #1
 461 0008 1370     		strb	r3, [r2]
 462 000a 7047     		bx	lr
 463              	.L35:
 464              		.align	2
 465              	.L34:
 466 000c 00590040 		.word	1073764608
 467              		.cfi_endproc
 468              	.LFE6:
 469              		.size	ADC_StartConvert, .-ADC_StartConvert
 470              		.section	.text.ADC_StopConvert,"ax",%progbits
 471              		.align	1
 472              		.global	ADC_StopConvert
 473              		.thumb
 474              		.thumb_func
 475              		.type	ADC_StopConvert, %function
 476              	ADC_StopConvert:
 477              	.LFB7:
 433:.\Generated_Source\PSoC5/ADC.c ****         /* Stop all conversions */
 478              		.loc 1 433 0
 479              		.cfi_startproc
 480              		@ args = 0, pretend = 0, frame = 0
 481              		@ frame_needed = 0, uses_anonymous_args = 0
 482              		@ link register save eliminated.
 435:.\Generated_Source\PSoC5/ADC.c **** 
 483              		.loc 1 435 0
 484 0000 024A     		ldr	r2, .L37
 485 0002 1378     		ldrb	r3, [r2]	@ zero_extendqisi2
 486 0004 03F0FE03 		and	r3, r3, #254
 487 0008 1370     		strb	r3, [r2]
 488 000a 7047     		bx	lr
 489              	.L38:
ARM GAS  C:\Users\Rolando\AppData\Local\Temp\ccUzkFvW.s 			page 22


 490              		.align	2
 491              	.L37:
 492 000c 00590040 		.word	1073764608
 493              		.cfi_endproc
 494              	.LFE7:
 495              		.size	ADC_StopConvert, .-ADC_StopConvert
 496              		.section	.text.ADC_IsEndConversion,"ax",%progbits
 497              		.align	1
 498              		.global	ADC_IsEndConversion
 499              		.thumb
 500              		.thumb_func
 501              		.type	ADC_IsEndConversion, %function
 502              	ADC_IsEndConversion:
 503              	.LFB8:
 473:.\Generated_Source\PSoC5/ADC.c ****     uint8 status;
 504              		.loc 1 473 0
 505              		.cfi_startproc
 506              		@ args = 0, pretend = 0, frame = 0
 507              		@ frame_needed = 0, uses_anonymous_args = 0
 508              	.LVL36:
 509 0000 38B5     		push	{r3, r4, r5, lr}
 510              		.cfi_def_cfa_offset 16
 511              		.cfi_offset 3, -16
 512              		.cfi_offset 4, -12
 513              		.cfi_offset 5, -8
 514              		.cfi_offset 14, -4
 515              	.L41:
 478:.\Generated_Source\PSoC5/ADC.c ****     } while ((status != ADC_SAR_EOF_1) && (retMode == ADC_WAIT_FOR_RESULT));
 516              		.loc 1 478 0 discriminator 2
 517 0002 074D     		ldr	r5, .L46
 518 0004 2C78     		ldrb	r4, [r5]	@ zero_extendqisi2
 519              	.LVL37:
 479:.\Generated_Source\PSoC5/ADC.c ****     /* If convertion complete, wait until EOF bit released */
 520              		.loc 1 479 0 discriminator 2
 521 0006 14F00104 		ands	r4, r4, #1
 522              	.LVL38:
 523 000a 03D1     		bne	.L40
 479:.\Generated_Source\PSoC5/ADC.c ****     /* If convertion complete, wait until EOF bit released */
 524              		.loc 1 479 0 is_stmt 0 discriminator 1
 525 000c 0028     		cmp	r0, #0
 526 000e F8D0     		beq	.L41
 527 0010 0024     		movs	r4, #0
 528 0012 03E0     		b	.L45
 529              	.L40:
 484:.\Generated_Source\PSoC5/ADC.c ****         /* Do the unconditional read operation of the CSR1 register to make sure the EOC bit has be
 530              		.loc 1 484 0 is_stmt 1
 531 0014 2046     		mov	r0, r4
 532              	.LVL39:
 533 0016 FFF7FEFF 		bl	CyDelayUs
 534              	.LVL40:
 486:.\Generated_Source\PSoC5/ADC.c ****     }
 535              		.loc 1 486 0
 536 001a 2B78     		ldrb	r3, [r5]	@ zero_extendqisi2
 537              	.L45:
 490:.\Generated_Source\PSoC5/ADC.c **** 
 538              		.loc 1 490 0
 539 001c 2046     		mov	r0, r4
ARM GAS  C:\Users\Rolando\AppData\Local\Temp\ccUzkFvW.s 			page 23


 540 001e 38BD     		pop	{r3, r4, r5, pc}
 541              	.L47:
 542              		.align	2
 543              	.L46:
 544 0020 01590040 		.word	1073764609
 545              		.cfi_endproc
 546              	.LFE8:
 547              		.size	ADC_IsEndConversion, .-ADC_IsEndConversion
 548              		.section	.text.ADC_GetResult8,"ax",%progbits
 549              		.align	1
 550              		.global	ADC_GetResult8
 551              		.thumb
 552              		.thumb_func
 553              		.type	ADC_GetResult8, %function
 554              	ADC_GetResult8:
 555              	.LFB9:
 518:.\Generated_Source\PSoC5/ADC.c ****     return( (int8)ADC_SAR_WRK0_REG - (int8)ADC_shift);
 556              		.loc 1 518 0
 557              		.cfi_startproc
 558              		@ args = 0, pretend = 0, frame = 0
 559              		@ frame_needed = 0, uses_anonymous_args = 0
 560              		@ link register save eliminated.
 519:.\Generated_Source\PSoC5/ADC.c **** }
 561              		.loc 1 519 0
 562 0000 034A     		ldr	r2, .L49
 563 0002 044B     		ldr	r3, .L49+4
 564 0004 1B78     		ldrb	r3, [r3]	@ zero_extendqisi2
 565 0006 1088     		ldrh	r0, [r2]
 566 0008 181A     		subs	r0, r3, r0
 520:.\Generated_Source\PSoC5/ADC.c **** 
 567              		.loc 1 520 0
 568 000a 40B2     		sxtb	r0, r0
 569 000c 7047     		bx	lr
 570              	.L50:
 571 000e 00BF     		.align	2
 572              	.L49:
 573 0010 00000000 		.word	ADC_shift
 574 0014 A05B0040 		.word	1073765280
 575              		.cfi_endproc
 576              	.LFE9:
 577              		.size	ADC_GetResult8, .-ADC_GetResult8
 578              		.section	.text.ADC_GetResult16,"ax",%progbits
 579              		.align	1
 580              		.global	ADC_GetResult16
 581              		.thumb
 582              		.thumb_func
 583              		.type	ADC_GetResult16, %function
 584              	ADC_GetResult16:
 585              	.LFB10:
 548:.\Generated_Source\PSoC5/ADC.c ****     uint16 res;
 586              		.loc 1 548 0
 587              		.cfi_startproc
 588              		@ args = 0, pretend = 0, frame = 0
 589              		@ frame_needed = 0, uses_anonymous_args = 0
 590              		@ link register save eliminated.
 553:.\Generated_Source\PSoC5/ADC.c **** }
 591              		.loc 1 553 0
ARM GAS  C:\Users\Rolando\AppData\Local\Temp\ccUzkFvW.s 			page 24


 592 0000 034A     		ldr	r2, .L52
 551:.\Generated_Source\PSoC5/ADC.c **** 
 593              		.loc 1 551 0
 594 0002 044B     		ldr	r3, .L52+4
 595 0004 1B88     		ldrh	r3, [r3]
 596              	.LVL41:
 553:.\Generated_Source\PSoC5/ADC.c **** }
 597              		.loc 1 553 0
 598 0006 1088     		ldrh	r0, [r2]
 599 0008 181A     		subs	r0, r3, r0
 554:.\Generated_Source\PSoC5/ADC.c **** 
 600              		.loc 1 554 0
 601 000a 00B2     		sxth	r0, r0
 602 000c 7047     		bx	lr
 603              	.L53:
 604 000e 00BF     		.align	2
 605              	.L52:
 606 0010 00000000 		.word	ADC_shift
 607 0014 A05B0040 		.word	1073765280
 608              		.cfi_endproc
 609              	.LFE10:
 610              		.size	ADC_GetResult16, .-ADC_GetResult16
 611              		.section	.text.ADC_SetOffset,"ax",%progbits
 612              		.align	1
 613              		.global	ADC_SetOffset
 614              		.thumb
 615              		.thumb_func
 616              		.type	ADC_SetOffset, %function
 617              	ADC_SetOffset:
 618              	.LFB11:
 583:.\Generated_Source\PSoC5/ADC.c ****     ADC_offset = offset;
 619              		.loc 1 583 0
 620              		.cfi_startproc
 621              		@ args = 0, pretend = 0, frame = 0
 622              		@ frame_needed = 0, uses_anonymous_args = 0
 623              		@ link register save eliminated.
 624              	.LVL42:
 584:.\Generated_Source\PSoC5/ADC.c **** }
 625              		.loc 1 584 0
 626 0000 014B     		ldr	r3, .L55
 627 0002 1880     		strh	r0, [r3]	@ movhi
 628 0004 7047     		bx	lr
 629              	.L56:
 630 0006 00BF     		.align	2
 631              	.L55:
 632 0008 00000000 		.word	ADC_offset
 633              		.cfi_endproc
 634              	.LFE11:
 635              		.size	ADC_SetOffset, .-ADC_SetOffset
 636              		.section	.text.ADC_SetGain,"ax",%progbits
 637              		.align	1
 638              		.global	ADC_SetGain
 639              		.thumb
 640              		.thumb_func
 641              		.type	ADC_SetGain, %function
 642              	ADC_SetGain:
 643              	.LFB13:
ARM GAS  C:\Users\Rolando\AppData\Local\Temp\ccUzkFvW.s 			page 25


 662:.\Generated_Source\PSoC5/ADC.c ****     #else
 663:.\Generated_Source\PSoC5/ADC.c ****         ADC_shift = diff_zero;
 664:.\Generated_Source\PSoC5/ADC.c ****     #endif /* End ADC_DEFAULT_RANGE */
 665:.\Generated_Source\PSoC5/ADC.c **** }
 666:.\Generated_Source\PSoC5/ADC.c **** 
 667:.\Generated_Source\PSoC5/ADC.c **** 
 668:.\Generated_Source\PSoC5/ADC.c **** /*******************************************************************************
 669:.\Generated_Source\PSoC5/ADC.c **** * Function Name: ADC_SetGain
 670:.\Generated_Source\PSoC5/ADC.c **** ********************************************************************************
 671:.\Generated_Source\PSoC5/ADC.c **** *
 672:.\Generated_Source\PSoC5/ADC.c **** * Summary:
 673:.\Generated_Source\PSoC5/ADC.c **** *  Sets the ADC gain in counts per volt for the voltage conversion functions
 674:.\Generated_Source\PSoC5/ADC.c **** *  that follow. This value is set by default by the reference and input range
 675:.\Generated_Source\PSoC5/ADC.c **** *  settings. It should only be used to further calibrate the ADC with a known
 676:.\Generated_Source\PSoC5/ADC.c **** *  input or if the ADC is using an external reference.
 677:.\Generated_Source\PSoC5/ADC.c **** *
 678:.\Generated_Source\PSoC5/ADC.c **** * Parameters:
 679:.\Generated_Source\PSoC5/ADC.c **** *  int16  adcGain  counts per volt
 680:.\Generated_Source\PSoC5/ADC.c **** *
 681:.\Generated_Source\PSoC5/ADC.c **** * Return:
 682:.\Generated_Source\PSoC5/ADC.c **** *  None.
 683:.\Generated_Source\PSoC5/ADC.c **** *
 684:.\Generated_Source\PSoC5/ADC.c **** * Global Variables:
 685:.\Generated_Source\PSoC5/ADC.c **** *  ADC_countsPer10Volt variable modified. This variable is used
 686:.\Generated_Source\PSoC5/ADC.c **** *  for gain calibration purpose.
 687:.\Generated_Source\PSoC5/ADC.c **** *
 688:.\Generated_Source\PSoC5/ADC.c **** *******************************************************************************/
 689:.\Generated_Source\PSoC5/ADC.c **** void ADC_SetGain(int16 adcGain)
 690:.\Generated_Source\PSoC5/ADC.c **** {
 644              		.loc 1 690 0
 645              		.cfi_startproc
 646              		@ args = 0, pretend = 0, frame = 0
 647              		@ frame_needed = 0, uses_anonymous_args = 0
 648              		@ link register save eliminated.
 649              	.LVL43:
 691:.\Generated_Source\PSoC5/ADC.c ****     ADC_countsPer10Volt = (int32)adcGain * 10;
 650              		.loc 1 691 0
 651 0000 0A23     		movs	r3, #10
 652 0002 5843     		muls	r0, r3, r0
 653              	.LVL44:
 654 0004 014B     		ldr	r3, .L58
 655 0006 1860     		str	r0, [r3]
 656 0008 7047     		bx	lr
 657              	.L59:
 658 000a 00BF     		.align	2
 659              	.L58:
 660 000c 00000000 		.word	ADC_countsPer10Volt
 661              		.cfi_endproc
 662              	.LFE13:
 663              		.size	ADC_SetGain, .-ADC_SetGain
 664              		.section	.text.ADC_SetScaledGain,"ax",%progbits
 665              		.align	1
 666              		.global	ADC_SetScaledGain
 667              		.thumb
 668              		.thumb_func
 669              		.type	ADC_SetScaledGain, %function
 670              	ADC_SetScaledGain:
ARM GAS  C:\Users\Rolando\AppData\Local\Temp\ccUzkFvW.s 			page 26


 671              	.LFB14:
 692:.\Generated_Source\PSoC5/ADC.c **** }
 693:.\Generated_Source\PSoC5/ADC.c **** 
 694:.\Generated_Source\PSoC5/ADC.c **** 
 695:.\Generated_Source\PSoC5/ADC.c **** /*******************************************************************************
 696:.\Generated_Source\PSoC5/ADC.c **** * Function Name: ADC_SetGainPer10Volt
 697:.\Generated_Source\PSoC5/ADC.c **** ********************************************************************************
 698:.\Generated_Source\PSoC5/ADC.c **** *
 699:.\Generated_Source\PSoC5/ADC.c **** * Summary:
 700:.\Generated_Source\PSoC5/ADC.c **** *  Sets the ADC gain in counts per 10 volt for the voltage conversion functions
 701:.\Generated_Source\PSoC5/ADC.c **** *  that follow. This value is set by default by the reference and input range
 702:.\Generated_Source\PSoC5/ADC.c **** *  settings. It should only be used to further calibrate the ADC with a known
 703:.\Generated_Source\PSoC5/ADC.c **** *  input or if the ADC is using an external reference.
 704:.\Generated_Source\PSoC5/ADC.c **** *
 705:.\Generated_Source\PSoC5/ADC.c **** * Parameters:
 706:.\Generated_Source\PSoC5/ADC.c **** *  int16  adcGain  counts per 10 volt
 707:.\Generated_Source\PSoC5/ADC.c **** *
 708:.\Generated_Source\PSoC5/ADC.c **** * Return:
 709:.\Generated_Source\PSoC5/ADC.c **** *  None.
 710:.\Generated_Source\PSoC5/ADC.c **** *
 711:.\Generated_Source\PSoC5/ADC.c **** * Global Variables:
 712:.\Generated_Source\PSoC5/ADC.c **** *  ADC_countsPer10Volt variable modified. This variable is used
 713:.\Generated_Source\PSoC5/ADC.c **** *  for gain calibration purpose.
 714:.\Generated_Source\PSoC5/ADC.c **** *
 715:.\Generated_Source\PSoC5/ADC.c **** *******************************************************************************/
 716:.\Generated_Source\PSoC5/ADC.c **** void ADC_SetScaledGain(int32 adcGain)
 717:.\Generated_Source\PSoC5/ADC.c **** {
 672              		.loc 1 717 0
 673              		.cfi_startproc
 674              		@ args = 0, pretend = 0, frame = 0
 675              		@ frame_needed = 0, uses_anonymous_args = 0
 676              		@ link register save eliminated.
 677              	.LVL45:
 718:.\Generated_Source\PSoC5/ADC.c ****     ADC_countsPer10Volt = adcGain;
 678              		.loc 1 718 0
 679 0000 014B     		ldr	r3, .L61
 680 0002 1860     		str	r0, [r3]
 681 0004 7047     		bx	lr
 682              	.L62:
 683 0006 00BF     		.align	2
 684              	.L61:
 685 0008 00000000 		.word	ADC_countsPer10Volt
 686              		.cfi_endproc
 687              	.LFE14:
 688              		.size	ADC_SetScaledGain, .-ADC_SetScaledGain
 689              		.section	.text.ADC_CountsTo_mVolts,"ax",%progbits
 690              		.align	1
 691              		.global	ADC_CountsTo_mVolts
 692              		.thumb
 693              		.thumb_func
 694              		.type	ADC_CountsTo_mVolts, %function
 695              	ADC_CountsTo_mVolts:
 696              	.LFB15:
 719:.\Generated_Source\PSoC5/ADC.c **** }
 720:.\Generated_Source\PSoC5/ADC.c **** 
 721:.\Generated_Source\PSoC5/ADC.c **** 
 722:.\Generated_Source\PSoC5/ADC.c **** /*******************************************************************************
ARM GAS  C:\Users\Rolando\AppData\Local\Temp\ccUzkFvW.s 			page 27


 723:.\Generated_Source\PSoC5/ADC.c **** * Function Name: ADC_CountsTo_mVolts
 724:.\Generated_Source\PSoC5/ADC.c **** ********************************************************************************
 725:.\Generated_Source\PSoC5/ADC.c **** *
 726:.\Generated_Source\PSoC5/ADC.c **** * Summary:
 727:.\Generated_Source\PSoC5/ADC.c **** *  Converts the ADC output to millivolts as a 16-bit integer.
 728:.\Generated_Source\PSoC5/ADC.c **** *
 729:.\Generated_Source\PSoC5/ADC.c **** * Parameters:
 730:.\Generated_Source\PSoC5/ADC.c **** *  int16 adcCounts:  Result from the ADC conversion
 731:.\Generated_Source\PSoC5/ADC.c **** *
 732:.\Generated_Source\PSoC5/ADC.c **** * Return:
 733:.\Generated_Source\PSoC5/ADC.c **** *  int16 Result in mVolts
 734:.\Generated_Source\PSoC5/ADC.c **** *
 735:.\Generated_Source\PSoC5/ADC.c **** * Global Variables:
 736:.\Generated_Source\PSoC5/ADC.c **** *  ADC_offset variable used.
 737:.\Generated_Source\PSoC5/ADC.c **** *  ADC_countsPer10Volt variable used.
 738:.\Generated_Source\PSoC5/ADC.c **** *
 739:.\Generated_Source\PSoC5/ADC.c **** *******************************************************************************/
 740:.\Generated_Source\PSoC5/ADC.c **** int16 ADC_CountsTo_mVolts(int16 adcCounts)
 741:.\Generated_Source\PSoC5/ADC.c **** {
 697              		.loc 1 741 0
 698              		.cfi_startproc
 699              		@ args = 0, pretend = 0, frame = 0
 700              		@ frame_needed = 0, uses_anonymous_args = 0
 701              		@ link register save eliminated.
 702              	.LVL46:
 742:.\Generated_Source\PSoC5/ADC.c ****     int16 mVolts;
 743:.\Generated_Source\PSoC5/ADC.c ****     int32 countsPer10Volt;
 744:.\Generated_Source\PSoC5/ADC.c **** 
 745:.\Generated_Source\PSoC5/ADC.c ****     if(ADC_countsPerVolt != 0)
 703              		.loc 1 745 0
 704 0000 0E4A     		ldr	r2, .L68
 705 0002 1388     		ldrh	r3, [r2]
 706 0004 9BB2     		uxth	r3, r3
 707 0006 23B1     		cbz	r3, .L64
 746:.\Generated_Source\PSoC5/ADC.c ****     {   /* Support obsolete method */
 747:.\Generated_Source\PSoC5/ADC.c ****         countsPer10Volt = (int32)ADC_countsPerVolt * 10;
 708              		.loc 1 747 0
 709 0008 1288     		ldrh	r2, [r2]
 710 000a 0A23     		movs	r3, #10
 711 000c 12B2     		sxth	r2, r2
 712 000e 5A43     		muls	r2, r3, r2
 713              	.LVL47:
 714 0010 01E0     		b	.L65
 715              	.LVL48:
 716              	.L64:
 748:.\Generated_Source\PSoC5/ADC.c ****     }
 749:.\Generated_Source\PSoC5/ADC.c ****     else
 750:.\Generated_Source\PSoC5/ADC.c ****     {
 751:.\Generated_Source\PSoC5/ADC.c ****         countsPer10Volt = ADC_countsPer10Volt;
 717              		.loc 1 751 0
 718 0012 0B4B     		ldr	r3, .L68+4
 719 0014 1A68     		ldr	r2, [r3]
 720              	.LVL49:
 721              	.L65:
 752:.\Generated_Source\PSoC5/ADC.c ****     }
 753:.\Generated_Source\PSoC5/ADC.c **** 
 754:.\Generated_Source\PSoC5/ADC.c ****     /* Subtract ADC offset */
ARM GAS  C:\Users\Rolando\AppData\Local\Temp\ccUzkFvW.s 			page 28


 755:.\Generated_Source\PSoC5/ADC.c ****     adcCounts -= ADC_offset;
 722              		.loc 1 755 0
 723 0016 0B4B     		ldr	r3, .L68+8
 724 0018 1988     		ldrh	r1, [r3]
 725 001a 0223     		movs	r3, #2
 726 001c 411A     		subs	r1, r0, r1
 756:.\Generated_Source\PSoC5/ADC.c ****     /* Convert to millivolts with rounding */
 757:.\Generated_Source\PSoC5/ADC.c ****     mVolts = (int16)( (( (int32)adcCounts * ADC_10MV_COUNTS ) + ( (adcCounts > 0) ?
 727              		.loc 1 757 0
 728 001e 42F21070 		movw	r0, #10000
 729              	.LVL50:
 758:.\Generated_Source\PSoC5/ADC.c ****                        (countsPer10Volt / 2) : (-(countsPer10Volt / 2)) )) / countsPer10Volt);
 730              		.loc 1 758 0
 731 0022 92FBF3F3 		sdiv	r3, r2, r3
 755:.\Generated_Source\PSoC5/ADC.c ****     /* Convert to millivolts with rounding */
 732              		.loc 1 755 0
 733 0026 09B2     		sxth	r1, r1
 734              	.LVL51:
 757:.\Generated_Source\PSoC5/ADC.c ****                        (countsPer10Volt / 2) : (-(countsPer10Volt / 2)) )) / countsPer10Volt);
 735              		.loc 1 757 0
 736 0028 4843     		muls	r0, r1, r0
 737              		.loc 1 758 0
 738 002a 0029     		cmp	r1, #0
 739 002c D8BF     		it	le
 740 002e 5B42     		rsble	r3, r3, #0
 741              	.LVL52:
 757:.\Generated_Source\PSoC5/ADC.c ****                        (countsPer10Volt / 2) : (-(countsPer10Volt / 2)) )) / countsPer10Volt);
 742              		.loc 1 757 0
 743 0030 0344     		add	r3, r3, r0
 744              	.LVL53:
 745              		.loc 1 758 0
 746 0032 93FBF2F0 		sdiv	r0, r3, r2
 747              	.LVL54:
 759:.\Generated_Source\PSoC5/ADC.c **** 
 760:.\Generated_Source\PSoC5/ADC.c ****     return( mVolts );
 761:.\Generated_Source\PSoC5/ADC.c **** }
 748              		.loc 1 761 0
 749 0036 00B2     		sxth	r0, r0
 750 0038 7047     		bx	lr
 751              	.L69:
 752 003a 00BF     		.align	2
 753              	.L68:
 754 003c 00000000 		.word	ADC_countsPerVolt
 755 0040 00000000 		.word	ADC_countsPer10Volt
 756 0044 00000000 		.word	ADC_offset
 757              		.cfi_endproc
 758              	.LFE15:
 759              		.size	ADC_CountsTo_mVolts, .-ADC_CountsTo_mVolts
 760              		.global	__aeabi_ldivmod
 761              		.section	.text.ADC_CountsTo_uVolts,"ax",%progbits
 762              		.align	1
 763              		.global	ADC_CountsTo_uVolts
 764              		.thumb
 765              		.thumb_func
 766              		.type	ADC_CountsTo_uVolts, %function
 767              	ADC_CountsTo_uVolts:
 768              	.LFB16:
ARM GAS  C:\Users\Rolando\AppData\Local\Temp\ccUzkFvW.s 			page 29


 762:.\Generated_Source\PSoC5/ADC.c **** 
 763:.\Generated_Source\PSoC5/ADC.c **** 
 764:.\Generated_Source\PSoC5/ADC.c **** /*******************************************************************************
 765:.\Generated_Source\PSoC5/ADC.c **** * Function Name: ADC_CountsTo_uVolts
 766:.\Generated_Source\PSoC5/ADC.c **** ********************************************************************************
 767:.\Generated_Source\PSoC5/ADC.c **** *
 768:.\Generated_Source\PSoC5/ADC.c **** * Summary:
 769:.\Generated_Source\PSoC5/ADC.c **** *  Converts the ADC output to microvolts as a 32-bit integer.
 770:.\Generated_Source\PSoC5/ADC.c **** *
 771:.\Generated_Source\PSoC5/ADC.c **** * Parameters:
 772:.\Generated_Source\PSoC5/ADC.c **** *  int16 adcCounts: Result from the ADC conversion
 773:.\Generated_Source\PSoC5/ADC.c **** *
 774:.\Generated_Source\PSoC5/ADC.c **** * Return:
 775:.\Generated_Source\PSoC5/ADC.c **** *  int32 Result in micro Volts
 776:.\Generated_Source\PSoC5/ADC.c **** *
 777:.\Generated_Source\PSoC5/ADC.c **** * Global Variables:
 778:.\Generated_Source\PSoC5/ADC.c **** *  ADC_offset variable used.
 779:.\Generated_Source\PSoC5/ADC.c **** *  ADC_countsPer10Volt used to convert ADC counts to uVolts.
 780:.\Generated_Source\PSoC5/ADC.c **** *
 781:.\Generated_Source\PSoC5/ADC.c **** *******************************************************************************/
 782:.\Generated_Source\PSoC5/ADC.c **** int32 ADC_CountsTo_uVolts(int16 adcCounts)
 783:.\Generated_Source\PSoC5/ADC.c **** {
 769              		.loc 1 783 0
 770              		.cfi_startproc
 771              		@ args = 0, pretend = 0, frame = 0
 772              		@ frame_needed = 0, uses_anonymous_args = 0
 773              	.LVL55:
 784:.\Generated_Source\PSoC5/ADC.c **** 
 785:.\Generated_Source\PSoC5/ADC.c ****     int64 uVolts;
 786:.\Generated_Source\PSoC5/ADC.c ****     int32 countsPer10Volt;
 787:.\Generated_Source\PSoC5/ADC.c **** 
 788:.\Generated_Source\PSoC5/ADC.c ****     if(ADC_countsPerVolt != 0)
 774              		.loc 1 788 0
 775 0000 0C4A     		ldr	r2, .L73
 783:.\Generated_Source\PSoC5/ADC.c **** 
 776              		.loc 1 783 0
 777 0002 38B5     		push	{r3, r4, r5, lr}
 778              		.cfi_def_cfa_offset 16
 779              		.cfi_offset 3, -16
 780              		.cfi_offset 4, -12
 781              		.cfi_offset 5, -8
 782              		.cfi_offset 14, -4
 783              		.loc 1 788 0
 784 0004 1388     		ldrh	r3, [r2]
 785 0006 9BB2     		uxth	r3, r3
 786 0008 23B1     		cbz	r3, .L71
 789:.\Generated_Source\PSoC5/ADC.c ****     {   /* Support obsolete method */
 790:.\Generated_Source\PSoC5/ADC.c ****         countsPer10Volt = (int32)ADC_countsPerVolt * 10;
 787              		.loc 1 790 0
 788 000a 1288     		ldrh	r2, [r2]
 789 000c 0A23     		movs	r3, #10
 790 000e 12B2     		sxth	r2, r2
 791 0010 5A43     		muls	r2, r3, r2
 792              	.LVL56:
 793 0012 01E0     		b	.L72
 794              	.LVL57:
 795              	.L71:
ARM GAS  C:\Users\Rolando\AppData\Local\Temp\ccUzkFvW.s 			page 30


 791:.\Generated_Source\PSoC5/ADC.c ****     }
 792:.\Generated_Source\PSoC5/ADC.c ****     else
 793:.\Generated_Source\PSoC5/ADC.c ****     {
 794:.\Generated_Source\PSoC5/ADC.c ****         countsPer10Volt = ADC_countsPer10Volt;
 796              		.loc 1 794 0
 797 0014 084B     		ldr	r3, .L73+4
 798 0016 1A68     		ldr	r2, [r3]
 799              	.LVL58:
 800              	.L72:
 795:.\Generated_Source\PSoC5/ADC.c ****     }
 796:.\Generated_Source\PSoC5/ADC.c **** 
 797:.\Generated_Source\PSoC5/ADC.c ****     /* Subtract ADC offset */
 798:.\Generated_Source\PSoC5/ADC.c ****     adcCounts -= ADC_offset;
 801              		.loc 1 798 0
 802 0018 084B     		ldr	r3, .L73+8
 803 001a 1C88     		ldrh	r4, [r3]
 804              	.LVL59:
 799:.\Generated_Source\PSoC5/ADC.c ****     /* To convert adcCounts to microVolts it is required to be multiplied
 800:.\Generated_Source\PSoC5/ADC.c ****     *  on 10 million and later divide on gain in counts per 10V.
 801:.\Generated_Source\PSoC5/ADC.c ****     */
 802:.\Generated_Source\PSoC5/ADC.c ****     uVolts = (( (int64)adcCounts * ADC_10UV_COUNTS ) / countsPer10Volt);
 805              		.loc 1 802 0
 806 001c 084B     		ldr	r3, .L73+12
 807 001e 041B     		subs	r4, r0, r4
 808              	.LVL60:
 809 0020 24B2     		sxth	r4, r4
 810 0022 A4FB0301 		umull	r0, r1, r4, r3
 811 0026 E517     		asrs	r5, r4, #31
 812 0028 03FB0511 		mla	r1, r3, r5, r1
 813 002c D317     		asrs	r3, r2, #31
 814 002e FFF7FEFF 		bl	__aeabi_ldivmod
 815              	.LVL61:
 803:.\Generated_Source\PSoC5/ADC.c **** 
 804:.\Generated_Source\PSoC5/ADC.c ****     return( uVolts );
 805:.\Generated_Source\PSoC5/ADC.c **** }
 816              		.loc 1 805 0
 817 0032 38BD     		pop	{r3, r4, r5, pc}
 818              	.L74:
 819              		.align	2
 820              	.L73:
 821 0034 00000000 		.word	ADC_countsPerVolt
 822 0038 00000000 		.word	ADC_countsPer10Volt
 823 003c 00000000 		.word	ADC_offset
 824 0040 80969800 		.word	10000000
 825              		.cfi_endproc
 826              	.LFE16:
 827              		.size	ADC_CountsTo_uVolts, .-ADC_CountsTo_uVolts
 828              		.global	__aeabi_i2f
 829              		.global	__aeabi_fmul
 830              		.global	__aeabi_fdiv
 831              		.section	.text.ADC_CountsTo_Volts,"ax",%progbits
 832              		.align	1
 833              		.global	ADC_CountsTo_Volts
 834              		.thumb
 835              		.thumb_func
 836              		.type	ADC_CountsTo_Volts, %function
 837              	ADC_CountsTo_Volts:
ARM GAS  C:\Users\Rolando\AppData\Local\Temp\ccUzkFvW.s 			page 31


 838              	.LFB17:
 806:.\Generated_Source\PSoC5/ADC.c **** 
 807:.\Generated_Source\PSoC5/ADC.c **** 
 808:.\Generated_Source\PSoC5/ADC.c **** /*******************************************************************************
 809:.\Generated_Source\PSoC5/ADC.c **** * Function Name: ADC_CountsTo_Volts
 810:.\Generated_Source\PSoC5/ADC.c **** ********************************************************************************
 811:.\Generated_Source\PSoC5/ADC.c **** *
 812:.\Generated_Source\PSoC5/ADC.c **** * Summary:
 813:.\Generated_Source\PSoC5/ADC.c **** *  Converts the ADC output to volts as a floating-point number.
 814:.\Generated_Source\PSoC5/ADC.c **** *
 815:.\Generated_Source\PSoC5/ADC.c **** * Parameters:
 816:.\Generated_Source\PSoC5/ADC.c **** *  int16 adcCounts: Result from the ADC conversion
 817:.\Generated_Source\PSoC5/ADC.c **** *
 818:.\Generated_Source\PSoC5/ADC.c **** * Return:
 819:.\Generated_Source\PSoC5/ADC.c **** *  float Result in Volts
 820:.\Generated_Source\PSoC5/ADC.c **** *
 821:.\Generated_Source\PSoC5/ADC.c **** * Global Variables:
 822:.\Generated_Source\PSoC5/ADC.c **** *  ADC_offset variable used.
 823:.\Generated_Source\PSoC5/ADC.c **** *  ADC_countsPer10Volt used to convert ADC counts to Volts.
 824:.\Generated_Source\PSoC5/ADC.c **** *
 825:.\Generated_Source\PSoC5/ADC.c **** *******************************************************************************/
 826:.\Generated_Source\PSoC5/ADC.c **** float32 ADC_CountsTo_Volts(int16 adcCounts)
 827:.\Generated_Source\PSoC5/ADC.c **** {
 839              		.loc 1 827 0
 840              		.cfi_startproc
 841              		@ args = 0, pretend = 0, frame = 0
 842              		@ frame_needed = 0, uses_anonymous_args = 0
 843              	.LVL62:
 828:.\Generated_Source\PSoC5/ADC.c ****     float32 volts;
 829:.\Generated_Source\PSoC5/ADC.c ****     int32 countsPer10Volt;
 830:.\Generated_Source\PSoC5/ADC.c **** 
 831:.\Generated_Source\PSoC5/ADC.c ****     if(ADC_countsPerVolt != 0)
 844              		.loc 1 831 0
 845 0000 0E4A     		ldr	r2, .L78
 827:.\Generated_Source\PSoC5/ADC.c ****     float32 volts;
 846              		.loc 1 827 0
 847 0002 38B5     		push	{r3, r4, r5, lr}
 848              		.cfi_def_cfa_offset 16
 849              		.cfi_offset 3, -16
 850              		.cfi_offset 4, -12
 851              		.cfi_offset 5, -8
 852              		.cfi_offset 14, -4
 853              		.loc 1 831 0
 854 0004 1388     		ldrh	r3, [r2]
 855 0006 9BB2     		uxth	r3, r3
 856 0008 23B1     		cbz	r3, .L76
 832:.\Generated_Source\PSoC5/ADC.c ****     {   /* Support obsolete method */
 833:.\Generated_Source\PSoC5/ADC.c ****         countsPer10Volt = (int32)ADC_countsPerVolt * 10;
 857              		.loc 1 833 0
 858 000a 1488     		ldrh	r4, [r2]
 859 000c 0A23     		movs	r3, #10
 860 000e 24B2     		sxth	r4, r4
 861 0010 5C43     		muls	r4, r3, r4
 862              	.LVL63:
 863 0012 01E0     		b	.L77
 864              	.LVL64:
 865              	.L76:
ARM GAS  C:\Users\Rolando\AppData\Local\Temp\ccUzkFvW.s 			page 32


 834:.\Generated_Source\PSoC5/ADC.c ****     }
 835:.\Generated_Source\PSoC5/ADC.c ****     else
 836:.\Generated_Source\PSoC5/ADC.c ****     {
 837:.\Generated_Source\PSoC5/ADC.c ****         countsPer10Volt = ADC_countsPer10Volt;
 866              		.loc 1 837 0
 867 0014 0A4B     		ldr	r3, .L78+4
 868 0016 1C68     		ldr	r4, [r3]
 869              	.LVL65:
 870              	.L77:
 838:.\Generated_Source\PSoC5/ADC.c ****     }
 839:.\Generated_Source\PSoC5/ADC.c **** 
 840:.\Generated_Source\PSoC5/ADC.c ****     /* Subtract ADC offset */
 841:.\Generated_Source\PSoC5/ADC.c ****     adcCounts -= ADC_offset;
 871              		.loc 1 841 0
 872 0018 0A4B     		ldr	r3, .L78+8
 873 001a 1B88     		ldrh	r3, [r3]
 874 001c C01A     		subs	r0, r0, r3
 875              	.LVL66:
 842:.\Generated_Source\PSoC5/ADC.c **** 
 843:.\Generated_Source\PSoC5/ADC.c ****     volts = ((float32)adcCounts * ADC_10V_COUNTS) / (float32)countsPer10Volt;
 876              		.loc 1 843 0
 877 001e 00B2     		sxth	r0, r0
 878 0020 FFF7FEFF 		bl	__aeabi_i2f
 879              	.LVL67:
 880 0024 0849     		ldr	r1, .L78+12
 881 0026 FFF7FEFF 		bl	__aeabi_fmul
 882              	.LVL68:
 883 002a 0546     		mov	r5, r0
 884 002c 2046     		mov	r0, r4
 885 002e FFF7FEFF 		bl	__aeabi_i2f
 886              	.LVL69:
 887 0032 0146     		mov	r1, r0
 888 0034 2846     		mov	r0, r5
 889 0036 FFF7FEFF 		bl	__aeabi_fdiv
 890              	.LVL70:
 844:.\Generated_Source\PSoC5/ADC.c **** 
 845:.\Generated_Source\PSoC5/ADC.c ****     return( volts );
 846:.\Generated_Source\PSoC5/ADC.c **** }
 891              		.loc 1 846 0
 892 003a 38BD     		pop	{r3, r4, r5, pc}
 893              	.LVL71:
 894              	.L79:
 895              		.align	2
 896              	.L78:
 897 003c 00000000 		.word	ADC_countsPerVolt
 898 0040 00000000 		.word	ADC_countsPer10Volt
 899 0044 00000000 		.word	ADC_offset
 900 0048 00002041 		.word	1092616192
 901              		.cfi_endproc
 902              	.LFE17:
 903              		.size	ADC_CountsTo_Volts, .-ADC_CountsTo_Volts
 904              		.comm	ADC_shift,2,2
 905              		.comm	ADC_countsPer10Volt,4,4
 906              		.comm	ADC_countsPerVolt,2,2
 907              		.comm	ADC_offset,2,2
 908              		.global	ADC_initVar
 909              		.bss
ARM GAS  C:\Users\Rolando\AppData\Local\Temp\ccUzkFvW.s 			page 33


 910              		.set	.LANCHOR0,. + 0
 911              		.type	ADC_initVar, %object
 912              		.size	ADC_initVar, 1
 913              	ADC_initVar:
 914 0000 00       		.space	1
 915              		.text
 916              	.Letext0:
 917              		.file 2 ".\\Generated_Source\\PSoC5\\cytypes.h"
 918              		.file 3 ".\\Generated_Source\\PSoC5\\CyLib.h"
 919              		.file 4 ".\\Generated_Source\\PSoC5\\ADC_theACLK.h"