ARM GAS  C:\Users\Rolando\AppData\Local\Temp\ccLDCFbd.s 			page 1


   1              		.syntax unified
   2              		.cpu cortex-m3
   3              		.fpu softvfp
   4              		.eabi_attribute 20, 1
   5              		.eabi_attribute 21, 1
   6              		.eabi_attribute 23, 3
   7              		.eabi_attribute 24, 1
   8              		.eabi_attribute 25, 1
   9              		.eabi_attribute 26, 1
  10              		.eabi_attribute 30, 4
  11              		.eabi_attribute 34, 1
  12              		.eabi_attribute 18, 4
  13              		.thumb
  14              		.file	"LCD.c"
  15              		.text
  16              	.Ltext0:
  17              		.cfi_sections	.debug_frame
  18              		.section	.text.LCD_WrCntrlNib,"ax",%progbits
  19              		.align	1
  20              		.thumb
  21              		.thumb_func
  22              		.type	LCD_WrCntrlNib, %function
  23              	LCD_WrCntrlNib:
  24              	.LFB11:
  25              		.file 1 ".\\Generated_Source\\PSoC5\\LCD.c"
   1:.\Generated_Source\PSoC5/LCD.c **** /*******************************************************************************
   2:.\Generated_Source\PSoC5/LCD.c **** * File Name: LCD.c
   3:.\Generated_Source\PSoC5/LCD.c **** * Version 1.90
   4:.\Generated_Source\PSoC5/LCD.c **** *
   5:.\Generated_Source\PSoC5/LCD.c **** * Description:
   6:.\Generated_Source\PSoC5/LCD.c **** *  This file provides source code for the Character LCD component's API.
   7:.\Generated_Source\PSoC5/LCD.c **** *
   8:.\Generated_Source\PSoC5/LCD.c **** * Note:
   9:.\Generated_Source\PSoC5/LCD.c **** *
  10:.\Generated_Source\PSoC5/LCD.c **** ********************************************************************************
  11:.\Generated_Source\PSoC5/LCD.c **** * Copyright 2008-2012, Cypress Semiconductor Corporation.  All rights reserved.
  12:.\Generated_Source\PSoC5/LCD.c **** * You may use this file only in accordance with the license, terms, conditions,
  13:.\Generated_Source\PSoC5/LCD.c **** * disclaimers, and limitations in the end user license agreement accompanying
  14:.\Generated_Source\PSoC5/LCD.c **** * the software package with which this file was provided.
  15:.\Generated_Source\PSoC5/LCD.c **** *******************************************************************************/
  16:.\Generated_Source\PSoC5/LCD.c **** 
  17:.\Generated_Source\PSoC5/LCD.c **** #include "CyLib.h"
  18:.\Generated_Source\PSoC5/LCD.c **** #include "LCD.h"
  19:.\Generated_Source\PSoC5/LCD.c **** 
  20:.\Generated_Source\PSoC5/LCD.c **** 
  21:.\Generated_Source\PSoC5/LCD.c **** static void LCD_WrDatNib(uint8 nibble) ;
  22:.\Generated_Source\PSoC5/LCD.c **** static void LCD_WrCntrlNib(uint8 nibble) ;
  23:.\Generated_Source\PSoC5/LCD.c **** 
  24:.\Generated_Source\PSoC5/LCD.c **** /* Stores the state of conponent. Indicates wherewer component is 
  25:.\Generated_Source\PSoC5/LCD.c **** * in enable state or not.
  26:.\Generated_Source\PSoC5/LCD.c **** */
  27:.\Generated_Source\PSoC5/LCD.c **** uint8 LCD_enableState = 0u;
  28:.\Generated_Source\PSoC5/LCD.c **** 
  29:.\Generated_Source\PSoC5/LCD.c **** uint8 LCD_initVar = 0u;
  30:.\Generated_Source\PSoC5/LCD.c **** 
  31:.\Generated_Source\PSoC5/LCD.c **** 
  32:.\Generated_Source\PSoC5/LCD.c **** /*******************************************************************************
ARM GAS  C:\Users\Rolando\AppData\Local\Temp\ccLDCFbd.s 			page 2


  33:.\Generated_Source\PSoC5/LCD.c **** * Function Name: LCD_Init
  34:.\Generated_Source\PSoC5/LCD.c **** ********************************************************************************
  35:.\Generated_Source\PSoC5/LCD.c **** *
  36:.\Generated_Source\PSoC5/LCD.c **** * Summary:
  37:.\Generated_Source\PSoC5/LCD.c **** *  Perform initialization required for components normal work.
  38:.\Generated_Source\PSoC5/LCD.c **** *  This function initializes the LCD hardware module as follows:
  39:.\Generated_Source\PSoC5/LCD.c **** *        Enable 4-bit interface
  40:.\Generated_Source\PSoC5/LCD.c **** *        Clear the display
  41:.\Generated_Source\PSoC5/LCD.c **** *        Enable auto cursor increment
  42:.\Generated_Source\PSoC5/LCD.c **** *        Resets the cursor to start position
  43:.\Generated_Source\PSoC5/LCD.c **** *  Also loads custom character set to LCD if it was defined in the customizer.
  44:.\Generated_Source\PSoC5/LCD.c **** *
  45:.\Generated_Source\PSoC5/LCD.c **** * Parameters:
  46:.\Generated_Source\PSoC5/LCD.c **** *  None.
  47:.\Generated_Source\PSoC5/LCD.c **** *
  48:.\Generated_Source\PSoC5/LCD.c **** * Return:
  49:.\Generated_Source\PSoC5/LCD.c **** *  None.
  50:.\Generated_Source\PSoC5/LCD.c **** *
  51:.\Generated_Source\PSoC5/LCD.c **** * Reentrant:
  52:.\Generated_Source\PSoC5/LCD.c **** *  No.
  53:.\Generated_Source\PSoC5/LCD.c **** *
  54:.\Generated_Source\PSoC5/LCD.c **** *******************************************************************************/
  55:.\Generated_Source\PSoC5/LCD.c **** void LCD_Init(void) 
  56:.\Generated_Source\PSoC5/LCD.c **** {
  57:.\Generated_Source\PSoC5/LCD.c ****     /* INIT CODE */
  58:.\Generated_Source\PSoC5/LCD.c ****     CyDelay(40u);                                                        /* Delay 40 ms */
  59:.\Generated_Source\PSoC5/LCD.c ****     LCD_WrCntrlNib(LCD_DISPLAY_8_BIT_INIT);    /* Selects 8-bit mode */
  60:.\Generated_Source\PSoC5/LCD.c ****     CyDelay(5u);                                                         /* Delay 5 ms */
  61:.\Generated_Source\PSoC5/LCD.c ****     LCD_WrCntrlNib(LCD_DISPLAY_8_BIT_INIT);    /* Selects 8-bit mode */
  62:.\Generated_Source\PSoC5/LCD.c ****     CyDelay(15u);                                                        /* Delay 15 ms */
  63:.\Generated_Source\PSoC5/LCD.c ****     LCD_WrCntrlNib(LCD_DISPLAY_8_BIT_INIT);    /* Selects 8-bit mode */
  64:.\Generated_Source\PSoC5/LCD.c ****     CyDelay(1u);                                                         /* Delay 1 ms */
  65:.\Generated_Source\PSoC5/LCD.c ****     LCD_WrCntrlNib(LCD_DISPLAY_4_BIT_INIT);    /* Selects 4-bit mode */
  66:.\Generated_Source\PSoC5/LCD.c ****     CyDelay(5u);                                                         /* Delay 5 ms */
  67:.\Generated_Source\PSoC5/LCD.c **** 
  68:.\Generated_Source\PSoC5/LCD.c ****     LCD_WriteControl(LCD_CURSOR_AUTO_INCR_ON);    /* Incr Cursor After Writes */
  69:.\Generated_Source\PSoC5/LCD.c ****     LCD_WriteControl(LCD_DISPLAY_CURSOR_ON);      /* Turn Display, Cursor ON */
  70:.\Generated_Source\PSoC5/LCD.c ****     LCD_WriteControl(LCD_DISPLAY_2_LINES_5x10);   /* 2 Lines by 5x10 Characters */
  71:.\Generated_Source\PSoC5/LCD.c ****     LCD_WriteControl(LCD_DISPLAY_CURSOR_OFF);     /* Turn Display, Cursor OFF */
  72:.\Generated_Source\PSoC5/LCD.c ****     LCD_WriteControl(LCD_CLEAR_DISPLAY);          /* Clear LCD Screen */
  73:.\Generated_Source\PSoC5/LCD.c ****     LCD_WriteControl(LCD_DISPLAY_ON_CURSOR_OFF);  /* Turn Display ON, Cursor OFF */
  74:.\Generated_Source\PSoC5/LCD.c ****     LCD_WriteControl(LCD_RESET_CURSOR_POSITION);  /* Set Cursor to 0,0 */
  75:.\Generated_Source\PSoC5/LCD.c ****     CyDelay(5u);
  76:.\Generated_Source\PSoC5/LCD.c **** 
  77:.\Generated_Source\PSoC5/LCD.c ****     #if(LCD_CUSTOM_CHAR_SET != LCD_NONE)
  78:.\Generated_Source\PSoC5/LCD.c ****         LCD_LoadCustomFonts(LCD_customFonts);
  79:.\Generated_Source\PSoC5/LCD.c ****     #endif /* LCD_CUSTOM_CHAR_SET != LCD_NONE */
  80:.\Generated_Source\PSoC5/LCD.c **** }
  81:.\Generated_Source\PSoC5/LCD.c **** 
  82:.\Generated_Source\PSoC5/LCD.c **** 
  83:.\Generated_Source\PSoC5/LCD.c **** /*******************************************************************************
  84:.\Generated_Source\PSoC5/LCD.c **** * Function Name: LCD_Enable
  85:.\Generated_Source\PSoC5/LCD.c **** ********************************************************************************
  86:.\Generated_Source\PSoC5/LCD.c **** *
  87:.\Generated_Source\PSoC5/LCD.c **** * Summary:
  88:.\Generated_Source\PSoC5/LCD.c **** *  Turns on the display.
  89:.\Generated_Source\PSoC5/LCD.c **** *
ARM GAS  C:\Users\Rolando\AppData\Local\Temp\ccLDCFbd.s 			page 3


  90:.\Generated_Source\PSoC5/LCD.c **** * Parameters:
  91:.\Generated_Source\PSoC5/LCD.c **** *  None.
  92:.\Generated_Source\PSoC5/LCD.c **** *
  93:.\Generated_Source\PSoC5/LCD.c **** * Return:
  94:.\Generated_Source\PSoC5/LCD.c **** *  None.
  95:.\Generated_Source\PSoC5/LCD.c **** *
  96:.\Generated_Source\PSoC5/LCD.c **** * Reentrant:
  97:.\Generated_Source\PSoC5/LCD.c **** *  No.
  98:.\Generated_Source\PSoC5/LCD.c **** *
  99:.\Generated_Source\PSoC5/LCD.c **** * Theory:
 100:.\Generated_Source\PSoC5/LCD.c **** *  This finction has no effect when it called first time as
 101:.\Generated_Source\PSoC5/LCD.c **** *  LCD_Init() turns on the LCD.
 102:.\Generated_Source\PSoC5/LCD.c **** *
 103:.\Generated_Source\PSoC5/LCD.c **** *******************************************************************************/
 104:.\Generated_Source\PSoC5/LCD.c **** void LCD_Enable(void) 
 105:.\Generated_Source\PSoC5/LCD.c **** {
 106:.\Generated_Source\PSoC5/LCD.c ****     LCD_DisplayOn();
 107:.\Generated_Source\PSoC5/LCD.c ****     LCD_enableState = 1u;
 108:.\Generated_Source\PSoC5/LCD.c **** }
 109:.\Generated_Source\PSoC5/LCD.c **** 
 110:.\Generated_Source\PSoC5/LCD.c **** 
 111:.\Generated_Source\PSoC5/LCD.c **** /*******************************************************************************
 112:.\Generated_Source\PSoC5/LCD.c **** * Function Name: LCD_Start
 113:.\Generated_Source\PSoC5/LCD.c **** ********************************************************************************
 114:.\Generated_Source\PSoC5/LCD.c **** *
 115:.\Generated_Source\PSoC5/LCD.c **** * Summary:
 116:.\Generated_Source\PSoC5/LCD.c **** *  Perform initialization required for components normal work.
 117:.\Generated_Source\PSoC5/LCD.c **** *  This function initializes the LCD hardware module as follows:
 118:.\Generated_Source\PSoC5/LCD.c **** *        Enable 4-bit interface
 119:.\Generated_Source\PSoC5/LCD.c **** *        Clear the display
 120:.\Generated_Source\PSoC5/LCD.c **** *        Enable auto cursor increment
 121:.\Generated_Source\PSoC5/LCD.c **** *        Resets the cursor to start position
 122:.\Generated_Source\PSoC5/LCD.c **** *  Also loads custom character set to LCD if it was defined in the customizer.
 123:.\Generated_Source\PSoC5/LCD.c **** *  If it was not the first call in this project then it just turns on the
 124:.\Generated_Source\PSoC5/LCD.c **** *  display
 125:.\Generated_Source\PSoC5/LCD.c **** *
 126:.\Generated_Source\PSoC5/LCD.c **** *
 127:.\Generated_Source\PSoC5/LCD.c **** * Parameters:
 128:.\Generated_Source\PSoC5/LCD.c **** *  LCD_initVar - global variable.
 129:.\Generated_Source\PSoC5/LCD.c **** *
 130:.\Generated_Source\PSoC5/LCD.c **** * Return:
 131:.\Generated_Source\PSoC5/LCD.c **** *  LCD_initVar - global variable.
 132:.\Generated_Source\PSoC5/LCD.c **** *
 133:.\Generated_Source\PSoC5/LCD.c **** * Reentrant:
 134:.\Generated_Source\PSoC5/LCD.c **** *  No.
 135:.\Generated_Source\PSoC5/LCD.c **** *
 136:.\Generated_Source\PSoC5/LCD.c **** *******************************************************************************/
 137:.\Generated_Source\PSoC5/LCD.c **** void LCD_Start(void) 
 138:.\Generated_Source\PSoC5/LCD.c **** {
 139:.\Generated_Source\PSoC5/LCD.c ****     /* If not initialized then perform initialization */
 140:.\Generated_Source\PSoC5/LCD.c ****     if(LCD_initVar == 0u)
 141:.\Generated_Source\PSoC5/LCD.c ****     {
 142:.\Generated_Source\PSoC5/LCD.c ****         LCD_Init();
 143:.\Generated_Source\PSoC5/LCD.c ****         LCD_initVar = 1u;
 144:.\Generated_Source\PSoC5/LCD.c ****     }
 145:.\Generated_Source\PSoC5/LCD.c **** 
 146:.\Generated_Source\PSoC5/LCD.c ****     /* Turn on the LCD */
ARM GAS  C:\Users\Rolando\AppData\Local\Temp\ccLDCFbd.s 			page 4


 147:.\Generated_Source\PSoC5/LCD.c ****     LCD_Enable();
 148:.\Generated_Source\PSoC5/LCD.c **** }
 149:.\Generated_Source\PSoC5/LCD.c **** 
 150:.\Generated_Source\PSoC5/LCD.c **** 
 151:.\Generated_Source\PSoC5/LCD.c **** /*******************************************************************************
 152:.\Generated_Source\PSoC5/LCD.c **** * Function Name: LCD_Stop
 153:.\Generated_Source\PSoC5/LCD.c **** ********************************************************************************
 154:.\Generated_Source\PSoC5/LCD.c **** *
 155:.\Generated_Source\PSoC5/LCD.c **** * Summary:
 156:.\Generated_Source\PSoC5/LCD.c **** *  Turns off the display of the LCD screen.
 157:.\Generated_Source\PSoC5/LCD.c **** *
 158:.\Generated_Source\PSoC5/LCD.c **** * Parameters:
 159:.\Generated_Source\PSoC5/LCD.c **** *  None.
 160:.\Generated_Source\PSoC5/LCD.c **** *
 161:.\Generated_Source\PSoC5/LCD.c **** * Return:
 162:.\Generated_Source\PSoC5/LCD.c **** *  None.
 163:.\Generated_Source\PSoC5/LCD.c **** *
 164:.\Generated_Source\PSoC5/LCD.c **** * Reentrant:
 165:.\Generated_Source\PSoC5/LCD.c **** *  No.
 166:.\Generated_Source\PSoC5/LCD.c **** *
 167:.\Generated_Source\PSoC5/LCD.c **** *******************************************************************************/
 168:.\Generated_Source\PSoC5/LCD.c **** void LCD_Stop(void) 
 169:.\Generated_Source\PSoC5/LCD.c **** {
 170:.\Generated_Source\PSoC5/LCD.c ****     /* Calls LCD Off Macro */
 171:.\Generated_Source\PSoC5/LCD.c ****     LCD_DisplayOff();
 172:.\Generated_Source\PSoC5/LCD.c ****     LCD_enableState = 0u;
 173:.\Generated_Source\PSoC5/LCD.c **** }
 174:.\Generated_Source\PSoC5/LCD.c **** 
 175:.\Generated_Source\PSoC5/LCD.c **** 
 176:.\Generated_Source\PSoC5/LCD.c **** /*******************************************************************************
 177:.\Generated_Source\PSoC5/LCD.c **** *  Function Name: LCD_Position
 178:.\Generated_Source\PSoC5/LCD.c **** ********************************************************************************
 179:.\Generated_Source\PSoC5/LCD.c **** *
 180:.\Generated_Source\PSoC5/LCD.c **** * Summary:
 181:.\Generated_Source\PSoC5/LCD.c **** *  Moves active cursor location to a point specified by the input arguments
 182:.\Generated_Source\PSoC5/LCD.c **** *
 183:.\Generated_Source\PSoC5/LCD.c **** * Parameters:
 184:.\Generated_Source\PSoC5/LCD.c **** *  row:     Specific row of LCD module to be written
 185:.\Generated_Source\PSoC5/LCD.c **** *  column:  Column of LCD module to be written
 186:.\Generated_Source\PSoC5/LCD.c **** *
 187:.\Generated_Source\PSoC5/LCD.c **** * Return:
 188:.\Generated_Source\PSoC5/LCD.c **** *  None.
 189:.\Generated_Source\PSoC5/LCD.c **** *
 190:.\Generated_Source\PSoC5/LCD.c **** * Note:
 191:.\Generated_Source\PSoC5/LCD.c **** *  This only applies for LCD displays which use the 2X40 address mode.
 192:.\Generated_Source\PSoC5/LCD.c **** *  This results in Row 2 offset from row one by 0x28.
 193:.\Generated_Source\PSoC5/LCD.c **** *  When there are more than 2 rows, each row must be fewer than 20 characters.
 194:.\Generated_Source\PSoC5/LCD.c **** *
 195:.\Generated_Source\PSoC5/LCD.c **** *******************************************************************************/
 196:.\Generated_Source\PSoC5/LCD.c **** void LCD_Position(uint8 row, uint8 column) 
 197:.\Generated_Source\PSoC5/LCD.c **** {
 198:.\Generated_Source\PSoC5/LCD.c ****     switch (row)
 199:.\Generated_Source\PSoC5/LCD.c ****     {
 200:.\Generated_Source\PSoC5/LCD.c ****         case (uint8)0:
 201:.\Generated_Source\PSoC5/LCD.c ****             LCD_WriteControl(LCD_ROW_0_START + column);
 202:.\Generated_Source\PSoC5/LCD.c ****             break;
 203:.\Generated_Source\PSoC5/LCD.c ****         case (uint8) 1:
ARM GAS  C:\Users\Rolando\AppData\Local\Temp\ccLDCFbd.s 			page 5


 204:.\Generated_Source\PSoC5/LCD.c ****             LCD_WriteControl(LCD_ROW_1_START + column);
 205:.\Generated_Source\PSoC5/LCD.c ****             break;
 206:.\Generated_Source\PSoC5/LCD.c ****         case (uint8) 2:
 207:.\Generated_Source\PSoC5/LCD.c ****             LCD_WriteControl(LCD_ROW_2_START + column);
 208:.\Generated_Source\PSoC5/LCD.c ****             break;
 209:.\Generated_Source\PSoC5/LCD.c ****         case (uint8) 3:
 210:.\Generated_Source\PSoC5/LCD.c ****             LCD_WriteControl(LCD_ROW_3_START + column);
 211:.\Generated_Source\PSoC5/LCD.c ****             break;
 212:.\Generated_Source\PSoC5/LCD.c ****         default:
 213:.\Generated_Source\PSoC5/LCD.c ****             /* if default case is hit, invalid row argument was passed.*/
 214:.\Generated_Source\PSoC5/LCD.c ****             break;
 215:.\Generated_Source\PSoC5/LCD.c ****     }
 216:.\Generated_Source\PSoC5/LCD.c **** }
 217:.\Generated_Source\PSoC5/LCD.c **** 
 218:.\Generated_Source\PSoC5/LCD.c **** 
 219:.\Generated_Source\PSoC5/LCD.c **** /*******************************************************************************
 220:.\Generated_Source\PSoC5/LCD.c **** * Function Name: LCD_PrintString
 221:.\Generated_Source\PSoC5/LCD.c **** ********************************************************************************
 222:.\Generated_Source\PSoC5/LCD.c **** *
 223:.\Generated_Source\PSoC5/LCD.c **** * Summary:
 224:.\Generated_Source\PSoC5/LCD.c **** *  Writes a zero terminated string to the LCD.
 225:.\Generated_Source\PSoC5/LCD.c **** *
 226:.\Generated_Source\PSoC5/LCD.c **** * Parameters:
 227:.\Generated_Source\PSoC5/LCD.c **** *  string:  pointer to head of char8 array to be written to the LCD module
 228:.\Generated_Source\PSoC5/LCD.c **** *
 229:.\Generated_Source\PSoC5/LCD.c **** * Return:
 230:.\Generated_Source\PSoC5/LCD.c **** *  None.
 231:.\Generated_Source\PSoC5/LCD.c **** *
 232:.\Generated_Source\PSoC5/LCD.c **** *******************************************************************************/
 233:.\Generated_Source\PSoC5/LCD.c **** void LCD_PrintString(char8 const string[]) 
 234:.\Generated_Source\PSoC5/LCD.c **** {
 235:.\Generated_Source\PSoC5/LCD.c ****     uint8 indexU8 = 1u;
 236:.\Generated_Source\PSoC5/LCD.c ****     char8 current = *string;
 237:.\Generated_Source\PSoC5/LCD.c **** 
 238:.\Generated_Source\PSoC5/LCD.c ****     /* Until null is reached, print next character */
 239:.\Generated_Source\PSoC5/LCD.c ****     while((char8) '\0' != current)
 240:.\Generated_Source\PSoC5/LCD.c ****     {
 241:.\Generated_Source\PSoC5/LCD.c ****         LCD_WriteData((uint8)current);
 242:.\Generated_Source\PSoC5/LCD.c ****         current = string[indexU8];
 243:.\Generated_Source\PSoC5/LCD.c ****         indexU8++;
 244:.\Generated_Source\PSoC5/LCD.c ****     }
 245:.\Generated_Source\PSoC5/LCD.c **** }
 246:.\Generated_Source\PSoC5/LCD.c **** 
 247:.\Generated_Source\PSoC5/LCD.c **** 
 248:.\Generated_Source\PSoC5/LCD.c **** /*******************************************************************************
 249:.\Generated_Source\PSoC5/LCD.c **** *  Function Name: LCD_PutChar
 250:.\Generated_Source\PSoC5/LCD.c **** ********************************************************************************
 251:.\Generated_Source\PSoC5/LCD.c **** *
 252:.\Generated_Source\PSoC5/LCD.c **** * Summary:
 253:.\Generated_Source\PSoC5/LCD.c **** *  Writes a single character to the current cursor position of the LCD module.
 254:.\Generated_Source\PSoC5/LCD.c **** *  Custom character names (_CUSTOM_0 through
 255:.\Generated_Source\PSoC5/LCD.c **** *  _CUSTOM_7) are acceptable as inputs.
 256:.\Generated_Source\PSoC5/LCD.c **** *
 257:.\Generated_Source\PSoC5/LCD.c **** * Parameters:
 258:.\Generated_Source\PSoC5/LCD.c **** *  character:  character to be written to the LCD
 259:.\Generated_Source\PSoC5/LCD.c **** *
 260:.\Generated_Source\PSoC5/LCD.c **** * Return:
ARM GAS  C:\Users\Rolando\AppData\Local\Temp\ccLDCFbd.s 			page 6


 261:.\Generated_Source\PSoC5/LCD.c **** *  None.
 262:.\Generated_Source\PSoC5/LCD.c **** *
 263:.\Generated_Source\PSoC5/LCD.c **** *******************************************************************************/
 264:.\Generated_Source\PSoC5/LCD.c **** void LCD_PutChar(char8 character) 
 265:.\Generated_Source\PSoC5/LCD.c **** {
 266:.\Generated_Source\PSoC5/LCD.c ****     LCD_WriteData((uint8)character);
 267:.\Generated_Source\PSoC5/LCD.c **** }
 268:.\Generated_Source\PSoC5/LCD.c **** 
 269:.\Generated_Source\PSoC5/LCD.c **** 
 270:.\Generated_Source\PSoC5/LCD.c **** /*******************************************************************************
 271:.\Generated_Source\PSoC5/LCD.c **** *  Function Name: LCD_WriteData
 272:.\Generated_Source\PSoC5/LCD.c **** ********************************************************************************
 273:.\Generated_Source\PSoC5/LCD.c **** *
 274:.\Generated_Source\PSoC5/LCD.c **** * Summary:
 275:.\Generated_Source\PSoC5/LCD.c **** *  Writes a data byte to the LCD module's Data Display RAM.
 276:.\Generated_Source\PSoC5/LCD.c **** *
 277:.\Generated_Source\PSoC5/LCD.c **** * Parameters:
 278:.\Generated_Source\PSoC5/LCD.c **** *  dByte:  byte to be written to LCD module.
 279:.\Generated_Source\PSoC5/LCD.c **** *
 280:.\Generated_Source\PSoC5/LCD.c **** * Return:
 281:.\Generated_Source\PSoC5/LCD.c **** *  None.
 282:.\Generated_Source\PSoC5/LCD.c **** *
 283:.\Generated_Source\PSoC5/LCD.c **** *******************************************************************************/
 284:.\Generated_Source\PSoC5/LCD.c **** void LCD_WriteData(uint8 dByte) 
 285:.\Generated_Source\PSoC5/LCD.c **** {
 286:.\Generated_Source\PSoC5/LCD.c ****     uint8 nibble;
 287:.\Generated_Source\PSoC5/LCD.c **** 
 288:.\Generated_Source\PSoC5/LCD.c ****     LCD_IsReady();
 289:.\Generated_Source\PSoC5/LCD.c ****     nibble = dByte >> LCD_NIBBLE_SHIFT;
 290:.\Generated_Source\PSoC5/LCD.c **** 
 291:.\Generated_Source\PSoC5/LCD.c ****     /* Write high nibble */
 292:.\Generated_Source\PSoC5/LCD.c ****     LCD_WrDatNib(nibble);
 293:.\Generated_Source\PSoC5/LCD.c **** 
 294:.\Generated_Source\PSoC5/LCD.c ****     nibble = dByte & LCD_NIBBLE_MASK;
 295:.\Generated_Source\PSoC5/LCD.c ****     /* Write low nibble */
 296:.\Generated_Source\PSoC5/LCD.c ****     LCD_WrDatNib(nibble);
 297:.\Generated_Source\PSoC5/LCD.c **** }
 298:.\Generated_Source\PSoC5/LCD.c **** 
 299:.\Generated_Source\PSoC5/LCD.c **** 
 300:.\Generated_Source\PSoC5/LCD.c **** /*******************************************************************************
 301:.\Generated_Source\PSoC5/LCD.c **** *  Function Name: LCD_WriteControl
 302:.\Generated_Source\PSoC5/LCD.c **** ********************************************************************************
 303:.\Generated_Source\PSoC5/LCD.c **** *
 304:.\Generated_Source\PSoC5/LCD.c **** * Summary:
 305:.\Generated_Source\PSoC5/LCD.c **** *  Writes a command byte to the LCD module.
 306:.\Generated_Source\PSoC5/LCD.c **** *
 307:.\Generated_Source\PSoC5/LCD.c **** * Parameters:
 308:.\Generated_Source\PSoC5/LCD.c **** *  cByte:   byte to be written to LCD module.
 309:.\Generated_Source\PSoC5/LCD.c **** *
 310:.\Generated_Source\PSoC5/LCD.c **** * Return:
 311:.\Generated_Source\PSoC5/LCD.c **** *  None.
 312:.\Generated_Source\PSoC5/LCD.c **** *
 313:.\Generated_Source\PSoC5/LCD.c **** *******************************************************************************/
 314:.\Generated_Source\PSoC5/LCD.c **** void LCD_WriteControl(uint8 cByte) 
 315:.\Generated_Source\PSoC5/LCD.c **** {
 316:.\Generated_Source\PSoC5/LCD.c ****     uint8 nibble;
 317:.\Generated_Source\PSoC5/LCD.c **** 
ARM GAS  C:\Users\Rolando\AppData\Local\Temp\ccLDCFbd.s 			page 7


 318:.\Generated_Source\PSoC5/LCD.c ****     LCD_IsReady();
 319:.\Generated_Source\PSoC5/LCD.c **** 
 320:.\Generated_Source\PSoC5/LCD.c ****     nibble = cByte >> LCD_NIBBLE_SHIFT;
 321:.\Generated_Source\PSoC5/LCD.c ****     
 322:.\Generated_Source\PSoC5/LCD.c ****     /* WrCntrlNib(High Nibble) */
 323:.\Generated_Source\PSoC5/LCD.c ****     LCD_WrCntrlNib(nibble);
 324:.\Generated_Source\PSoC5/LCD.c ****     nibble = cByte & LCD_NIBBLE_MASK;
 325:.\Generated_Source\PSoC5/LCD.c **** 
 326:.\Generated_Source\PSoC5/LCD.c ****     /* WrCntrlNib(Low Nibble) */
 327:.\Generated_Source\PSoC5/LCD.c ****     LCD_WrCntrlNib(nibble);
 328:.\Generated_Source\PSoC5/LCD.c **** }
 329:.\Generated_Source\PSoC5/LCD.c **** 
 330:.\Generated_Source\PSoC5/LCD.c **** 
 331:.\Generated_Source\PSoC5/LCD.c **** /*******************************************************************************
 332:.\Generated_Source\PSoC5/LCD.c **** * Function Name: LCD_IsReady
 333:.\Generated_Source\PSoC5/LCD.c **** ********************************************************************************
 334:.\Generated_Source\PSoC5/LCD.c **** *
 335:.\Generated_Source\PSoC5/LCD.c **** * Summary:
 336:.\Generated_Source\PSoC5/LCD.c **** *  Polls LCD until the ready bit is set.
 337:.\Generated_Source\PSoC5/LCD.c **** *
 338:.\Generated_Source\PSoC5/LCD.c **** * Parameters:
 339:.\Generated_Source\PSoC5/LCD.c **** *  None.
 340:.\Generated_Source\PSoC5/LCD.c **** *
 341:.\Generated_Source\PSoC5/LCD.c **** * Return:
 342:.\Generated_Source\PSoC5/LCD.c **** *  None.
 343:.\Generated_Source\PSoC5/LCD.c **** *
 344:.\Generated_Source\PSoC5/LCD.c **** * Note:
 345:.\Generated_Source\PSoC5/LCD.c **** *  Changes pins to High-Z.
 346:.\Generated_Source\PSoC5/LCD.c **** *
 347:.\Generated_Source\PSoC5/LCD.c **** *******************************************************************************/
 348:.\Generated_Source\PSoC5/LCD.c **** void LCD_IsReady(void) 
 349:.\Generated_Source\PSoC5/LCD.c **** {
 350:.\Generated_Source\PSoC5/LCD.c ****     uint8 value;
 351:.\Generated_Source\PSoC5/LCD.c **** 
 352:.\Generated_Source\PSoC5/LCD.c ****     /* Clear the LCD port*/
 353:.\Generated_Source\PSoC5/LCD.c ****     LCD_PORT_DR_REG &= ((uint8)(~LCD_PORT_MASK));
 354:.\Generated_Source\PSoC5/LCD.c **** 
 355:.\Generated_Source\PSoC5/LCD.c ****     /* PSoC4 has a bit different port/pin organization for setting Drive Modes than
 356:.\Generated_Source\PSoC5/LCD.c ****     * PSoC3/5.
 357:.\Generated_Source\PSoC5/LCD.c ****     */
 358:.\Generated_Source\PSoC5/LCD.c ****     #if (CY_PSOC4)
 359:.\Generated_Source\PSoC5/LCD.c ****         
 360:.\Generated_Source\PSoC5/LCD.c ****         /* Mask off data pins to clear old values out */
 361:.\Generated_Source\PSoC5/LCD.c ****         value = LCD_PORT_PC_REG & ((uint32) (~ LCD_DM_DATA_MASK));
 362:.\Generated_Source\PSoC5/LCD.c ****         /* Load in high Z values for data pins, others unchanged */
 363:.\Generated_Source\PSoC5/LCD.c ****         LCD_PORT_PC_REG = value | LCD_HIGH_Z_DATA_DM;
 364:.\Generated_Source\PSoC5/LCD.c **** 
 365:.\Generated_Source\PSoC5/LCD.c ****     #else
 366:.\Generated_Source\PSoC5/LCD.c ****     
 367:.\Generated_Source\PSoC5/LCD.c ****         /* Change Port to High-Z Status on data pins */
 368:.\Generated_Source\PSoC5/LCD.c **** 
 369:.\Generated_Source\PSoC5/LCD.c ****         /* Mask off data pins to clear old values out */
 370:.\Generated_Source\PSoC5/LCD.c ****         value = LCD_PORT_DM0_REG & ((uint8)(~LCD_DATA_MASK));
 371:.\Generated_Source\PSoC5/LCD.c ****         /* Load in high Z values for data pins, others unchanged */
 372:.\Generated_Source\PSoC5/LCD.c ****         LCD_PORT_DM0_REG = value | (LCD_HIGH_Z_DM0 & LCD_DATA_MASK);
 373:.\Generated_Source\PSoC5/LCD.c **** 
 374:.\Generated_Source\PSoC5/LCD.c ****         /* Mask off data pins to clear old values out */
ARM GAS  C:\Users\Rolando\AppData\Local\Temp\ccLDCFbd.s 			page 8


 375:.\Generated_Source\PSoC5/LCD.c ****         value = LCD_PORT_DM1_REG & ((uint8)(~LCD_DATA_MASK));
 376:.\Generated_Source\PSoC5/LCD.c ****         /* Load in high Z values for data pins, others unchanged */
 377:.\Generated_Source\PSoC5/LCD.c ****         LCD_PORT_DM1_REG = value;
 378:.\Generated_Source\PSoC5/LCD.c **** 
 379:.\Generated_Source\PSoC5/LCD.c ****         /* Mask off data pins to clear old values out */
 380:.\Generated_Source\PSoC5/LCD.c ****         value = LCD_PORT_DM2_REG & ((uint8)(~LCD_DATA_MASK));
 381:.\Generated_Source\PSoC5/LCD.c ****         /* Load in high Z values for data pins, others unchanged */
 382:.\Generated_Source\PSoC5/LCD.c ****         LCD_PORT_DM2_REG = value;
 383:.\Generated_Source\PSoC5/LCD.c ****     
 384:.\Generated_Source\PSoC5/LCD.c ****     #endif /* CY_PSOC4 */
 385:.\Generated_Source\PSoC5/LCD.c ****     
 386:.\Generated_Source\PSoC5/LCD.c ****     /* Make sure RS is low */
 387:.\Generated_Source\PSoC5/LCD.c ****     LCD_PORT_DR_REG &= ((uint8)(~LCD_RS));
 388:.\Generated_Source\PSoC5/LCD.c **** 
 389:.\Generated_Source\PSoC5/LCD.c ****     /* Set R/W high to read */
 390:.\Generated_Source\PSoC5/LCD.c ****     LCD_PORT_DR_REG |= LCD_RW;
 391:.\Generated_Source\PSoC5/LCD.c **** 
 392:.\Generated_Source\PSoC5/LCD.c ****     do
 393:.\Generated_Source\PSoC5/LCD.c ****     {
 394:.\Generated_Source\PSoC5/LCD.c ****         /* 40 ns delay required before rising Enable and 500ns between neighbour Enables */
 395:.\Generated_Source\PSoC5/LCD.c ****         CyDelayUs(0u);
 396:.\Generated_Source\PSoC5/LCD.c **** 
 397:.\Generated_Source\PSoC5/LCD.c ****         /* Set E high */
 398:.\Generated_Source\PSoC5/LCD.c ****         LCD_PORT_DR_REG |= LCD_E;
 399:.\Generated_Source\PSoC5/LCD.c **** 
 400:.\Generated_Source\PSoC5/LCD.c ****         /* 360 ns delay the setup time for data pins */
 401:.\Generated_Source\PSoC5/LCD.c ****         CyDelayUs(1u);
 402:.\Generated_Source\PSoC5/LCD.c **** 
 403:.\Generated_Source\PSoC5/LCD.c ****         /* Get port state */
 404:.\Generated_Source\PSoC5/LCD.c ****         value = LCD_PORT_PS_REG;
 405:.\Generated_Source\PSoC5/LCD.c **** 
 406:.\Generated_Source\PSoC5/LCD.c ****         /* Set enable low */
 407:.\Generated_Source\PSoC5/LCD.c ****         LCD_PORT_DR_REG &= ((uint8)(~LCD_E));
 408:.\Generated_Source\PSoC5/LCD.c **** 
 409:.\Generated_Source\PSoC5/LCD.c ****         /* This gives a true delay between disably Enable bit and poling Ready bit */
 410:.\Generated_Source\PSoC5/LCD.c ****         CyDelayUs(0u);
 411:.\Generated_Source\PSoC5/LCD.c **** 
 412:.\Generated_Source\PSoC5/LCD.c ****         /* Extract ready bit */
 413:.\Generated_Source\PSoC5/LCD.c ****         value &= LCD_READY_BIT;
 414:.\Generated_Source\PSoC5/LCD.c **** 
 415:.\Generated_Source\PSoC5/LCD.c ****         /* Set E high as we in 4-bit interface we need extra oparation */
 416:.\Generated_Source\PSoC5/LCD.c ****         LCD_PORT_DR_REG |= LCD_E;
 417:.\Generated_Source\PSoC5/LCD.c **** 
 418:.\Generated_Source\PSoC5/LCD.c ****         /* 360 ns delay the setup time for data pins */
 419:.\Generated_Source\PSoC5/LCD.c ****         CyDelayUs(1u);
 420:.\Generated_Source\PSoC5/LCD.c **** 
 421:.\Generated_Source\PSoC5/LCD.c ****         /* Set enable low */
 422:.\Generated_Source\PSoC5/LCD.c ****         LCD_PORT_DR_REG &= ((uint8)(~LCD_E));
 423:.\Generated_Source\PSoC5/LCD.c **** 
 424:.\Generated_Source\PSoC5/LCD.c ****         /* Repeat until bit 4 is not zero. */
 425:.\Generated_Source\PSoC5/LCD.c **** 
 426:.\Generated_Source\PSoC5/LCD.c ****     } while (value != 0u);
 427:.\Generated_Source\PSoC5/LCD.c **** 
 428:.\Generated_Source\PSoC5/LCD.c ****     /* Set R/W low to write */
 429:.\Generated_Source\PSoC5/LCD.c ****     LCD_PORT_DR_REG &= ((uint8)(~LCD_RW));
 430:.\Generated_Source\PSoC5/LCD.c **** 
 431:.\Generated_Source\PSoC5/LCD.c ****     /* Clear the LCD port*/
ARM GAS  C:\Users\Rolando\AppData\Local\Temp\ccLDCFbd.s 			page 9


 432:.\Generated_Source\PSoC5/LCD.c ****     LCD_PORT_DR_REG &= ((uint8)(~LCD_PORT_MASK));
 433:.\Generated_Source\PSoC5/LCD.c **** 
 434:.\Generated_Source\PSoC5/LCD.c ****     #if (CY_PSOC4)
 435:.\Generated_Source\PSoC5/LCD.c ****         
 436:.\Generated_Source\PSoC5/LCD.c ****         /* Mask off data pins to clear old values out */
 437:.\Generated_Source\PSoC5/LCD.c ****         value = LCD_PORT_PC_REG & ((uint32)(~ LCD_DM_DATA_MASK));
 438:.\Generated_Source\PSoC5/LCD.c ****         /* Load in high Z values for data pins, others unchanged */
 439:.\Generated_Source\PSoC5/LCD.c ****         LCD_PORT_PC_REG = value | LCD_STRONG_DATA_DM;
 440:.\Generated_Source\PSoC5/LCD.c **** 
 441:.\Generated_Source\PSoC5/LCD.c ****     #else
 442:.\Generated_Source\PSoC5/LCD.c **** 
 443:.\Generated_Source\PSoC5/LCD.c ****         /* Change Port to Output (Strong) on data pins */
 444:.\Generated_Source\PSoC5/LCD.c ****         /* Mask off data pins to clear high z values out. Configure data pins 
 445:.\Generated_Source\PSoC5/LCD.c ****         * to Strong Drive, others unchanged.
 446:.\Generated_Source\PSoC5/LCD.c ****         */
 447:.\Generated_Source\PSoC5/LCD.c ****         LCD_PORT_DM0_REG &= ((uint8)(~LCD_DATA_MASK));
 448:.\Generated_Source\PSoC5/LCD.c ****         /* Mask off data pins to clear high z values out */
 449:.\Generated_Source\PSoC5/LCD.c ****         value = LCD_PORT_DM1_REG & ((uint8)(~LCD_DATA_MASK));
 450:.\Generated_Source\PSoC5/LCD.c ****         /* Configure data pins to Strong Drive, others unchanged */
 451:.\Generated_Source\PSoC5/LCD.c ****         LCD_PORT_DM1_REG = value | (LCD_STRONG_DM1 & LCD_DATA_MASK);
 452:.\Generated_Source\PSoC5/LCD.c **** 
 453:.\Generated_Source\PSoC5/LCD.c ****         /* Mask off data pins to clear high z values out */
 454:.\Generated_Source\PSoC5/LCD.c ****         value = LCD_PORT_DM2_REG & ((uint8)(~LCD_DATA_MASK));
 455:.\Generated_Source\PSoC5/LCD.c ****         /* Configure data pins to Strong Drive, others unchanged */
 456:.\Generated_Source\PSoC5/LCD.c ****         LCD_PORT_DM2_REG = value | (LCD_STRONG_DM2 & LCD_DATA_MASK);
 457:.\Generated_Source\PSoC5/LCD.c ****     
 458:.\Generated_Source\PSoC5/LCD.c ****     #endif /* CY_PSOC4 */
 459:.\Generated_Source\PSoC5/LCD.c **** }
 460:.\Generated_Source\PSoC5/LCD.c **** 
 461:.\Generated_Source\PSoC5/LCD.c **** 
 462:.\Generated_Source\PSoC5/LCD.c **** /*******************************************************************************
 463:.\Generated_Source\PSoC5/LCD.c **** *  Function Name: LCD_WrDatNib
 464:.\Generated_Source\PSoC5/LCD.c **** ********************************************************************************
 465:.\Generated_Source\PSoC5/LCD.c **** *
 466:.\Generated_Source\PSoC5/LCD.c **** * Summary:
 467:.\Generated_Source\PSoC5/LCD.c **** *  Writes a data nibble to the LCD module.
 468:.\Generated_Source\PSoC5/LCD.c **** *
 469:.\Generated_Source\PSoC5/LCD.c **** * Parameters:
 470:.\Generated_Source\PSoC5/LCD.c **** *  nibble:  byte containing nibble in least significant nibble to be written
 471:.\Generated_Source\PSoC5/LCD.c **** *           to LCD module.
 472:.\Generated_Source\PSoC5/LCD.c **** *
 473:.\Generated_Source\PSoC5/LCD.c **** * Return:
 474:.\Generated_Source\PSoC5/LCD.c **** *  None.
 475:.\Generated_Source\PSoC5/LCD.c **** *
 476:.\Generated_Source\PSoC5/LCD.c **** *******************************************************************************/
 477:.\Generated_Source\PSoC5/LCD.c **** static void LCD_WrDatNib(uint8 nibble) 
 478:.\Generated_Source\PSoC5/LCD.c **** {
 479:.\Generated_Source\PSoC5/LCD.c ****     LCD_IsReady();
 480:.\Generated_Source\PSoC5/LCD.c **** 
 481:.\Generated_Source\PSoC5/LCD.c ****     /* RS shoul be low to select data register */
 482:.\Generated_Source\PSoC5/LCD.c ****     LCD_PORT_DR_REG |= LCD_RS;
 483:.\Generated_Source\PSoC5/LCD.c ****     /* Reset RW for write operation */
 484:.\Generated_Source\PSoC5/LCD.c ****     LCD_PORT_DR_REG &= ((uint8)(~LCD_RW));
 485:.\Generated_Source\PSoC5/LCD.c **** 
 486:.\Generated_Source\PSoC5/LCD.c ****     /* Two following lines of code will provide us with 40ns delay */
 487:.\Generated_Source\PSoC5/LCD.c ****     /* Clear data pins */
 488:.\Generated_Source\PSoC5/LCD.c ****     LCD_PORT_DR_REG &= ((uint8)(~LCD_DATA_MASK));
ARM GAS  C:\Users\Rolando\AppData\Local\Temp\ccLDCFbd.s 			page 10


 489:.\Generated_Source\PSoC5/LCD.c **** 
 490:.\Generated_Source\PSoC5/LCD.c ****     /* Write in data, bring E high*/
 491:.\Generated_Source\PSoC5/LCD.c ****     #if(0u != LCD_PORT_SHIFT) /* MISRA forbids shift by 0 so need to handle that */
 492:.\Generated_Source\PSoC5/LCD.c ****         LCD_PORT_DR_REG |= 
 493:.\Generated_Source\PSoC5/LCD.c ****             (LCD_E | ((uint8)(((uint8) nibble) << LCD_PORT_SHIFT)));
 494:.\Generated_Source\PSoC5/LCD.c ****     #else
 495:.\Generated_Source\PSoC5/LCD.c ****         LCD_PORT_DR_REG |= (LCD_E | nibble);
 496:.\Generated_Source\PSoC5/LCD.c ****     #endif /* (0u != LCD_PORT_SHIFT) */
 497:.\Generated_Source\PSoC5/LCD.c **** 
 498:.\Generated_Source\PSoC5/LCD.c ****     /* Minimum of 230 ns delay */
 499:.\Generated_Source\PSoC5/LCD.c ****     CyDelayUs(1u);
 500:.\Generated_Source\PSoC5/LCD.c **** 
 501:.\Generated_Source\PSoC5/LCD.c ****     LCD_PORT_DR_REG &= ((uint8)(~LCD_E));
 502:.\Generated_Source\PSoC5/LCD.c **** }
 503:.\Generated_Source\PSoC5/LCD.c **** 
 504:.\Generated_Source\PSoC5/LCD.c **** 
 505:.\Generated_Source\PSoC5/LCD.c **** /*******************************************************************************
 506:.\Generated_Source\PSoC5/LCD.c **** *  Function Name: LCD_WrCntrlNib
 507:.\Generated_Source\PSoC5/LCD.c **** ********************************************************************************
 508:.\Generated_Source\PSoC5/LCD.c **** *
 509:.\Generated_Source\PSoC5/LCD.c **** * Summary:
 510:.\Generated_Source\PSoC5/LCD.c **** *  Writes a control nibble to the LCD module.
 511:.\Generated_Source\PSoC5/LCD.c **** *
 512:.\Generated_Source\PSoC5/LCD.c **** * Parameters:
 513:.\Generated_Source\PSoC5/LCD.c **** *  nibble:  byte containing nibble in least significant nibble to be written
 514:.\Generated_Source\PSoC5/LCD.c **** *           to LCD module.
 515:.\Generated_Source\PSoC5/LCD.c **** *
 516:.\Generated_Source\PSoC5/LCD.c **** * Return:
 517:.\Generated_Source\PSoC5/LCD.c **** *  None.
 518:.\Generated_Source\PSoC5/LCD.c **** *
 519:.\Generated_Source\PSoC5/LCD.c **** *******************************************************************************/
 520:.\Generated_Source\PSoC5/LCD.c **** static void LCD_WrCntrlNib(uint8 nibble) 
 521:.\Generated_Source\PSoC5/LCD.c **** {
  26              		.loc 1 521 0
  27              		.cfi_startproc
  28              		@ args = 0, pretend = 0, frame = 0
  29              		@ frame_needed = 0, uses_anonymous_args = 0
  30              	.LVL0:
  31 0000 10B5     		push	{r4, lr}
  32              		.cfi_def_cfa_offset 8
  33              		.cfi_offset 4, -8
  34              		.cfi_offset 14, -4
 522:.\Generated_Source\PSoC5/LCD.c ****     /* RS and RW shoul be low to select instruction register and  write operation respectively */
 523:.\Generated_Source\PSoC5/LCD.c ****     LCD_PORT_DR_REG &= ((uint8)(~(LCD_RS | LCD_RW)));
  35              		.loc 1 523 0
  36 0002 0B4C     		ldr	r4, .L2
  37 0004 2378     		ldrb	r3, [r4]	@ zero_extendqisi2
  38 0006 03F09F03 		and	r3, r3, #159
  39 000a 2370     		strb	r3, [r4]
 524:.\Generated_Source\PSoC5/LCD.c **** 
 525:.\Generated_Source\PSoC5/LCD.c ****     /* Two following lines of code will give provide ua with 40ns delay */
 526:.\Generated_Source\PSoC5/LCD.c ****     /* Clear data pins */
 527:.\Generated_Source\PSoC5/LCD.c ****     LCD_PORT_DR_REG &= ((uint8)(~LCD_DATA_MASK));
  40              		.loc 1 527 0
  41 000c 2378     		ldrb	r3, [r4]	@ zero_extendqisi2
  42 000e 03F0F003 		and	r3, r3, #240
  43 0012 2370     		strb	r3, [r4]
ARM GAS  C:\Users\Rolando\AppData\Local\Temp\ccLDCFbd.s 			page 11


 528:.\Generated_Source\PSoC5/LCD.c **** 
 529:.\Generated_Source\PSoC5/LCD.c ****     /* Write control data and set enable signal */
 530:.\Generated_Source\PSoC5/LCD.c ****     #if(0u != LCD_PORT_SHIFT) /* MISRA forbids shift by 0 so need to handle that */
 531:.\Generated_Source\PSoC5/LCD.c ****         LCD_PORT_DR_REG |= 
 532:.\Generated_Source\PSoC5/LCD.c ****             (LCD_E | ((uint8)(((uint8) nibble) << LCD_PORT_SHIFT)));
 533:.\Generated_Source\PSoC5/LCD.c ****     #else
 534:.\Generated_Source\PSoC5/LCD.c ****         LCD_PORT_DR_REG |= (LCD_E | nibble);
  44              		.loc 1 534 0
  45 0014 2378     		ldrb	r3, [r4]	@ zero_extendqisi2
  46 0016 43F01003 		orr	r3, r3, #16
  47 001a 1843     		orrs	r0, r0, r3
  48              	.LVL1:
  49 001c 2070     		strb	r0, [r4]
 535:.\Generated_Source\PSoC5/LCD.c ****     #endif /* (0u != LCD_PORT_SHIFT) */
 536:.\Generated_Source\PSoC5/LCD.c **** 
 537:.\Generated_Source\PSoC5/LCD.c ****     /* Minimum of 230 ns delay */
 538:.\Generated_Source\PSoC5/LCD.c ****     CyDelayUs(1u);
  50              		.loc 1 538 0
  51 001e 0120     		movs	r0, #1
  52 0020 FFF7FEFF 		bl	CyDelayUs
  53              	.LVL2:
 539:.\Generated_Source\PSoC5/LCD.c **** 
 540:.\Generated_Source\PSoC5/LCD.c ****     LCD_PORT_DR_REG &= ((uint8)(~LCD_E));
  54              		.loc 1 540 0
  55 0024 2378     		ldrb	r3, [r4]	@ zero_extendqisi2
  56 0026 03F0EF03 		and	r3, r3, #239
  57 002a 2370     		strb	r3, [r4]
  58 002c 10BD     		pop	{r4, pc}
  59              	.L3:
  60 002e 00BF     		.align	2
  61              	.L2:
  62 0030 20510040 		.word	1073762592
  63              		.cfi_endproc
  64              	.LFE11:
  65              		.size	LCD_WrCntrlNib, .-LCD_WrCntrlNib
  66              		.section	.text.LCD_IsReady,"ax",%progbits
  67              		.align	1
  68              		.global	LCD_IsReady
  69              		.thumb
  70              		.thumb_func
  71              		.type	LCD_IsReady, %function
  72              	LCD_IsReady:
  73              	.LFB9:
 349:.\Generated_Source\PSoC5/LCD.c ****     uint8 value;
  74              		.loc 1 349 0
  75              		.cfi_startproc
  76              		@ args = 0, pretend = 0, frame = 0
  77              		@ frame_needed = 0, uses_anonymous_args = 0
  78 0000 2DE9F843 		push	{r3, r4, r5, r6, r7, r8, r9, lr}
  79              		.cfi_def_cfa_offset 32
  80              		.cfi_offset 3, -32
  81              		.cfi_offset 4, -28
  82              		.cfi_offset 5, -24
  83              		.cfi_offset 6, -20
  84              		.cfi_offset 7, -16
  85              		.cfi_offset 8, -12
  86              		.cfi_offset 9, -8
ARM GAS  C:\Users\Rolando\AppData\Local\Temp\ccLDCFbd.s 			page 12


  87              		.cfi_offset 14, -4
 353:.\Generated_Source\PSoC5/LCD.c **** 
  88              		.loc 1 353 0
  89 0004 314C     		ldr	r4, .L8
 370:.\Generated_Source\PSoC5/LCD.c ****         /* Load in high Z values for data pins, others unchanged */
  90              		.loc 1 370 0
  91 0006 324F     		ldr	r7, .L8+4
 353:.\Generated_Source\PSoC5/LCD.c **** 
  92              		.loc 1 353 0
  93 0008 2378     		ldrb	r3, [r4]	@ zero_extendqisi2
 375:.\Generated_Source\PSoC5/LCD.c ****         /* Load in high Z values for data pins, others unchanged */
  94              		.loc 1 375 0
  95 000a 324E     		ldr	r6, .L8+8
 353:.\Generated_Source\PSoC5/LCD.c **** 
  96              		.loc 1 353 0
  97 000c 03F08003 		and	r3, r3, #128
  98 0010 DBB2     		uxtb	r3, r3
  99 0012 2370     		strb	r3, [r4]
 370:.\Generated_Source\PSoC5/LCD.c ****         /* Load in high Z values for data pins, others unchanged */
 100              		.loc 1 370 0
 101 0014 3B78     		ldrb	r3, [r7]	@ zero_extendqisi2
 102              	.LVL3:
 380:.\Generated_Source\PSoC5/LCD.c ****         /* Load in high Z values for data pins, others unchanged */
 103              		.loc 1 380 0
 104 0016 304D     		ldr	r5, .L8+12
 370:.\Generated_Source\PSoC5/LCD.c ****         /* Load in high Z values for data pins, others unchanged */
 105              		.loc 1 370 0
 106 0018 03F0F003 		and	r3, r3, #240
 107              	.LVL4:
 372:.\Generated_Source\PSoC5/LCD.c **** 
 108              		.loc 1 372 0
 109 001c 43F00F03 		orr	r3, r3, #15
 110 0020 3B70     		strb	r3, [r7]
 375:.\Generated_Source\PSoC5/LCD.c ****         /* Load in high Z values for data pins, others unchanged */
 111              		.loc 1 375 0
 112 0022 3378     		ldrb	r3, [r6]	@ zero_extendqisi2
 113 0024 03F0F003 		and	r3, r3, #240
 114              	.LVL5:
 377:.\Generated_Source\PSoC5/LCD.c **** 
 115              		.loc 1 377 0
 116 0028 3370     		strb	r3, [r6]
 380:.\Generated_Source\PSoC5/LCD.c ****         /* Load in high Z values for data pins, others unchanged */
 117              		.loc 1 380 0
 118 002a 2B78     		ldrb	r3, [r5]	@ zero_extendqisi2
 119              	.LVL6:
 120 002c 03F0F003 		and	r3, r3, #240
 121              	.LVL7:
 382:.\Generated_Source\PSoC5/LCD.c ****     
 122              		.loc 1 382 0
 123 0030 2B70     		strb	r3, [r5]
 387:.\Generated_Source\PSoC5/LCD.c **** 
 124              		.loc 1 387 0
 125 0032 2378     		ldrb	r3, [r4]	@ zero_extendqisi2
 126              	.LVL8:
 127 0034 03F0DF03 		and	r3, r3, #223
 128 0038 2370     		strb	r3, [r4]
 129              	.LVL9:
ARM GAS  C:\Users\Rolando\AppData\Local\Temp\ccLDCFbd.s 			page 13


 390:.\Generated_Source\PSoC5/LCD.c **** 
 130              		.loc 1 390 0
 131 003a 2378     		ldrb	r3, [r4]	@ zero_extendqisi2
 132 003c 43F04003 		orr	r3, r3, #64
 133 0040 2370     		strb	r3, [r4]
 134              	.L5:
 395:.\Generated_Source\PSoC5/LCD.c **** 
 135              		.loc 1 395 0 discriminator 1
 136 0042 0020     		movs	r0, #0
 137 0044 FFF7FEFF 		bl	CyDelayUs
 138              	.LVL10:
 398:.\Generated_Source\PSoC5/LCD.c **** 
 139              		.loc 1 398 0 discriminator 1
 140 0048 2378     		ldrb	r3, [r4]	@ zero_extendqisi2
 401:.\Generated_Source\PSoC5/LCD.c **** 
 141              		.loc 1 401 0 discriminator 1
 142 004a 0120     		movs	r0, #1
 398:.\Generated_Source\PSoC5/LCD.c **** 
 143              		.loc 1 398 0 discriminator 1
 144 004c 43F01003 		orr	r3, r3, #16
 145 0050 2370     		strb	r3, [r4]
 401:.\Generated_Source\PSoC5/LCD.c **** 
 146              		.loc 1 401 0 discriminator 1
 147 0052 FFF7FEFF 		bl	CyDelayUs
 148              	.LVL11:
 404:.\Generated_Source\PSoC5/LCD.c **** 
 149              		.loc 1 404 0 discriminator 1
 150 0056 214B     		ldr	r3, .L8+16
 410:.\Generated_Source\PSoC5/LCD.c **** 
 151              		.loc 1 410 0 discriminator 1
 152 0058 0020     		movs	r0, #0
 404:.\Generated_Source\PSoC5/LCD.c **** 
 153              		.loc 1 404 0 discriminator 1
 154 005a 93F80090 		ldrb	r9, [r3]	@ zero_extendqisi2
 407:.\Generated_Source\PSoC5/LCD.c **** 
 155              		.loc 1 407 0 discriminator 1
 156 005e 2378     		ldrb	r3, [r4]	@ zero_extendqisi2
 404:.\Generated_Source\PSoC5/LCD.c **** 
 157              		.loc 1 404 0 discriminator 1
 158 0060 5FFA89F9 		uxtb	r9, r9
 159              	.LVL12:
 407:.\Generated_Source\PSoC5/LCD.c **** 
 160              		.loc 1 407 0 discriminator 1
 161 0064 03F0EF03 		and	r3, r3, #239
 162 0068 2370     		strb	r3, [r4]
 410:.\Generated_Source\PSoC5/LCD.c **** 
 163              		.loc 1 410 0 discriminator 1
 164 006a FFF7FEFF 		bl	CyDelayUs
 165              	.LVL13:
 416:.\Generated_Source\PSoC5/LCD.c **** 
 166              		.loc 1 416 0 discriminator 1
 167 006e 2378     		ldrb	r3, [r4]	@ zero_extendqisi2
 419:.\Generated_Source\PSoC5/LCD.c **** 
 168              		.loc 1 419 0 discriminator 1
 169 0070 0120     		movs	r0, #1
 416:.\Generated_Source\PSoC5/LCD.c **** 
 170              		.loc 1 416 0 discriminator 1
ARM GAS  C:\Users\Rolando\AppData\Local\Temp\ccLDCFbd.s 			page 14


 171 0072 43F01003 		orr	r3, r3, #16
 172 0076 2370     		strb	r3, [r4]
 419:.\Generated_Source\PSoC5/LCD.c **** 
 173              		.loc 1 419 0 discriminator 1
 174 0078 FFF7FEFF 		bl	CyDelayUs
 175              	.LVL14:
 422:.\Generated_Source\PSoC5/LCD.c **** 
 176              		.loc 1 422 0 discriminator 1
 177 007c 2378     		ldrb	r3, [r4]	@ zero_extendqisi2
 426:.\Generated_Source\PSoC5/LCD.c **** 
 178              		.loc 1 426 0 discriminator 1
 179 007e 19F0080F 		tst	r9, #8
 422:.\Generated_Source\PSoC5/LCD.c **** 
 180              		.loc 1 422 0 discriminator 1
 181 0082 03F0EF03 		and	r3, r3, #239
 398:.\Generated_Source\PSoC5/LCD.c **** 
 182              		.loc 1 398 0 discriminator 1
 183 0086 DFF84480 		ldr	r8, .L8
 422:.\Generated_Source\PSoC5/LCD.c **** 
 184              		.loc 1 422 0 discriminator 1
 185 008a 2370     		strb	r3, [r4]
 426:.\Generated_Source\PSoC5/LCD.c **** 
 186              		.loc 1 426 0 discriminator 1
 187 008c D9D1     		bne	.L5
 429:.\Generated_Source\PSoC5/LCD.c **** 
 188              		.loc 1 429 0
 189 008e 98F80030 		ldrb	r3, [r8]	@ zero_extendqisi2
 190 0092 03F0BF03 		and	r3, r3, #191
 191 0096 88F80030 		strb	r3, [r8]
 432:.\Generated_Source\PSoC5/LCD.c **** 
 192              		.loc 1 432 0
 193 009a 98F80030 		ldrb	r3, [r8]	@ zero_extendqisi2
 194 009e 03F08003 		and	r3, r3, #128
 195 00a2 DBB2     		uxtb	r3, r3
 196 00a4 88F80030 		strb	r3, [r8]
 447:.\Generated_Source\PSoC5/LCD.c ****         /* Mask off data pins to clear high z values out */
 197              		.loc 1 447 0
 198 00a8 3B78     		ldrb	r3, [r7]	@ zero_extendqisi2
 199 00aa 03F0F003 		and	r3, r3, #240
 200 00ae 3B70     		strb	r3, [r7]
 449:.\Generated_Source\PSoC5/LCD.c ****         /* Configure data pins to Strong Drive, others unchanged */
 201              		.loc 1 449 0
 202 00b0 3378     		ldrb	r3, [r6]	@ zero_extendqisi2
 203              	.LVL15:
 204 00b2 03F0F003 		and	r3, r3, #240
 205              	.LVL16:
 451:.\Generated_Source\PSoC5/LCD.c **** 
 206              		.loc 1 451 0
 207 00b6 43F00F03 		orr	r3, r3, #15
 208 00ba 3370     		strb	r3, [r6]
 454:.\Generated_Source\PSoC5/LCD.c ****         /* Configure data pins to Strong Drive, others unchanged */
 209              		.loc 1 454 0
 210 00bc 2B78     		ldrb	r3, [r5]	@ zero_extendqisi2
 211              	.LVL17:
 212 00be 03F0F003 		and	r3, r3, #240
 213              	.LVL18:
 456:.\Generated_Source\PSoC5/LCD.c ****     
ARM GAS  C:\Users\Rolando\AppData\Local\Temp\ccLDCFbd.s 			page 15


 214              		.loc 1 456 0
 215 00c2 43F00F03 		orr	r3, r3, #15
 216 00c6 2B70     		strb	r3, [r5]
 217 00c8 BDE8F883 		pop	{r3, r4, r5, r6, r7, r8, r9, pc}
 218              	.L9:
 219              		.align	2
 220              	.L8:
 221 00cc 20510040 		.word	1073762592
 222 00d0 22510040 		.word	1073762594
 223 00d4 23510040 		.word	1073762595
 224 00d8 24510040 		.word	1073762596
 225 00dc 21510040 		.word	1073762593
 226              		.cfi_endproc
 227              	.LFE9:
 228              		.size	LCD_IsReady, .-LCD_IsReady
 229              		.section	.text.LCD_WrDatNib,"ax",%progbits
 230              		.align	1
 231              		.thumb
 232              		.thumb_func
 233              		.type	LCD_WrDatNib, %function
 234              	LCD_WrDatNib:
 235              	.LFB10:
 478:.\Generated_Source\PSoC5/LCD.c ****     LCD_IsReady();
 236              		.loc 1 478 0
 237              		.cfi_startproc
 238              		@ args = 0, pretend = 0, frame = 0
 239              		@ frame_needed = 0, uses_anonymous_args = 0
 240              	.LVL19:
 241 0000 38B5     		push	{r3, r4, r5, lr}
 242              		.cfi_def_cfa_offset 16
 243              		.cfi_offset 3, -16
 244              		.cfi_offset 4, -12
 245              		.cfi_offset 5, -8
 246              		.cfi_offset 14, -4
 478:.\Generated_Source\PSoC5/LCD.c ****     LCD_IsReady();
 247              		.loc 1 478 0
 248 0002 0546     		mov	r5, r0
 482:.\Generated_Source\PSoC5/LCD.c ****     /* Reset RW for write operation */
 249              		.loc 1 482 0
 250 0004 0E4C     		ldr	r4, .L11
 479:.\Generated_Source\PSoC5/LCD.c **** 
 251              		.loc 1 479 0
 252 0006 FFF7FEFF 		bl	LCD_IsReady
 253              	.LVL20:
 482:.\Generated_Source\PSoC5/LCD.c ****     /* Reset RW for write operation */
 254              		.loc 1 482 0
 255 000a 2378     		ldrb	r3, [r4]	@ zero_extendqisi2
 256 000c 43F02003 		orr	r3, r3, #32
 257 0010 2370     		strb	r3, [r4]
 484:.\Generated_Source\PSoC5/LCD.c **** 
 258              		.loc 1 484 0
 259 0012 2378     		ldrb	r3, [r4]	@ zero_extendqisi2
 260 0014 03F0BF03 		and	r3, r3, #191
 261 0018 2370     		strb	r3, [r4]
 488:.\Generated_Source\PSoC5/LCD.c **** 
 262              		.loc 1 488 0
 263 001a 2378     		ldrb	r3, [r4]	@ zero_extendqisi2
ARM GAS  C:\Users\Rolando\AppData\Local\Temp\ccLDCFbd.s 			page 16


 264 001c 03F0F003 		and	r3, r3, #240
 265 0020 2370     		strb	r3, [r4]
 495:.\Generated_Source\PSoC5/LCD.c ****     #endif /* (0u != LCD_PORT_SHIFT) */
 266              		.loc 1 495 0
 267 0022 2378     		ldrb	r3, [r4]	@ zero_extendqisi2
 268 0024 43F01003 		orr	r3, r3, #16
 269 0028 45EA0300 		orr	r0, r5, r3
 270 002c 2070     		strb	r0, [r4]
 499:.\Generated_Source\PSoC5/LCD.c **** 
 271              		.loc 1 499 0
 272 002e 0120     		movs	r0, #1
 273 0030 FFF7FEFF 		bl	CyDelayUs
 274              	.LVL21:
 501:.\Generated_Source\PSoC5/LCD.c **** }
 275              		.loc 1 501 0
 276 0034 2378     		ldrb	r3, [r4]	@ zero_extendqisi2
 277 0036 03F0EF03 		and	r3, r3, #239
 278 003a 2370     		strb	r3, [r4]
 279 003c 38BD     		pop	{r3, r4, r5, pc}
 280              	.L12:
 281 003e 00BF     		.align	2
 282              	.L11:
 283 0040 20510040 		.word	1073762592
 284              		.cfi_endproc
 285              	.LFE10:
 286              		.size	LCD_WrDatNib, .-LCD_WrDatNib
 287              		.section	.text.LCD_WriteData,"ax",%progbits
 288              		.align	1
 289              		.global	LCD_WriteData
 290              		.thumb
 291              		.thumb_func
 292              		.type	LCD_WriteData, %function
 293              	LCD_WriteData:
 294              	.LFB7:
 285:.\Generated_Source\PSoC5/LCD.c ****     uint8 nibble;
 295              		.loc 1 285 0
 296              		.cfi_startproc
 297              		@ args = 0, pretend = 0, frame = 0
 298              		@ frame_needed = 0, uses_anonymous_args = 0
 299              	.LVL22:
 300 0000 10B5     		push	{r4, lr}
 301              		.cfi_def_cfa_offset 8
 302              		.cfi_offset 4, -8
 303              		.cfi_offset 14, -4
 285:.\Generated_Source\PSoC5/LCD.c ****     uint8 nibble;
 304              		.loc 1 285 0
 305 0002 0446     		mov	r4, r0
 288:.\Generated_Source\PSoC5/LCD.c ****     nibble = dByte >> LCD_NIBBLE_SHIFT;
 306              		.loc 1 288 0
 307 0004 FFF7FEFF 		bl	LCD_IsReady
 308              	.LVL23:
 292:.\Generated_Source\PSoC5/LCD.c **** 
 309              		.loc 1 292 0
 310 0008 2009     		lsrs	r0, r4, #4
 311 000a FFF7FEFF 		bl	LCD_WrDatNib
 312              	.LVL24:
 296:.\Generated_Source\PSoC5/LCD.c **** }
ARM GAS  C:\Users\Rolando\AppData\Local\Temp\ccLDCFbd.s 			page 17


 313              		.loc 1 296 0
 314 000e 04F00F00 		and	r0, r4, #15
 297:.\Generated_Source\PSoC5/LCD.c **** 
 315              		.loc 1 297 0
 316 0012 BDE81040 		pop	{r4, lr}
 317              		.cfi_restore 14
 318              		.cfi_restore 4
 319              		.cfi_def_cfa_offset 0
 320              	.LVL25:
 296:.\Generated_Source\PSoC5/LCD.c **** }
 321              		.loc 1 296 0
 322 0016 FFF7FEBF 		b	LCD_WrDatNib
 323              	.LVL26:
 324              		.cfi_endproc
 325              	.LFE7:
 326              		.size	LCD_WriteData, .-LCD_WriteData
 327              		.section	.text.LCD_PrintString,"ax",%progbits
 328              		.align	1
 329              		.global	LCD_PrintString
 330              		.thumb
 331              		.thumb_func
 332              		.type	LCD_PrintString, %function
 333              	LCD_PrintString:
 334              	.LFB5:
 234:.\Generated_Source\PSoC5/LCD.c ****     uint8 indexU8 = 1u;
 335              		.loc 1 234 0
 336              		.cfi_startproc
 337              		@ args = 0, pretend = 0, frame = 0
 338              		@ frame_needed = 0, uses_anonymous_args = 0
 339              	.LVL27:
 340 0000 38B5     		push	{r3, r4, r5, lr}
 341              		.cfi_def_cfa_offset 16
 342              		.cfi_offset 3, -16
 343              		.cfi_offset 4, -12
 344              		.cfi_offset 5, -8
 345              		.cfi_offset 14, -4
 234:.\Generated_Source\PSoC5/LCD.c ****     uint8 indexU8 = 1u;
 346              		.loc 1 234 0
 347 0002 0546     		mov	r5, r0
 236:.\Generated_Source\PSoC5/LCD.c **** 
 348              		.loc 1 236 0
 349 0004 0078     		ldrb	r0, [r0]	@ zero_extendqisi2
 350              	.LVL28:
 235:.\Generated_Source\PSoC5/LCD.c ****     char8 current = *string;
 351              		.loc 1 235 0
 352 0006 0124     		movs	r4, #1
 353              	.LVL29:
 354              	.L15:
 239:.\Generated_Source\PSoC5/LCD.c ****     {
 355              		.loc 1 239 0
 356 0008 28B1     		cbz	r0, .L17
 241:.\Generated_Source\PSoC5/LCD.c ****         current = string[indexU8];
 357              		.loc 1 241 0
 358 000a FFF7FEFF 		bl	LCD_WriteData
 359              	.LVL30:
 242:.\Generated_Source\PSoC5/LCD.c ****         indexU8++;
 360              		.loc 1 242 0
ARM GAS  C:\Users\Rolando\AppData\Local\Temp\ccLDCFbd.s 			page 18


 361 000e 285D     		ldrb	r0, [r5, r4]	@ zero_extendqisi2
 362              	.LVL31:
 243:.\Generated_Source\PSoC5/LCD.c ****     }
 363              		.loc 1 243 0
 364 0010 0134     		adds	r4, r4, #1
 365              	.LVL32:
 366 0012 E4B2     		uxtb	r4, r4
 367              	.LVL33:
 368 0014 F8E7     		b	.L15
 369              	.L17:
 245:.\Generated_Source\PSoC5/LCD.c **** 
 370              		.loc 1 245 0
 371 0016 38BD     		pop	{r3, r4, r5, pc}
 372              		.cfi_endproc
 373              	.LFE5:
 374              		.size	LCD_PrintString, .-LCD_PrintString
 375              		.section	.text.LCD_PutChar,"ax",%progbits
 376              		.align	1
 377              		.global	LCD_PutChar
 378              		.thumb
 379              		.thumb_func
 380              		.type	LCD_PutChar, %function
 381              	LCD_PutChar:
 382              	.LFB6:
 265:.\Generated_Source\PSoC5/LCD.c ****     LCD_WriteData((uint8)character);
 383              		.loc 1 265 0
 384              		.cfi_startproc
 385              		@ args = 0, pretend = 0, frame = 0
 386              		@ frame_needed = 0, uses_anonymous_args = 0
 387              		@ link register save eliminated.
 388              	.LVL34:
 266:.\Generated_Source\PSoC5/LCD.c **** }
 389              		.loc 1 266 0
 390 0000 FFF7FEBF 		b	LCD_WriteData
 391              	.LVL35:
 392              		.cfi_endproc
 393              	.LFE6:
 394              		.size	LCD_PutChar, .-LCD_PutChar
 395              		.section	.text.LCD_WriteControl,"ax",%progbits
 396              		.align	1
 397              		.global	LCD_WriteControl
 398              		.thumb
 399              		.thumb_func
 400              		.type	LCD_WriteControl, %function
 401              	LCD_WriteControl:
 402              	.LFB8:
 315:.\Generated_Source\PSoC5/LCD.c ****     uint8 nibble;
 403              		.loc 1 315 0
 404              		.cfi_startproc
 405              		@ args = 0, pretend = 0, frame = 0
 406              		@ frame_needed = 0, uses_anonymous_args = 0
 407              	.LVL36:
 408 0000 10B5     		push	{r4, lr}
 409              		.cfi_def_cfa_offset 8
 410              		.cfi_offset 4, -8
 411              		.cfi_offset 14, -4
 315:.\Generated_Source\PSoC5/LCD.c ****     uint8 nibble;
ARM GAS  C:\Users\Rolando\AppData\Local\Temp\ccLDCFbd.s 			page 19


 412              		.loc 1 315 0
 413 0002 0446     		mov	r4, r0
 318:.\Generated_Source\PSoC5/LCD.c **** 
 414              		.loc 1 318 0
 415 0004 FFF7FEFF 		bl	LCD_IsReady
 416              	.LVL37:
 323:.\Generated_Source\PSoC5/LCD.c ****     nibble = cByte & LCD_NIBBLE_MASK;
 417              		.loc 1 323 0
 418 0008 2009     		lsrs	r0, r4, #4
 419 000a FFF7FEFF 		bl	LCD_WrCntrlNib
 420              	.LVL38:
 327:.\Generated_Source\PSoC5/LCD.c **** }
 421              		.loc 1 327 0
 422 000e 04F00F00 		and	r0, r4, #15
 328:.\Generated_Source\PSoC5/LCD.c **** 
 423              		.loc 1 328 0
 424 0012 BDE81040 		pop	{r4, lr}
 425              		.cfi_restore 14
 426              		.cfi_restore 4
 427              		.cfi_def_cfa_offset 0
 428              	.LVL39:
 327:.\Generated_Source\PSoC5/LCD.c **** }
 429              		.loc 1 327 0
 430 0016 FFF7FEBF 		b	LCD_WrCntrlNib
 431              	.LVL40:
 432              		.cfi_endproc
 433              	.LFE8:
 434              		.size	LCD_WriteControl, .-LCD_WriteControl
 435              		.section	.text.LCD_Init,"ax",%progbits
 436              		.align	1
 437              		.global	LCD_Init
 438              		.thumb
 439              		.thumb_func
 440              		.type	LCD_Init, %function
 441              	LCD_Init:
 442              	.LFB0:
  56:.\Generated_Source\PSoC5/LCD.c ****     /* INIT CODE */
 443              		.loc 1 56 0
 444              		.cfi_startproc
 445              		@ args = 0, pretend = 0, frame = 0
 446              		@ frame_needed = 0, uses_anonymous_args = 0
 447 0000 08B5     		push	{r3, lr}
 448              		.cfi_def_cfa_offset 8
 449              		.cfi_offset 3, -8
 450              		.cfi_offset 14, -4
  58:.\Generated_Source\PSoC5/LCD.c ****     LCD_WrCntrlNib(LCD_DISPLAY_8_BIT_INIT);    /* Selects 8-bit mode */
 451              		.loc 1 58 0
 452 0002 2820     		movs	r0, #40
 453 0004 FFF7FEFF 		bl	CyDelay
 454              	.LVL41:
  59:.\Generated_Source\PSoC5/LCD.c ****     CyDelay(5u);                                                         /* Delay 5 ms */
 455              		.loc 1 59 0
 456 0008 0320     		movs	r0, #3
 457 000a FFF7FEFF 		bl	LCD_WrCntrlNib
 458              	.LVL42:
  60:.\Generated_Source\PSoC5/LCD.c ****     LCD_WrCntrlNib(LCD_DISPLAY_8_BIT_INIT);    /* Selects 8-bit mode */
 459              		.loc 1 60 0
ARM GAS  C:\Users\Rolando\AppData\Local\Temp\ccLDCFbd.s 			page 20


 460 000e 0520     		movs	r0, #5
 461 0010 FFF7FEFF 		bl	CyDelay
 462              	.LVL43:
  61:.\Generated_Source\PSoC5/LCD.c ****     CyDelay(15u);                                                        /* Delay 15 ms */
 463              		.loc 1 61 0
 464 0014 0320     		movs	r0, #3
 465 0016 FFF7FEFF 		bl	LCD_WrCntrlNib
 466              	.LVL44:
  62:.\Generated_Source\PSoC5/LCD.c ****     LCD_WrCntrlNib(LCD_DISPLAY_8_BIT_INIT);    /* Selects 8-bit mode */
 467              		.loc 1 62 0
 468 001a 0F20     		movs	r0, #15
 469 001c FFF7FEFF 		bl	CyDelay
 470              	.LVL45:
  63:.\Generated_Source\PSoC5/LCD.c ****     CyDelay(1u);                                                         /* Delay 1 ms */
 471              		.loc 1 63 0
 472 0020 0320     		movs	r0, #3
 473 0022 FFF7FEFF 		bl	LCD_WrCntrlNib
 474              	.LVL46:
  64:.\Generated_Source\PSoC5/LCD.c ****     LCD_WrCntrlNib(LCD_DISPLAY_4_BIT_INIT);    /* Selects 4-bit mode */
 475              		.loc 1 64 0
 476 0026 0120     		movs	r0, #1
 477 0028 FFF7FEFF 		bl	CyDelay
 478              	.LVL47:
  65:.\Generated_Source\PSoC5/LCD.c ****     CyDelay(5u);                                                         /* Delay 5 ms */
 479              		.loc 1 65 0
 480 002c 0220     		movs	r0, #2
 481 002e FFF7FEFF 		bl	LCD_WrCntrlNib
 482              	.LVL48:
  66:.\Generated_Source\PSoC5/LCD.c **** 
 483              		.loc 1 66 0
 484 0032 0520     		movs	r0, #5
 485 0034 FFF7FEFF 		bl	CyDelay
 486              	.LVL49:
  68:.\Generated_Source\PSoC5/LCD.c ****     LCD_WriteControl(LCD_DISPLAY_CURSOR_ON);      /* Turn Display, Cursor ON */
 487              		.loc 1 68 0
 488 0038 0620     		movs	r0, #6
 489 003a FFF7FEFF 		bl	LCD_WriteControl
 490              	.LVL50:
  69:.\Generated_Source\PSoC5/LCD.c ****     LCD_WriteControl(LCD_DISPLAY_2_LINES_5x10);   /* 2 Lines by 5x10 Characters */
 491              		.loc 1 69 0
 492 003e 0E20     		movs	r0, #14
 493 0040 FFF7FEFF 		bl	LCD_WriteControl
 494              	.LVL51:
  70:.\Generated_Source\PSoC5/LCD.c ****     LCD_WriteControl(LCD_DISPLAY_CURSOR_OFF);     /* Turn Display, Cursor OFF */
 495              		.loc 1 70 0
 496 0044 2C20     		movs	r0, #44
 497 0046 FFF7FEFF 		bl	LCD_WriteControl
 498              	.LVL52:
  71:.\Generated_Source\PSoC5/LCD.c ****     LCD_WriteControl(LCD_CLEAR_DISPLAY);          /* Clear LCD Screen */
 499              		.loc 1 71 0
 500 004a 0820     		movs	r0, #8
 501 004c FFF7FEFF 		bl	LCD_WriteControl
 502              	.LVL53:
  72:.\Generated_Source\PSoC5/LCD.c ****     LCD_WriteControl(LCD_DISPLAY_ON_CURSOR_OFF);  /* Turn Display ON, Cursor OFF */
 503              		.loc 1 72 0
 504 0050 0120     		movs	r0, #1
 505 0052 FFF7FEFF 		bl	LCD_WriteControl
ARM GAS  C:\Users\Rolando\AppData\Local\Temp\ccLDCFbd.s 			page 21


 506              	.LVL54:
  73:.\Generated_Source\PSoC5/LCD.c ****     LCD_WriteControl(LCD_RESET_CURSOR_POSITION);  /* Set Cursor to 0,0 */
 507              		.loc 1 73 0
 508 0056 0C20     		movs	r0, #12
 509 0058 FFF7FEFF 		bl	LCD_WriteControl
 510              	.LVL55:
  74:.\Generated_Source\PSoC5/LCD.c ****     CyDelay(5u);
 511              		.loc 1 74 0
 512 005c 0320     		movs	r0, #3
 513 005e FFF7FEFF 		bl	LCD_WriteControl
 514              	.LVL56:
  80:.\Generated_Source\PSoC5/LCD.c **** 
 515              		.loc 1 80 0
 516 0062 BDE80840 		pop	{r3, lr}
 517              		.cfi_restore 14
 518              		.cfi_restore 3
 519              		.cfi_def_cfa_offset 0
  75:.\Generated_Source\PSoC5/LCD.c **** 
 520              		.loc 1 75 0
 521 0066 0520     		movs	r0, #5
 522 0068 FFF7FEBF 		b	CyDelay
 523              	.LVL57:
 524              		.cfi_endproc
 525              	.LFE0:
 526              		.size	LCD_Init, .-LCD_Init
 527              		.section	.text.LCD_Enable,"ax",%progbits
 528              		.align	1
 529              		.global	LCD_Enable
 530              		.thumb
 531              		.thumb_func
 532              		.type	LCD_Enable, %function
 533              	LCD_Enable:
 534              	.LFB1:
 105:.\Generated_Source\PSoC5/LCD.c ****     LCD_DisplayOn();
 535              		.loc 1 105 0
 536              		.cfi_startproc
 537              		@ args = 0, pretend = 0, frame = 0
 538              		@ frame_needed = 0, uses_anonymous_args = 0
 539 0000 08B5     		push	{r3, lr}
 540              		.cfi_def_cfa_offset 8
 541              		.cfi_offset 3, -8
 542              		.cfi_offset 14, -4
 106:.\Generated_Source\PSoC5/LCD.c ****     LCD_enableState = 1u;
 543              		.loc 1 106 0
 544 0002 0C20     		movs	r0, #12
 545 0004 FFF7FEFF 		bl	LCD_WriteControl
 546              	.LVL58:
 107:.\Generated_Source\PSoC5/LCD.c **** }
 547              		.loc 1 107 0
 548 0008 014B     		ldr	r3, .L22
 549 000a 0122     		movs	r2, #1
 550 000c 1A70     		strb	r2, [r3]
 551 000e 08BD     		pop	{r3, pc}
 552              	.L23:
 553              		.align	2
 554              	.L22:
 555 0010 00000000 		.word	.LANCHOR0
ARM GAS  C:\Users\Rolando\AppData\Local\Temp\ccLDCFbd.s 			page 22


 556              		.cfi_endproc
 557              	.LFE1:
 558              		.size	LCD_Enable, .-LCD_Enable
 559              		.section	.text.LCD_Start,"ax",%progbits
 560              		.align	1
 561              		.global	LCD_Start
 562              		.thumb
 563              		.thumb_func
 564              		.type	LCD_Start, %function
 565              	LCD_Start:
 566              	.LFB2:
 138:.\Generated_Source\PSoC5/LCD.c ****     /* If not initialized then perform initialization */
 567              		.loc 1 138 0
 568              		.cfi_startproc
 569              		@ args = 0, pretend = 0, frame = 0
 570              		@ frame_needed = 0, uses_anonymous_args = 0
 571 0000 10B5     		push	{r4, lr}
 572              		.cfi_def_cfa_offset 8
 573              		.cfi_offset 4, -8
 574              		.cfi_offset 14, -4
 140:.\Generated_Source\PSoC5/LCD.c ****     {
 575              		.loc 1 140 0
 576 0002 054C     		ldr	r4, .L26
 577 0004 6378     		ldrb	r3, [r4, #1]	@ zero_extendqisi2
 578 0006 1BB9     		cbnz	r3, .L25
 142:.\Generated_Source\PSoC5/LCD.c ****         LCD_initVar = 1u;
 579              		.loc 1 142 0
 580 0008 FFF7FEFF 		bl	LCD_Init
 581              	.LVL59:
 143:.\Generated_Source\PSoC5/LCD.c ****     }
 582              		.loc 1 143 0
 583 000c 0123     		movs	r3, #1
 584 000e 6370     		strb	r3, [r4, #1]
 585              	.L25:
 148:.\Generated_Source\PSoC5/LCD.c **** 
 586              		.loc 1 148 0
 587 0010 BDE81040 		pop	{r4, lr}
 588              		.cfi_restore 14
 589              		.cfi_restore 4
 590              		.cfi_def_cfa_offset 0
 147:.\Generated_Source\PSoC5/LCD.c **** }
 591              		.loc 1 147 0
 592 0014 FFF7FEBF 		b	LCD_Enable
 593              	.LVL60:
 594              	.L27:
 595              		.align	2
 596              	.L26:
 597 0018 00000000 		.word	.LANCHOR0
 598              		.cfi_endproc
 599              	.LFE2:
 600              		.size	LCD_Start, .-LCD_Start
 601              		.section	.text.LCD_Stop,"ax",%progbits
 602              		.align	1
 603              		.global	LCD_Stop
 604              		.thumb
 605              		.thumb_func
 606              		.type	LCD_Stop, %function
ARM GAS  C:\Users\Rolando\AppData\Local\Temp\ccLDCFbd.s 			page 23


 607              	LCD_Stop:
 608              	.LFB3:
 169:.\Generated_Source\PSoC5/LCD.c ****     /* Calls LCD Off Macro */
 609              		.loc 1 169 0
 610              		.cfi_startproc
 611              		@ args = 0, pretend = 0, frame = 0
 612              		@ frame_needed = 0, uses_anonymous_args = 0
 613 0000 08B5     		push	{r3, lr}
 614              		.cfi_def_cfa_offset 8
 615              		.cfi_offset 3, -8
 616              		.cfi_offset 14, -4
 171:.\Generated_Source\PSoC5/LCD.c ****     LCD_enableState = 0u;
 617              		.loc 1 171 0
 618 0002 0820     		movs	r0, #8
 619 0004 FFF7FEFF 		bl	LCD_WriteControl
 620              	.LVL61:
 172:.\Generated_Source\PSoC5/LCD.c **** }
 621              		.loc 1 172 0
 622 0008 014B     		ldr	r3, .L29
 623 000a 0022     		movs	r2, #0
 624 000c 1A70     		strb	r2, [r3]
 625 000e 08BD     		pop	{r3, pc}
 626              	.L30:
 627              		.align	2
 628              	.L29:
 629 0010 00000000 		.word	.LANCHOR0
 630              		.cfi_endproc
 631              	.LFE3:
 632              		.size	LCD_Stop, .-LCD_Stop
 633              		.section	.text.LCD_Position,"ax",%progbits
 634              		.align	1
 635              		.global	LCD_Position
 636              		.thumb
 637              		.thumb_func
 638              		.type	LCD_Position, %function
 639              	LCD_Position:
 640              	.LFB4:
 197:.\Generated_Source\PSoC5/LCD.c ****     switch (row)
 641              		.loc 1 197 0
 642              		.cfi_startproc
 643              		@ args = 0, pretend = 0, frame = 0
 644              		@ frame_needed = 0, uses_anonymous_args = 0
 645              		@ link register save eliminated.
 646              	.LVL62:
 198:.\Generated_Source\PSoC5/LCD.c ****     {
 647              		.loc 1 198 0
 648 0000 0328     		cmp	r0, #3
 649 0002 11D8     		bhi	.L31
 650 0004 DFE800F0 		tbb	[pc, r0]
 651              	.L34:
 652 0008 02       		.byte	(.L33-.L34)/2
 653 0009 05       		.byte	(.L35-.L34)/2
 654 000a 08       		.byte	(.L36-.L34)/2
 655 000b 0B       		.byte	(.L37-.L34)/2
 656              		.p2align 1
 657              	.L33:
 201:.\Generated_Source\PSoC5/LCD.c ****             break;
ARM GAS  C:\Users\Rolando\AppData\Local\Temp\ccLDCFbd.s 			page 24


 658              		.loc 1 201 0
 659 000c 81F08000 		eor	r0, r1, #128
 660              	.LVL63:
 661 0010 08E0     		b	.L38
 662              	.LVL64:
 663              	.L35:
 204:.\Generated_Source\PSoC5/LCD.c ****             break;
 664              		.loc 1 204 0
 665 0012 A1F14000 		sub	r0, r1, #64
 666              	.LVL65:
 667 0016 04E0     		b	.L39
 668              	.LVL66:
 669              	.L36:
 207:.\Generated_Source\PSoC5/LCD.c ****             break;
 670              		.loc 1 207 0
 671 0018 A1F16C00 		sub	r0, r1, #108
 672              	.LVL67:
 673 001c 01E0     		b	.L39
 674              	.LVL68:
 675              	.L37:
 210:.\Generated_Source\PSoC5/LCD.c ****             break;
 676              		.loc 1 210 0
 677 001e A1F12C00 		sub	r0, r1, #44
 678              	.LVL69:
 679              	.L39:
 680 0022 C0B2     		uxtb	r0, r0
 681              	.L38:
 682 0024 FFF7FEBF 		b	LCD_WriteControl
 683              	.LVL70:
 684              	.L31:
 685 0028 7047     		bx	lr
 686              		.cfi_endproc
 687              	.LFE4:
 688              		.size	LCD_Position, .-LCD_Position
 689              		.section	.text.LCD_PrintInt8,"ax",%progbits
 690              		.align	1
 691              		.global	LCD_PrintInt8
 692              		.thumb
 693              		.thumb_func
 694              		.type	LCD_PrintInt8, %function
 695              	LCD_PrintInt8:
 696              	.LFB12:
 541:.\Generated_Source\PSoC5/LCD.c **** }
 542:.\Generated_Source\PSoC5/LCD.c **** 
 543:.\Generated_Source\PSoC5/LCD.c **** 
 544:.\Generated_Source\PSoC5/LCD.c **** #if(LCD_CONVERSION_ROUTINES == 1u)
 545:.\Generated_Source\PSoC5/LCD.c **** 
 546:.\Generated_Source\PSoC5/LCD.c ****     /*******************************************************************************
 547:.\Generated_Source\PSoC5/LCD.c ****     *  Function Name: LCD_PrintInt8
 548:.\Generated_Source\PSoC5/LCD.c ****     ********************************************************************************
 549:.\Generated_Source\PSoC5/LCD.c ****     *
 550:.\Generated_Source\PSoC5/LCD.c ****     * Summary:
 551:.\Generated_Source\PSoC5/LCD.c ****     *  Print a byte as two ASCII characters.
 552:.\Generated_Source\PSoC5/LCD.c ****     *
 553:.\Generated_Source\PSoC5/LCD.c ****     * Parameters:
 554:.\Generated_Source\PSoC5/LCD.c ****     *  value:  The byte to be printed out as ASCII characters.
 555:.\Generated_Source\PSoC5/LCD.c ****     *
ARM GAS  C:\Users\Rolando\AppData\Local\Temp\ccLDCFbd.s 			page 25


 556:.\Generated_Source\PSoC5/LCD.c ****     * Return:
 557:.\Generated_Source\PSoC5/LCD.c ****     *  None.
 558:.\Generated_Source\PSoC5/LCD.c ****     *
 559:.\Generated_Source\PSoC5/LCD.c ****     *******************************************************************************/
 560:.\Generated_Source\PSoC5/LCD.c ****     void LCD_PrintInt8(uint8 value) 
 561:.\Generated_Source\PSoC5/LCD.c ****     {
 697              		.loc 1 561 0
 698              		.cfi_startproc
 699              		@ args = 0, pretend = 0, frame = 0
 700              		@ frame_needed = 0, uses_anonymous_args = 0
 701              	.LVL71:
 702 0000 38B5     		push	{r3, r4, r5, lr}
 703              		.cfi_def_cfa_offset 16
 704              		.cfi_offset 3, -16
 705              		.cfi_offset 4, -12
 706              		.cfi_offset 5, -8
 707              		.cfi_offset 14, -4
 708              		.loc 1 561 0
 709 0002 0446     		mov	r4, r0
 562:.\Generated_Source\PSoC5/LCD.c ****         static char8 const CYCODE LCD_hex[16u] = "0123456789ABCDEF";
 563:.\Generated_Source\PSoC5/LCD.c ****         
 564:.\Generated_Source\PSoC5/LCD.c ****         LCD_PutChar((char8) LCD_hex[value >> LCD_BYTE_UPPER_NIBBLE_SHIFT]);
 710              		.loc 1 564 0
 711 0004 054D     		ldr	r5, .L41
 712 0006 0309     		lsrs	r3, r0, #4
 713              	.LBB6:
 714              	.LBB7:
 266:.\Generated_Source\PSoC5/LCD.c **** }
 715              		.loc 1 266 0
 716 0008 E85C     		ldrb	r0, [r5, r3]	@ zero_extendqisi2
 717              	.LVL72:
 718              	.LBE7:
 719              	.LBE6:
 565:.\Generated_Source\PSoC5/LCD.c ****         LCD_PutChar((char8) LCD_hex[value & LCD_BYTE_LOWER_NIBBLE_MASK]);
 720              		.loc 1 565 0
 721 000a 04F00F04 		and	r4, r4, #15
 722              	.LBB9:
 723              	.LBB8:
 266:.\Generated_Source\PSoC5/LCD.c **** }
 724              		.loc 1 266 0
 725 000e FFF7FEFF 		bl	LCD_WriteData
 726              	.LVL73:
 727              	.LBE8:
 728              	.LBE9:
 729              	.LBB10:
 730              	.LBB11:
 731 0012 285D     		ldrb	r0, [r5, r4]	@ zero_extendqisi2
 732              	.LBE11:
 733              	.LBE10:
 566:.\Generated_Source\PSoC5/LCD.c ****     }
 734              		.loc 1 566 0
 735 0014 BDE83840 		pop	{r3, r4, r5, lr}
 736              		.cfi_restore 14
 737              		.cfi_restore 5
 738              		.cfi_restore 4
 739              		.cfi_restore 3
 740              		.cfi_def_cfa_offset 0
ARM GAS  C:\Users\Rolando\AppData\Local\Temp\ccLDCFbd.s 			page 26


 741              	.LBB13:
 742              	.LBB12:
 266:.\Generated_Source\PSoC5/LCD.c **** }
 743              		.loc 1 266 0
 744 0018 FFF7FEBF 		b	LCD_WriteData
 745              	.LVL74:
 746              	.L42:
 747              		.align	2
 748              	.L41:
 749 001c 00000000 		.word	.LANCHOR1
 750              	.LBE12:
 751              	.LBE13:
 752              		.cfi_endproc
 753              	.LFE12:
 754              		.size	LCD_PrintInt8, .-LCD_PrintInt8
 755              		.section	.text.LCD_PrintInt16,"ax",%progbits
 756              		.align	1
 757              		.global	LCD_PrintInt16
 758              		.thumb
 759              		.thumb_func
 760              		.type	LCD_PrintInt16, %function
 761              	LCD_PrintInt16:
 762              	.LFB13:
 567:.\Generated_Source\PSoC5/LCD.c **** 
 568:.\Generated_Source\PSoC5/LCD.c **** 
 569:.\Generated_Source\PSoC5/LCD.c ****     /*******************************************************************************
 570:.\Generated_Source\PSoC5/LCD.c ****     *  Function Name: LCD_PrintInt16
 571:.\Generated_Source\PSoC5/LCD.c ****     ********************************************************************************
 572:.\Generated_Source\PSoC5/LCD.c ****     *
 573:.\Generated_Source\PSoC5/LCD.c ****     * Summary:
 574:.\Generated_Source\PSoC5/LCD.c ****     *  Print a uint16 as four ASCII characters.
 575:.\Generated_Source\PSoC5/LCD.c ****     *
 576:.\Generated_Source\PSoC5/LCD.c ****     * Parameters:
 577:.\Generated_Source\PSoC5/LCD.c ****     *  value:   The uint16 to be printed out as ASCII characters.
 578:.\Generated_Source\PSoC5/LCD.c ****     *
 579:.\Generated_Source\PSoC5/LCD.c ****     * Return:
 580:.\Generated_Source\PSoC5/LCD.c ****     *  None.
 581:.\Generated_Source\PSoC5/LCD.c ****     *
 582:.\Generated_Source\PSoC5/LCD.c ****     *******************************************************************************/
 583:.\Generated_Source\PSoC5/LCD.c ****     void LCD_PrintInt16(uint16 value) 
 584:.\Generated_Source\PSoC5/LCD.c ****     {
 763              		.loc 1 584 0
 764              		.cfi_startproc
 765              		@ args = 0, pretend = 0, frame = 0
 766              		@ frame_needed = 0, uses_anonymous_args = 0
 767              	.LVL75:
 768 0000 10B5     		push	{r4, lr}
 769              		.cfi_def_cfa_offset 8
 770              		.cfi_offset 4, -8
 771              		.cfi_offset 14, -4
 772              		.loc 1 584 0
 773 0002 0446     		mov	r4, r0
 585:.\Generated_Source\PSoC5/LCD.c ****         LCD_PrintInt8((uint8)(value >> LCD_U16_UPPER_BYTE_SHIFT));
 774              		.loc 1 585 0
 775 0004 000A     		lsrs	r0, r0, #8
 776              	.LVL76:
 777 0006 FFF7FEFF 		bl	LCD_PrintInt8
ARM GAS  C:\Users\Rolando\AppData\Local\Temp\ccLDCFbd.s 			page 27


 778              	.LVL77:
 586:.\Generated_Source\PSoC5/LCD.c ****         LCD_PrintInt8((uint8)(value & LCD_U16_LOWER_BYTE_MASK));
 779              		.loc 1 586 0
 780 000a E0B2     		uxtb	r0, r4
 587:.\Generated_Source\PSoC5/LCD.c ****     }
 781              		.loc 1 587 0
 782 000c BDE81040 		pop	{r4, lr}
 783              		.cfi_restore 14
 784              		.cfi_restore 4
 785              		.cfi_def_cfa_offset 0
 586:.\Generated_Source\PSoC5/LCD.c ****         LCD_PrintInt8((uint8)(value & LCD_U16_LOWER_BYTE_MASK));
 786              		.loc 1 586 0
 787 0010 FFF7FEBF 		b	LCD_PrintInt8
 788              	.LVL78:
 789              		.cfi_endproc
 790              	.LFE13:
 791              		.size	LCD_PrintInt16, .-LCD_PrintInt16
 792              		.section	.text.LCD_PrintNumber,"ax",%progbits
 793              		.align	1
 794              		.global	LCD_PrintNumber
 795              		.thumb
 796              		.thumb_func
 797              		.type	LCD_PrintNumber, %function
 798              	LCD_PrintNumber:
 799              	.LFB14:
 588:.\Generated_Source\PSoC5/LCD.c **** 
 589:.\Generated_Source\PSoC5/LCD.c **** 
 590:.\Generated_Source\PSoC5/LCD.c ****     /*******************************************************************************
 591:.\Generated_Source\PSoC5/LCD.c ****     *  Function Name: LCD_PrintNumber
 592:.\Generated_Source\PSoC5/LCD.c ****     ********************************************************************************
 593:.\Generated_Source\PSoC5/LCD.c ****     *
 594:.\Generated_Source\PSoC5/LCD.c ****     * Summary:
 595:.\Generated_Source\PSoC5/LCD.c ****     *  Print an uint32 value as a left-justified decimal value.
 596:.\Generated_Source\PSoC5/LCD.c ****     *
 597:.\Generated_Source\PSoC5/LCD.c ****     * Parameters:
 598:.\Generated_Source\PSoC5/LCD.c ****     *  value:  The byte to be printed out as ASCII characters.
 599:.\Generated_Source\PSoC5/LCD.c ****     *
 600:.\Generated_Source\PSoC5/LCD.c ****     * Return:
 601:.\Generated_Source\PSoC5/LCD.c ****     *  None.
 602:.\Generated_Source\PSoC5/LCD.c ****     *
 603:.\Generated_Source\PSoC5/LCD.c ****     *******************************************************************************/
 604:.\Generated_Source\PSoC5/LCD.c ****     void LCD_PrintNumber(uint16 value) 
 605:.\Generated_Source\PSoC5/LCD.c ****     {
 800              		.loc 1 605 0
 801              		.cfi_startproc
 802              		@ args = 0, pretend = 0, frame = 16
 803              		@ frame_needed = 0, uses_anonymous_args = 0
 804              	.LVL79:
 805 0000 7FB5     		push	{r0, r1, r2, r3, r4, r5, r6, lr}
 806              		.cfi_def_cfa_offset 32
 807              		.cfi_offset 4, -16
 808              		.cfi_offset 5, -12
 809              		.cfi_offset 6, -8
 810              		.cfi_offset 14, -4
 606:.\Generated_Source\PSoC5/LCD.c **** 
 607:.\Generated_Source\PSoC5/LCD.c ****         char8 number[LCD_NUMBER_OF_REMAINDERS];
 608:.\Generated_Source\PSoC5/LCD.c ****         char8 temp[LCD_NUMBER_OF_REMAINDERS];
ARM GAS  C:\Users\Rolando\AppData\Local\Temp\ccLDCFbd.s 			page 28


 609:.\Generated_Source\PSoC5/LCD.c **** 
 610:.\Generated_Source\PSoC5/LCD.c ****         uint8 digIndex = 0u;
 611:.\Generated_Source\PSoC5/LCD.c ****         uint8 numDigits;
 612:.\Generated_Source\PSoC5/LCD.c **** 
 613:.\Generated_Source\PSoC5/LCD.c ****         /* Load these in reverse order */
 614:.\Generated_Source\PSoC5/LCD.c ****         while(value >= LCD_TEN)
 811              		.loc 1 614 0
 812 0002 0022     		movs	r2, #0
 813              	.LVL80:
 814              	.L45:
 815 0004 D3B2     		uxtb	r3, r2
 816              	.LVL81:
 817 0006 511C     		adds	r1, r2, #1
 818 0008 0928     		cmp	r0, #9
 819 000a 04AA     		add	r2, sp, #16
 820 000c 02EB0306 		add	r6, r2, r3
 821 0010 4FF00A02 		mov	r2, #10
 822 0014 09D9     		bls	.L49
 615:.\Generated_Source\PSoC5/LCD.c ****         {
 616:.\Generated_Source\PSoC5/LCD.c ****             temp[digIndex] = (value % LCD_TEN) + '0';
 823              		.loc 1 616 0
 824 0016 B0FBF2F3 		udiv	r3, r0, r2
 825              	.LVL82:
 826 001a 02FB1302 		mls	r2, r2, r3, r0
 827 001e 3032     		adds	r2, r2, #48
 828 0020 06F8082C 		strb	r2, [r6, #-8]
 617:.\Generated_Source\PSoC5/LCD.c ****             value /= LCD_TEN;
 829              		.loc 1 617 0
 830 0024 98B2     		uxth	r0, r3
 831              	.LVL83:
 832 0026 0A46     		mov	r2, r1
 833 0028 ECE7     		b	.L45
 834              	.LVL84:
 835              	.L49:
 618:.\Generated_Source\PSoC5/LCD.c ****             digIndex++;
 619:.\Generated_Source\PSoC5/LCD.c ****         }
 620:.\Generated_Source\PSoC5/LCD.c **** 
 621:.\Generated_Source\PSoC5/LCD.c ****         temp[digIndex] = (value % LCD_TEN) + '0';
 836              		.loc 1 621 0
 837 002a B0FBF2F1 		udiv	r1, r0, r2
 838 002e 1D46     		mov	r5, r3
 839 0030 1C46     		mov	r4, r3
 840 0032 02FB1102 		mls	r2, r2, r1, r0
 841 0036 3032     		adds	r2, r2, #48
 842 0038 06F8082C 		strb	r2, [r6, #-8]
 843              	.LVL85:
 844              	.L47:
 622:.\Generated_Source\PSoC5/LCD.c ****         numDigits = digIndex;
 623:.\Generated_Source\PSoC5/LCD.c **** 
 624:.\Generated_Source\PSoC5/LCD.c ****         /* While index is greater than or equal to zero copy number
 625:.\Generated_Source\PSoC5/LCD.c ****         * from temporary array to number[].
 626:.\Generated_Source\PSoC5/LCD.c ****         */
 627:.\Generated_Source\PSoC5/LCD.c ****         while (digIndex != 0u)
 845              		.loc 1 627 0
 846 003c 53B1     		cbz	r3, .L50
 628:.\Generated_Source\PSoC5/LCD.c ****         {
 629:.\Generated_Source\PSoC5/LCD.c ****             number[numDigits - digIndex] = temp[digIndex];
ARM GAS  C:\Users\Rolando\AppData\Local\Temp\ccLDCFbd.s 			page 29


 847              		.loc 1 629 0
 848 003e E21A     		subs	r2, r4, r3
 849 0040 04A9     		add	r1, sp, #16
 850 0042 0A44     		add	r2, r2, r1
 851 0044 1944     		add	r1, r1, r3
 852 0046 11F8081C 		ldrb	r1, [r1, #-8]	@ zero_extendqisi2
 630:.\Generated_Source\PSoC5/LCD.c ****             digIndex--;
 853              		.loc 1 630 0
 854 004a 013B     		subs	r3, r3, #1
 855              	.LVL86:
 629:.\Generated_Source\PSoC5/LCD.c ****             digIndex--;
 856              		.loc 1 629 0
 857 004c 02F8101C 		strb	r1, [r2, #-16]
 858              		.loc 1 630 0
 859 0050 DBB2     		uxtb	r3, r3
 860              	.LVL87:
 861 0052 F3E7     		b	.L47
 862              	.L50:
 631:.\Generated_Source\PSoC5/LCD.c ****         }
 632:.\Generated_Source\PSoC5/LCD.c ****         
 633:.\Generated_Source\PSoC5/LCD.c ****         /* Copy last digit */
 634:.\Generated_Source\PSoC5/LCD.c ****         number[numDigits] = temp[0u];
 863              		.loc 1 634 0
 864 0054 04AA     		add	r2, sp, #16
 865 0056 1444     		add	r4, r4, r2
 866              	.LVL88:
 867 0058 9DF80820 		ldrb	r2, [sp, #8]	@ zero_extendqisi2
 635:.\Generated_Source\PSoC5/LCD.c **** 
 636:.\Generated_Source\PSoC5/LCD.c ****         /* Null Termination */
 637:.\Generated_Source\PSoC5/LCD.c ****         number[numDigits + 1u] = (char8) '\0';
 638:.\Generated_Source\PSoC5/LCD.c **** 
 639:.\Generated_Source\PSoC5/LCD.c ****         /* Print out number */
 640:.\Generated_Source\PSoC5/LCD.c ****         LCD_PrintString(&number[0u]);
 868              		.loc 1 640 0
 869 005c 6846     		mov	r0, sp
 870              	.LVL89:
 634:.\Generated_Source\PSoC5/LCD.c **** 
 871              		.loc 1 634 0
 872 005e 04F8102C 		strb	r2, [r4, #-16]
 637:.\Generated_Source\PSoC5/LCD.c **** 
 873              		.loc 1 637 0
 874 0062 04AA     		add	r2, sp, #16
 875 0064 2A44     		add	r2, r2, r5
 876 0066 02F80F3C 		strb	r3, [r2, #-15]
 877              		.loc 1 640 0
 878 006a FFF7FEFF 		bl	LCD_PrintString
 879              	.LVL90:
 641:.\Generated_Source\PSoC5/LCD.c ****     }
 880              		.loc 1 641 0
 881 006e 04B0     		add	sp, sp, #16
 882              		.cfi_def_cfa_offset 16
 883              		@ sp needed
 884 0070 70BD     		pop	{r4, r5, r6, pc}
 885              		.cfi_endproc
 886              	.LFE14:
 887              		.size	LCD_PrintNumber, .-LCD_PrintNumber
 888              		.global	LCD_initVar
ARM GAS  C:\Users\Rolando\AppData\Local\Temp\ccLDCFbd.s 			page 30


 889              		.global	LCD_enableState
 890              		.section	.rodata
 891              		.set	.LANCHOR1,. + 0
 892              		.type	LCD_hex.4900, %object
 893              		.size	LCD_hex.4900, 16
 894              	LCD_hex.4900:
 895 0000 30313233 		.ascii	"0123456789ABCDEF"
 895      34353637 
 895      38394142 
 895      43444546 
 896              		.bss
 897              		.set	.LANCHOR0,. + 0
 898              		.type	LCD_enableState, %object
 899              		.size	LCD_enableState, 1
 900              	LCD_enableState:
 901 0000 00       		.space	1
 902              		.type	LCD_initVar, %object
 903              		.size	LCD_initVar, 1
 904              	LCD_initVar:
 905 0001 00       		.space	1
 906              		.text
 907              	.Letext0:
 908              		.file 2 ".\\Generated_Source\\PSoC5\\cytypes.h"
 909              		.file 3 ".\\Generated_Source\\PSoC5\\CyLib.h"