ARM GAS  C:\Users\Rolando\AppData\Local\Temp\cc5u1hPd.s 			page 1


   1              		.syntax unified
   2              		.cpu cortex-m3
   3              		.fpu softvfp
   4              		.eabi_attribute 20, 1
   5              		.eabi_attribute 21, 1
   6              		.eabi_attribute 23, 3
   7              		.eabi_attribute 24, 1
   8              		.eabi_attribute 25, 1
   9              		.eabi_attribute 26, 1
  10              		.eabi_attribute 30, 4
  11              		.eabi_attribute 34, 1
  12              		.eabi_attribute 18, 4
  13              		.thumb
  14              		.file	"main.c"
  15              		.text
  16              	.Ltext0:
  17              		.cfi_sections	.debug_frame
  18              		.section	.text.startup.main,"ax",%progbits
  19              		.align	1
  20              		.global	main
  21              		.thumb
  22              		.thumb_func
  23              		.type	main, %function
  24              	main:
  25              	.LFB63:
  26              		.file 1 ".\\main.c"
   1:.\main.c      **** ///*******************************************************************************
   2:.\main.c      **** //* File: main.c
   3:.\main.c      **** //
   4:.\main.c      **** 
   5:.\main.c      **** #include <device.h>
   6:.\main.c      **** #include "stdio.h"
   7:.\main.c      **** 
   8:.\main.c      **** #define MAX_SAMPLE                  8
   9:.\main.c      **** 
  10:.\main.c      **** int main(void)
  11:.\main.c      **** {
  27              		.loc 1 11 0
  28              		.cfi_startproc
  29              		@ args = 0, pretend = 0, frame = 16
  30              		@ frame_needed = 0, uses_anonymous_args = 0
  31              	.LVL0:
  32 0000 30B5     		push	{r4, r5, lr}
  33              		.cfi_def_cfa_offset 12
  34              		.cfi_offset 4, -12
  35              		.cfi_offset 5, -8
  36              		.cfi_offset 14, -4
  37 0002 85B0     		sub	sp, sp, #20
  38              		.cfi_def_cfa_offset 32
  12:.\main.c      ****     /* Variable to hold ADC count */
  13:.\main.c      ****     int32 voltCount = 0;
  14:.\main.c      ****     
  15:.\main.c      ****     /* Variable to hold the result in millivolts converted from ADC counts */
  16:.\main.c      **** 
  17:.\main.c      ****     /* Variable to count number of samples collected from ADC */
  18:.\main.c      ****     uint8 sampleCount = 0;
  19:.\main.c      **** 	
ARM GAS  C:\Users\Rolando\AppData\Local\Temp\cc5u1hPd.s 			page 2


  20:.\main.c      ****     /* Variable to hold cumulative samples */
  21:.\main.c      ****     int32 voltSamples = 0;
  22:.\main.c      **** 	
  23:.\main.c      ****     /* Variable to hold the average volts for 8 samples */
  24:.\main.c      ****     uint32 averageVolts = 0;
  25:.\main.c      **** 	
  26:.\main.c      ****     /* Character array to hold the micro volts*/
  27:.\main.c      ****     char displayStr[15] = {'\0'};
  39              		.loc 1 27 0
  40 0004 6846     		mov	r0, sp
  41 0006 0021     		movs	r1, #0
  42 0008 0F22     		movs	r2, #15
  43 000a FFF7FEFF 		bl	memset
  44              	.LVL1:
  28:.\main.c      ****     
  29:.\main.c      ****     CYGlobalIntEnable;
  45              		.loc 1 29 0
  46              	@ 29 ".\main.c" 1
  47 000e 62B6     		CPSIE   i
  48              	@ 0 "" 2
  30:.\main.c      ****     VDAC8_1_Start();
  49              		.loc 1 30 0
  50              		.thumb
  51 0010 FFF7FEFF 		bl	VDAC8_1_Start
  52              	.LVL2:
  31:.\main.c      ****     /* Start ADC and start conversion */
  32:.\main.c      ****     ADC_Start();
  53              		.loc 1 32 0
  54 0014 FFF7FEFF 		bl	ADC_Start
  55              	.LVL3:
  33:.\main.c      ****     ADC_StartConvert();
  56              		.loc 1 33 0
  57 0018 FFF7FEFF 		bl	ADC_StartConvert
  58              	.LVL4:
  34:.\main.c      **** 
  35:.\main.c      ****     /* Start LCD and set position */
  36:.\main.c      ****     LCD_Start();
  59              		.loc 1 36 0
  60 001c FFF7FEFF 		bl	LCD_Start
  61              	.LVL5:
  37:.\main.c      ****     LCD_Position(0,1);
  62              		.loc 1 37 0
  63 0020 0020     		movs	r0, #0
  64 0022 0121     		movs	r1, #1
  65 0024 FFF7FEFF 		bl	LCD_Position
  66              	.LVL6:
  38:.\main.c      ****     LCD_PrintString("ADC input volt");
  67              		.loc 1 38 0
  68 0028 0E48     		ldr	r0, .L7
  69              	.LVL7:
  70              	.L5:
  71 002a FFF7FEFF 		bl	LCD_PrintString
  72              	.LVL8:
  11:.\main.c      ****     /* Variable to hold ADC count */
  73              		.loc 1 11 0
  74 002e 0824     		movs	r4, #8
  75 0030 0025     		movs	r5, #0
ARM GAS  C:\Users\Rolando\AppData\Local\Temp\cc5u1hPd.s 			page 3


  76              	.LVL9:
  77              	.L2:
  39:.\main.c      ****     
  40:.\main.c      ****     while(1)
  41:.\main.c      ****     {
  42:.\main.c      ****         /* Read ADC count and convert to milli volts */
  43:.\main.c      ****         ADC_IsEndConversion(ADC_WAIT_FOR_RESULT);
  78              		.loc 1 43 0
  79 0032 0020     		movs	r0, #0
  80 0034 FFF7FEFF 		bl	ADC_IsEndConversion
  81              	.LVL10:
  44:.\main.c      ****         voltCount = ADC_GetResult16();
  82              		.loc 1 44 0
  83 0038 FFF7FEFF 		bl	ADC_GetResult16
  84              	.LVL11:
  85 003c 013C     		subs	r4, r4, #1
  86              	.LVL12:
  45:.\main.c      **** //        mVolts = ADC_CountsTo_mVolts(voltCount);
  46:.\main.c      **** //        
  47:.\main.c      ****         /* Add the current ADC reading to the cumulated samples*/
  48:.\main.c      ****         voltSamples = voltSamples + voltCount;
  49:.\main.c      **** 
  50:.\main.c      ****         sampleCount++;
  51:.\main.c      **** 
  52:.\main.c      ****         /* If 8 samples have been collected then average the samples and update the display*/
  53:.\main.c      ****         if(sampleCount == MAX_SAMPLE)
  87              		.loc 1 53 0
  88 003e 14F0FF04 		ands	r4, r4, #255
  48:.\main.c      **** 
  89              		.loc 1 48 0
  90 0042 0544     		add	r5, r5, r0
  91              	.LVL13:
  92              		.loc 1 53 0
  93 0044 F5D1     		bne	.L2
  54:.\main.c      ****         {
  55:.\main.c      ****             averageVolts = voltSamples >> 3;
  94              		.loc 1 55 0
  95 0046 ED10     		asrs	r5, r5, #3
  96              	.LVL14:
  56:.\main.c      ****             voltSamples = 0;
  57:.\main.c      ****             sampleCount = 0;
  58:.\main.c      ****             sprintf(displayStr,"    %4ld mV",averageVolts);
  97              		.loc 1 58 0
  98 0048 0749     		ldr	r1, .L7+4
  99 004a 2A46     		mov	r2, r5
 100 004c 6846     		mov	r0, sp
 101              	.LVL15:
 102 004e FFF7FEFF 		bl	sprintf
 103              	.LVL16:
  59:.\main.c      ****             VDAC8_1_SetValue(averageVolts);
 104              		.loc 1 59 0
 105 0052 E8B2     		uxtb	r0, r5
 106 0054 FFF7FEFF 		bl	VDAC8_1_SetValue
 107              	.LVL17:
  60:.\main.c      ****             LCD_Position(1,0);
 108              		.loc 1 60 0
 109 0058 0120     		movs	r0, #1
ARM GAS  C:\Users\Rolando\AppData\Local\Temp\cc5u1hPd.s 			page 4


 110 005a 2146     		mov	r1, r4
 111 005c FFF7FEFF 		bl	LCD_Position
 112              	.LVL18:
  61:.\main.c      ****             LCD_PrintString(displayStr);
 113              		.loc 1 61 0
 114 0060 6846     		mov	r0, sp
 115 0062 E2E7     		b	.L5
 116              	.L8:
 117              		.align	2
 118              	.L7:
 119 0064 00000000 		.word	.LC0
 120 0068 0F000000 		.word	.LC1
 121              		.cfi_endproc
 122              	.LFE63:
 123              		.size	main, .-main
 124              		.section	.rodata.str1.1,"aMS",%progbits,1
 125              	.LC0:
 126 0000 41444320 		.ascii	"ADC input volt\000"
 126      696E7075 
 126      7420766F 
 126      6C7400
 127              	.LC1:
 128 000f 20202020 		.ascii	"    %4ld mV\000"
 128      25346C64 
 128      206D5600 
 129              		.text
 130              	.Letext0:
 131              		.file 2 "c:\\program files (x86)\\cypress\\psoc creator\\3.3\\psoc creator\\import\\gnu\\arm\\4.9.
 132              		.file 3 "c:\\program files (x86)\\cypress\\psoc creator\\3.3\\psoc creator\\import\\gnu\\arm\\4.9.
 133              		.file 4 "Generated_Source\\PSoC5/cytypes.h"
 134              		.file 5 "Generated_Source\\PSoC5/VDAC8_1.h"
 135              		.file 6 "Generated_Source\\PSoC5/ADC.h"
 136              		.file 7 "Generated_Source\\PSoC5/LCD.h"
 137              		.file 8 "c:\\program files (x86)\\cypress\\psoc creator\\3.3\\psoc creator\\import\\gnu\\arm\\4.9.
 138              		.file 9 "Generated_Source\\PSoC5/core_cm3.h"