ARM GAS  C:\Users\Rolando\AppData\Local\Temp\ccB2EOfe.s 			page 1


   1              		.syntax unified
   2              		.cpu cortex-m3
   3              		.fpu softvfp
   4              		.eabi_attribute 20, 1
   5              		.eabi_attribute 21, 1
   6              		.eabi_attribute 23, 3
   7              		.eabi_attribute 24, 1
   8              		.eabi_attribute 25, 1
   9              		.eabi_attribute 26, 1
  10              		.eabi_attribute 30, 6
  11              		.eabi_attribute 34, 1
  12              		.eabi_attribute 18, 4
  13              		.thumb
  14              		.file	"main.c"
  15              		.text
  16              	.Ltext0:
  17              		.cfi_sections	.debug_frame
  18              		.section	.rodata
  19              		.align	2
  20              	.LC0:
  21 0000 41444320 		.ascii	"ADC input volt\000"
  21      696E7075 
  21      7420766F 
  21      6C7400
  22 000f 00       		.align	2
  23              	.LC1:
  24 0010 20202020 		.ascii	"    %4ld mV\000"
  24      25346C64 
  24      206D5600 
  25              		.section	.text.main,"ax",%progbits
  26              		.align	2
  27              		.global	main
  28              		.thumb
  29              		.thumb_func
  30              		.type	main, %function
  31              	main:
  32              	.LFB63:
  33              		.file 1 ".\\main.c"
   1:.\main.c      **** ///*******************************************************************************
   2:.\main.c      **** //* File: main.c
   3:.\main.c      **** /*******************************************************************************
   4:.\main.c      **** * Function Name: main
   5:.\main.c      **** ********************************************************************************
   6:.\main.c      **** *
   7:.\main.c      **** * Summary:
   8:.\main.c      **** *  Main function performs following functions:
   9:.\main.c      **** *   1: Initializes the LCD and clears the display
  10:.\main.c      **** *   2: Start the IDAC
  11:.\main.c      **** *   3: IDAC range is set to 255uA and value to 100
  12:.\main.c      **** *   4: Prints test name on LCD
  13:.\main.c      **** *
  14:.\main.c      **** * Parameters:
  15:.\main.c      **** *  None.
  16:.\main.c      **** *
  17:.\main.c      **** * Return:
  18:.\main.c      **** *  None.
  19:.\main.c      **** *
ARM GAS  C:\Users\Rolando\AppData\Local\Temp\ccB2EOfe.s 			page 2


  20:.\main.c      **** *******************************************************************************/
  21:.\main.c      **** #include <device.h>
  22:.\main.c      **** #include "stdio.h"
  23:.\main.c      **** 
  24:.\main.c      **** #define MAX_SAMPLE                  8
  25:.\main.c      **** 
  26:.\main.c      **** int main(void)
  27:.\main.c      **** {
  34              		.loc 1 27 0
  35              		.cfi_startproc
  36              		@ args = 0, pretend = 0, frame = 32
  37              		@ frame_needed = 1, uses_anonymous_args = 0
  38 0000 80B5     		push	{r7, lr}
  39              		.cfi_def_cfa_offset 8
  40              		.cfi_offset 7, -8
  41              		.cfi_offset 14, -4
  42 0002 88B0     		sub	sp, sp, #32
  43              		.cfi_def_cfa_offset 40
  44 0004 00AF     		add	r7, sp, #0
  45              		.cfi_def_cfa_register 7
  28:.\main.c      ****     /* Variable to hold ADC count */
  29:.\main.c      ****     int32 voltCount = 0;
  46              		.loc 1 29 0
  47 0006 0023     		movs	r3, #0
  48 0008 7B61     		str	r3, [r7, #20]
  30:.\main.c      ****     
  31:.\main.c      ****     /* Variable to hold the result in millivolts converted from ADC counts */
  32:.\main.c      **** 
  33:.\main.c      ****     /* Variable to count number of samples collected from ADC */
  34:.\main.c      ****     uint8 sampleCount = 0;
  49              		.loc 1 34 0
  50 000a 0023     		movs	r3, #0
  51 000c FB77     		strb	r3, [r7, #31]
  35:.\main.c      **** 	
  36:.\main.c      ****     /* Variable to hold cumulative samples */
  37:.\main.c      ****     int32 voltSamples = 0;
  52              		.loc 1 37 0
  53 000e 0023     		movs	r3, #0
  54 0010 BB61     		str	r3, [r7, #24]
  38:.\main.c      **** 	
  39:.\main.c      ****     /* Variable to hold the average volts for 8 samples */
  40:.\main.c      ****     uint32 averageVolts = 0;
  55              		.loc 1 40 0
  56 0012 0023     		movs	r3, #0
  57 0014 3B61     		str	r3, [r7, #16]
  41:.\main.c      **** 	
  42:.\main.c      ****     /* Character array to hold the micro volts*/
  43:.\main.c      ****     char displayStr[15] = {'\0'};
  58              		.loc 1 43 0
  59 0016 3B46     		mov	r3, r7
  60 0018 0022     		movs	r2, #0
  61 001a 1A60     		str	r2, [r3]
  62 001c 0433     		adds	r3, r3, #4
  63 001e 0022     		movs	r2, #0
  64 0020 1A60     		str	r2, [r3]
  65 0022 0433     		adds	r3, r3, #4
  66 0024 0022     		movs	r2, #0
ARM GAS  C:\Users\Rolando\AppData\Local\Temp\ccB2EOfe.s 			page 3


  67 0026 1A60     		str	r2, [r3]
  68 0028 0433     		adds	r3, r3, #4
  69 002a 0022     		movs	r2, #0
  70 002c 1A80     		strh	r2, [r3]	@ movhi
  71 002e 0233     		adds	r3, r3, #2
  72 0030 0022     		movs	r2, #0
  73 0032 1A70     		strb	r2, [r3]
  74 0034 0133     		adds	r3, r3, #1
  44:.\main.c      ****     
  45:.\main.c      ****     /* Start the IDAC component */
  46:.\main.c      ****     IDAC8_1_Start();             
  75              		.loc 1 46 0
  76 0036 FFF7FEFF 		bl	IDAC8_1_Start
  47:.\main.c      **** 
  48:.\main.c      ****     /* Sets the IDAC full scale range to 255uA */
  49:.\main.c      ****     IDAC8_1_SetRange(IDAC8_1_RANGE_255uA);    
  77              		.loc 1 49 0
  78 003a 0420     		movs	r0, #4
  79 003c FFF7FEFF 		bl	IDAC8_1_SetRange
  50:.\main.c      ****     
  51:.\main.c      ****     /* Start ADC and start conversion */
  52:.\main.c      ****     ADC_Start();
  80              		.loc 1 52 0
  81 0040 FFF7FEFF 		bl	ADC_Start
  53:.\main.c      ****     ADC_StartConvert();
  82              		.loc 1 53 0
  83 0044 FFF7FEFF 		bl	ADC_StartConvert
  54:.\main.c      **** 
  55:.\main.c      ****     /* Start LCD and set position */
  56:.\main.c      ****     LCD_Start();
  84              		.loc 1 56 0
  85 0048 FFF7FEFF 		bl	LCD_Start
  57:.\main.c      ****     LCD_Position(0,1);
  86              		.loc 1 57 0
  87 004c 0020     		movs	r0, #0
  88 004e 0121     		movs	r1, #1
  89 0050 FFF7FEFF 		bl	LCD_Position
  58:.\main.c      ****     LCD_PrintString("ADC input volt");
  90              		.loc 1 58 0
  91 0054 1748     		ldr	r0, .L4
  92 0056 FFF7FEFF 		bl	LCD_PrintString
  93              	.L3:
  59:.\main.c      ****     
  60:.\main.c      **** //    uint8 PWM_V =0x00u;
  61:.\main.c      **** //    Control_Reg_1_Write(0x0Fu);
  62:.\main.c      ****     //PWM_1_WritePeriod(0x01u);
  63:.\main.c      ****     while(1)
  64:.\main.c      ****     {
  65:.\main.c      ****         /* Read ADC count and convert to milli volts */
  66:.\main.c      ****         ADC_IsEndConversion(ADC_WAIT_FOR_RESULT);
  94              		.loc 1 66 0
  95 005a 0020     		movs	r0, #0
  96 005c FFF7FEFF 		bl	ADC_IsEndConversion
  67:.\main.c      ****         voltCount = ADC_GetResult16();
  97              		.loc 1 67 0
  98 0060 FFF7FEFF 		bl	ADC_GetResult16
  99 0064 0346     		mov	r3, r0
ARM GAS  C:\Users\Rolando\AppData\Local\Temp\ccB2EOfe.s 			page 4


 100 0066 7B61     		str	r3, [r7, #20]
  68:.\main.c      **** //        mVolts = ADC_CountsTo_mVolts(voltCount);
  69:.\main.c      **** //        
  70:.\main.c      ****         /* Add the current ADC reading to the cumulated samples*/
  71:.\main.c      ****         voltSamples = voltSamples + voltCount;
 101              		.loc 1 71 0
 102 0068 BA69     		ldr	r2, [r7, #24]
 103 006a 7B69     		ldr	r3, [r7, #20]
 104 006c 1344     		add	r3, r3, r2
 105 006e BB61     		str	r3, [r7, #24]
  72:.\main.c      **** 
  73:.\main.c      ****         sampleCount++;
 106              		.loc 1 73 0
 107 0070 FB7F     		ldrb	r3, [r7, #31]	@ zero_extendqisi2
 108 0072 0133     		adds	r3, r3, #1
 109 0074 FB77     		strb	r3, [r7, #31]
  74:.\main.c      **** 
  75:.\main.c      ****         /* If 8 samples have been collected then average the samples and update the display*/
  76:.\main.c      ****         if(sampleCount == MAX_SAMPLE)
 110              		.loc 1 76 0
 111 0076 FB7F     		ldrb	r3, [r7, #31]	@ zero_extendqisi2
 112 0078 082B     		cmp	r3, #8
 113 007a 19D1     		bne	.L2
  77:.\main.c      ****         {
  78:.\main.c      ****             averageVolts = voltSamples >> 3;
 114              		.loc 1 78 0
 115 007c BB69     		ldr	r3, [r7, #24]
 116 007e DB10     		asrs	r3, r3, #3
 117 0080 3B61     		str	r3, [r7, #16]
  79:.\main.c      ****             voltSamples = 0;
 118              		.loc 1 79 0
 119 0082 0023     		movs	r3, #0
 120 0084 BB61     		str	r3, [r7, #24]
  80:.\main.c      ****             sampleCount = 0;
 121              		.loc 1 80 0
 122 0086 0023     		movs	r3, #0
 123 0088 FB77     		strb	r3, [r7, #31]
  81:.\main.c      **** 
  82:.\main.c      ****             /* Convert milli volts to string and display on the LCD. sprintf()
  83:.\main.c      ****             *  function is standard library function defined in the stdio.h 
  84:.\main.c      ****             *  header file */
  85:.\main.c      **** //            PWM_V = averageVolts;
  86:.\main.c      ****             sprintf(displayStr,"    %4ld mV",averageVolts);
 124              		.loc 1 86 0
 125 008a 3B46     		mov	r3, r7
 126 008c 1846     		mov	r0, r3
 127 008e 0A49     		ldr	r1, .L4+4
 128 0090 3A69     		ldr	r2, [r7, #16]
 129 0092 FFF7FEFF 		bl	sprintf
  87:.\main.c      ****             
  88:.\main.c      ****             IDAC8_1_SetValue(averageVolts);
 130              		.loc 1 88 0
 131 0096 3B69     		ldr	r3, [r7, #16]
 132 0098 DBB2     		uxtb	r3, r3
 133 009a 1846     		mov	r0, r3
 134 009c FFF7FEFF 		bl	IDAC8_1_SetValue
  89:.\main.c      ****             
ARM GAS  C:\Users\Rolando\AppData\Local\Temp\ccB2EOfe.s 			page 5


  90:.\main.c      ****             LCD_Position(1,0);
 135              		.loc 1 90 0
 136 00a0 0120     		movs	r0, #1
 137 00a2 0021     		movs	r1, #0
 138 00a4 FFF7FEFF 		bl	LCD_Position
  91:.\main.c      ****             LCD_PrintString(displayStr);
 139              		.loc 1 91 0
 140 00a8 3B46     		mov	r3, r7
 141 00aa 1846     		mov	r0, r3
 142 00ac FFF7FEFF 		bl	LCD_PrintString
 143              	.L2:
  92:.\main.c      ****         }	
  93:.\main.c      ****     }
 144              		.loc 1 93 0
 145 00b0 D3E7     		b	.L3
 146              	.L5:
 147 00b2 00BF     		.align	2
 148              	.L4:
 149 00b4 00000000 		.word	.LC0
 150 00b8 10000000 		.word	.LC1
 151              		.cfi_endproc
 152              	.LFE63:
 153              		.size	main, .-main
 154              		.text
 155              	.Letext0:
 156              		.file 2 "c:\\program files (x86)\\cypress\\psoc creator\\3.3\\psoc creator\\import\\gnu\\arm\\4.9.
 157              		.file 3 "c:\\program files (x86)\\cypress\\psoc creator\\3.3\\psoc creator\\import\\gnu\\arm\\4.9.
 158              		.file 4 "Generated_Source\\PSoC5/cytypes.h"
 159              		.file 5 "Generated_Source\\PSoC5/core_cm3.h"